

Microchip MPLAB XC8 Assembler V2.46 build 20240104201356 
                                                                                               Thu Aug 01 10:13:56 2024

Microchip MPLAB XC8 C Compiler v2.46 (Free license) build 20240104201356 Og1 
     1                           	processor	18F4620
     2                           	fnconf	rparam,??,?,0
     3                           	pagewidth 120
     4                           	opt	flic
     5                           	psect	idataCOMRAM,global,class=CODE,delta=1,noexec
     6                           	psect	smallconst,global,reloc=2,class=SMALLCONST,delta=1,noexec
     7                           	psect	nvCOMRAM,global,class=COMRAM,space=1,delta=1,lowdata,noexec
     8                           	psect	cinit,global,reloc=2,class=CODE,delta=1
     9                           	psect	bssCOMRAM,global,class=COMRAM,space=1,delta=1,lowdata,noexec
    10                           	psect	dataCOMRAM,global,class=COMRAM,space=1,delta=1,lowdata,noexec
    11                           	psect	cstackCOMRAM,global,class=COMRAM,space=1,delta=1,lowdata,noexec
    12                           	psect	text0,global,reloc=2,class=CODE,delta=1
    13                           	psect	text1,global,reloc=2,class=CODE,delta=1
    14                           	psect	text2,global,reloc=2,class=CODE,delta=1
    15                           	psect	text3,global,reloc=2,class=CODE,delta=1
    16                           	psect	text4,global,reloc=2,class=CODE,delta=1
    17                           	psect	text5,global,reloc=2,class=CODE,delta=1
    18                           	psect	text6,global,reloc=2,class=CODE,delta=1
    19                           	psect	text7,global,reloc=2,class=CODE,delta=1
    20                           	psect	text8,global,reloc=2,class=CODE,delta=1
    21                           	psect	text9,global,reloc=2,class=CODE,delta=1
    22                           	psect	text10,global,reloc=2,class=CODE,delta=1
    23                           	psect	intcode,global,reloc=2,class=CODE,delta=1
    24                           	psect	intcode_body,global,reloc=2,class=CODE,delta=1
    25                           	psect	text12,global,reloc=2,class=CODE,delta=1
    26                           	psect	text13,global,reloc=2,class=CODE,delta=1
    27                           	psect	text14,global,reloc=2,class=CODE,delta=1
    28                           	psect	text15,global,reloc=2,class=CODE,delta=1
    29                           	psect	text16,global,reloc=2,class=CODE,delta=1
    30                           	psect	text17,global,reloc=2,class=CODE,delta=1
    31                           	psect	text18,global,reloc=2,class=CODE,delta=1
    32                           	psect	text19,global,reloc=2,class=CODE,delta=1
    33                           	psect	text20,global,reloc=2,class=CODE,delta=1
    34                           	psect	text21,global,reloc=2,class=CODE,delta=1
    35                           	psect	text22,global,reloc=2,class=CODE,delta=1
    36                           	psect	text23,global,reloc=2,class=CODE,delta=1
    37                           	psect	intsave_regs,global,class=BIGRAM,space=1,delta=1,noexec
    38                           	psect	rparam,global,class=COMRAM,space=1,delta=1,noexec
    39                           	psect	temp,global,ovrld,common,class=COMRAM,space=1,delta=1,lowdata
    40                           	psect	config,global,abs,ovrld,class=CONFIG,space=4,delta=1,noexec
    41   000000                     
    42                           ; Generated 17/10/2023 GMT
    43                           ; 
    44                           ; Copyright © 2023, Microchip Technology Inc. and its subsidiaries ("Microchip")
    45                           ; All rights reserved.
    46                           ; 
    47                           ; This software is developed by Microchip Technology Inc. and its subsidiaries ("Microch
      +                          ip").
    48                           ; 
    49                           ; Redistribution and use in source and binary forms, with or without modification, are
    50                           ; permitted provided that the following conditions are met:
    51                           ; 
    52                           ;     1. Redistributions of source code must retain the above copyright notice, this lis
      +                          t of
    53                           ;        conditions and the following disclaimer.
    54                           ; 
    55                           ;     2. Redistributions in binary form must reproduce the above copyright notice, this 
      +                          list
    56                           ;        of conditions and the following disclaimer in the documentation and/or other
    57                           ;        materials provided with the distribution. Publication is not required when
    58                           ;        this file is used in an embedded application.
    59                           ; 
    60                           ;     3. Microchip's name may not be used to endorse or promote products derived from th
      +                          is
    61                           ;        software without specific prior written permission.
    62                           ; 
    63                           ; THIS SOFTWARE IS PROVIDED BY MICROCHIP "AS IS" AND ANY EXPRESS OR IMPLIED WARRANTIES,
    64                           ; INCLUDING, BUT NOT LIMITED TO, THE IMPLIED WARRANTIES OF MERCHANTABILITY AND FITNESS F
      +                          OR
    65                           ; PURPOSE ARE DISCLAIMED.  IN NO EVENT SHALL MICROCHIP BE LIABLE FOR ANY DIRECT, INDIREC
      +                          T,
    66                           ; INCIDENTAL, SPECIAL, EXEMPLARY, OR CONSEQUENTIAL DAMAGES (INCLUDING BUT NOT LIMITED TO
    67                           ; PROCUREMENT OF SUBSTITUTE GOODS OR SERVICES; LOSS OF USE, DATA OR PROFITS; OR BUSINESS
    68                           ; INTERRUPTION) HOWSOEVER CAUSED AND ON ANY THEORY OF LIABILITY, WHETHER IN CONTRACT, ST
      +                          RICT
    69                           ; LIABILITY, OR TORT (INCLUDING NEGLIGENCE OR OTHERWISE) ARISING IN ANY WAY OUT OF THE U
      +                          SE OF
    70                           ; THIS SOFTWARE, EVEN IF ADVISED OF THE POSSIBILITY OF SUCH DAMAGE.
    71                           ; 
    72                           ; 
    73                           ; Code-generator required, PIC18F4620 Definitions
    74                           ; 
    75                           ; SFR Addresses
    76   000000                     
    77                           	psect	idataCOMRAM
    78   001636                     __pidataCOMRAM:
    79                           	callstack 0
    80                           
    81                           ;initializer for _port_registers
    82   001636  80                 	db	128
    83   001637  0F                 	db	15
    84   001638  81                 	db	129
    85   001639  0F                 	db	15
    86   00163A  82                 	db	130
    87   00163B  0F                 	db	15
    88   00163C  83                 	db	131
    89   00163D  0F                 	db	15
    90   00163E  84                 	db	132
    91   00163F  0F                 	db	15
    92                           
    93                           ;initializer for _lat_registers
    94   001640  89                 	db	137
    95   001641  0F                 	db	15
    96   001642  8A                 	db	138
    97   001643  0F                 	db	15
    98   001644  8B                 	db	139
    99   001645  0F                 	db	15
   100   001646  8C                 	db	140
   101   001647  0F                 	db	15
   102   001648  8D                 	db	141
   103   001649  0F                 	db	15
   104                           
   105                           ;initializer for _tris_registers
   106   00164A  92                 	db	146
   107   00164B  0F                 	db	15
   108   00164C  93                 	db	147
   109   00164D  0F                 	db	15
   110   00164E  94                 	db	148
   111   00164F  0F                 	db	15
   112   001650  95                 	db	149
   113   001651  0F                 	db	15
   114   001652  96                 	db	150
   115   001653  0F                 	db	15
   116                           
   117                           ;initializer for _RB7_obj
   118   001654  DA                 	db	low _ISR_3
   119   001655  17                 	db	high _ISR_3
   120   001656  79                 	db	121
   121   001657  01                 	db	1
   122                           
   123                           ;initializer for _RB6_obj
   124   001658  B6                 	db	low _ISR_2
   125   001659  17                 	db	high _ISR_2
   126   00165A  71                 	db	113
   127   00165B  00                 	db	0
   128                           
   129                           ;initializer for _RB5_obj
   130   00165C  C2                 	db	low _ISR_1
   131   00165D  17                 	db	high _ISR_1
   132   00165E  69                 	db	105
   133   00165F  00                 	db	0
   134                           
   135                           ;initializer for _RB4_obj
   136   001660  CE                 	db	low _ISR_0
   137   001661  17                 	db	high _ISR_0
   138   001662  61                 	db	97
   139   001663  01                 	db	1
   140                           
   141                           ;initializer for _led4
   142   001664  1A                 	db	26
   143                           
   144                           ;initializer for _led3
   145   001665  12                 	db	18
   146                           
   147                           ;initializer for _led2
   148   001666  0A                 	db	10
   149                           
   150                           ;initializer for _led1
   151   001667  02                 	db	2
   152                           
   153                           	psect	smallconst
   154   001000                     __psmallconst:
   155                           	callstack 0
   156   001000  00                 	db	0
   157   001001                     _keypad_sampels:
   158                           	callstack 0
   159   001001  37                 	db	55
   160   001002  38                 	db	56
   161   001003  39                 	db	57
   162   001004  2F                 	db	47
   163   001005  34                 	db	52
   164   001006  35                 	db	53
   165   001007  36                 	db	54
   166   001008  2A                 	db	42
   167   001009  31                 	db	49
   168   00100A  32                 	db	50
   169   00100B  33                 	db	51
   170   00100C  2D                 	db	45
   171   00100D  23                 	db	35
   172   00100E  30                 	db	48
   173   00100F  3D                 	db	61
   174   001010  2B                 	db	43
   175   001011                     __end_of_keypad_sampels:
   176                           	callstack 0
   177   000000                     _INTCON2bits	set	4081
   178   001011                     STR_1:
   179   001011  25                 	db	37
   180   001012  69                 	db	105	;'i'
   181   001013  00                 	db	0
   182   001014  00                 	db	0	; dummy byte at the end
   183   000000                     
   184                           	psect	nvCOMRAM
   185   000068                     __pnvCOMRAM:
   186                           	callstack 0
   187   000068                     _ret:
   188                           	callstack 0
   189   000068                     	ds	1
   190   000000                     _PORTBbits	set	3969
   191   000000                     _PORTE	set	3972
   192   000000                     _PORTD	set	3971
   193   000000                     _PORTC	set	3970
   194   000000                     _PORTB	set	3969
   195   000000                     _PORTA	set	3968
   196   000000                     _LATA	set	3977
   197   000000                     _TRISA	set	3986
   198   000000                     _INTCON3bits	set	4080
   199   000000                     _INTCONbits	set	4082
   200   000000                     _TRISE	set	3990
   201   000000                     _TRISD	set	3989
   202   000000                     _TRISC	set	3988
   203   000000                     _TRISB	set	3987
   204   000000                     _LATE	set	3981
   205   000000                     _LATD	set	3980
   206   000000                     _LATC	set	3979
   207   000000                     _LATB	set	3978
   208                           
   209                           ; #config settings
   210                           
   211                           	psect	cinit
   212   001600                     __pcinit:
   213                           	callstack 0
   214   001600                     start_initialization:
   215                           	callstack 0
   216   001600                     __initialization:
   217                           	callstack 0
   218                           
   219                           ; Initialize objects allocated to COMRAM (50 bytes)
   220                           ; load TBLPTR registers with __pidataCOMRAM
   221   001600  0E36               	movlw	low __pidataCOMRAM
   222   001602  6EF6               	movwf	tblptrl,c
   223   001604  0E16               	movlw	high __pidataCOMRAM
   224   001606  6EF7               	movwf	tblptrh,c
   225   001608  0E00               	movlw	low (__pidataCOMRAM shr (0+16))
   226   00160A  6EF8               	movwf	tblptru,c
   227   00160C  EE00  F001         	lfsr	0,__pdataCOMRAM
   228   001610  EE10 F032          	lfsr	1,50
   229   001614                     copy_data0:
   230   001614  0009               	tblrd		*+
   231   001616  CFF5 FFEE          	movff	tablat,postinc0
   232   00161A  50E5               	movf	postdec1,w,c
   233   00161C  50E1               	movf	fsr1l,w,c
   234   00161E  E1FA               	bnz	copy_data0
   235                           
   236                           ; Clear objects allocated to COMRAM (30 bytes)
   237   001620  EE00  F033         	lfsr	0,__pbssCOMRAM
   238   001624  0E1E               	movlw	30
   239   001626                     clear_0:
   240   001626  6AEE               	clrf	postinc0,c
   241   001628  06E8               	decf	wreg,f,c
   242   00162A  E1FD               	bnz	clear_0
   243   00162C                     end_of_initialization:
   244                           	callstack 0
   245   00162C                     __end_of__initialization:
   246                           	callstack 0
   247   00162C  9069               	bcf	int$flags,0,c	;clear compiler interrupt flag (level 1)
   248   00162E  9269               	bcf	int$flags,1,c	;clear compiler interrupt flag (level 2)
   249   001630  0100               	movlb	0
   250   001632  EFD5  F00B         	goto	_main	;jump to C main() function
   251                           
   252                           	psect	bssCOMRAM
   253   000033                     __pbssCOMRAM:
   254                           	callstack 0
   255   000033                     _RB7_InterruptHandler:
   256                           	callstack 0
   257   000033                     	ds	2
   258   000035                     _RB6_InterruptHandler:
   259                           	callstack 0
   260   000035                     	ds	2
   261   000037                     _RB5_InterruptHandler:
   262                           	callstack 0
   263   000037                     	ds	2
   264   000039                     _RB4_InterruptHandler:
   265                           	callstack 0
   266   000039                     	ds	2
   267   00003B                     _INT2_InterruptHandler:
   268                           	callstack 0
   269   00003B                     	ds	2
   270   00003D                     _INT1_InterruptHandler:
   271                           	callstack 0
   272   00003D                     	ds	2
   273   00003F                     _INT0_InterruptHandler:
   274                           	callstack 0
   275   00003F                     	ds	2
   276   000041                     ecu_relay_toggle@F3076:
   277                           	callstack 0
   278   000041                     	ds	1
   279   000042                     ecu_relay_turn_off@F3071:
   280                           	callstack 0
   281   000042                     	ds	1
   282   000043                     ecu_relay_turn_on@F3066:
   283                           	callstack 0
   284   000043                     	ds	1
   285   000044                     ecu_relay_initializ@F3061:
   286                           	callstack 0
   287   000044                     	ds	1
   288   000045                     ecu_led_toggle@F3076:
   289                           	callstack 0
   290   000045                     	ds	1
   291   000046                     ecu_led_turn_off@F3071:
   292                           	callstack 0
   293   000046                     	ds	1
   294   000047                     ecu_led_turn_on@F3066:
   295                           	callstack 0
   296   000047                     	ds	1
   297   000048                     ecu_led_initializ@F3061:
   298                           	callstack 0
   299   000048                     	ds	1
   300   000049                     ecu_dc_motor_stop@F3087:
   301                           	callstack 0
   302   000049                     	ds	1
   303   00004A                     ecu_dc_motor_stop@F3085:
   304                           	callstack 0
   305   00004A                     	ds	1
   306   00004B                     ecu_dc_motor_move_left@F3080:
   307                           	callstack 0
   308   00004B                     	ds	1
   309   00004C                     ecu_dc_motor_move_left@F3078:
   310                           	callstack 0
   311   00004C                     	ds	1
   312   00004D                     ecu_dc_motor_move_right@F3073:
   313                           	callstack 0
   314   00004D                     	ds	1
   315   00004E                     ecu_dc_motor_move_right@F3071:
   316                           	callstack 0
   317   00004E                     	ds	1
   318   00004F                     ecu_dc_motor_initializ@F3066:
   319                           	callstack 0
   320   00004F                     	ds	1
   321   000050                     ecu_dc_motor_initializ@F3064:
   322                           	callstack 0
   323   000050                     	ds	1
   324                           
   325                           	psect	dataCOMRAM
   326   000001                     __pdataCOMRAM:
   327                           	callstack 0
   328   000001                     _port_registers:
   329                           	callstack 0
   330   000001                     	ds	10
   331   00000B                     _lat_registers:
   332                           	callstack 0
   333   00000B                     	ds	10
   334   000015                     _tris_registers:
   335                           	callstack 0
   336   000015                     	ds	10
   337   00001F                     _RB7_obj:
   338                           	callstack 0
   339   00001F                     	ds	4
   340   000023                     _RB6_obj:
   341                           	callstack 0
   342   000023                     	ds	4
   343   000027                     _RB5_obj:
   344                           	callstack 0
   345   000027                     	ds	4
   346   00002B                     _RB4_obj:
   347                           	callstack 0
   348   00002B                     	ds	4
   349   00002F                     _led4:
   350                           	callstack 0
   351   00002F                     	ds	1
   352   000030                     _led3:
   353                           	callstack 0
   354   000030                     	ds	1
   355   000031                     _led2:
   356                           	callstack 0
   357   000031                     	ds	1
   358   000032                     _led1:
   359                           	callstack 0
   360   000032                     	ds	1
   361                           
   362                           	psect	cstackCOMRAM
   363   000051                     __pcstackCOMRAM:
   364                           	callstack 0
   365   000051                     gpio_pin_toggle_logic@_pin_config:
   366                           	callstack 0
   367                           
   368                           ; 1 bytes @ 0x0
   369   000051                     	ds	1
   370   000052                     ??_gpio_pin_toggle_logic:
   371                           
   372                           ; 1 bytes @ 0x1
   373   000052                     	ds	4
   374   000056                     gpio_pin_toggle_logic@ret:
   375                           	callstack 0
   376                           
   377                           ; 1 bytes @ 0x5
   378   000056                     	ds	1
   379   000057                     ??_Interrupt_Manager:
   380                           
   381                           ; 1 bytes @ 0x6
   382   000057                     	ds	6
   383   00005D                     gpio_pin_direction_init@_pin_config:
   384                           	callstack 0
   385   00005D                     gpio_pin_write_logic@_pin_config:
   386                           	callstack 0
   387   00005D                     Interrupt_RBx_Enable@_interrupt_RBx:
   388                           	callstack 0
   389   00005D                     Interrupt_RBx_Disable@_interrupt_RBx:
   390                           	callstack 0
   391   00005D                     Interrupt_RBx_Priority_init@_interrupt_RBx:
   392                           	callstack 0
   393   00005D                     Interrupt_RBx_Clear_Flag@_interrupt_RBx:
   394                           	callstack 0
   395                           
   396                           ; 1 bytes @ 0xC
   397   00005D                     	ds	1
   398   00005E                     ??_gpio_pin_direction_init:
   399   00005E                     gpio_pin_write_logic@logic:
   400                           	callstack 0
   401   00005E                     Interrupt_RBx_Enable@ret:
   402                           	callstack 0
   403   00005E                     Interrupt_RBx_Disable@ret:
   404                           	callstack 0
   405   00005E                     Interrupt_RBx_Priority_init@ret:
   406                           	callstack 0
   407   00005E                     Interrupt_RBx_Clear_Flag@ret:
   408                           	callstack 0
   409                           
   410                           ; 1 bytes @ 0xD
   411   00005E                     	ds	1
   412   00005F                     ??_gpio_pin_write_logic:
   413                           
   414                           ; 1 bytes @ 0xE
   415   00005F                     	ds	4
   416   000063                     gpio_pin_direction_init@ret:
   417                           	callstack 0
   418                           
   419                           ; 1 bytes @ 0x12
   420   000063                     	ds	1
   421   000064                     gpio_pin_write_logic@ret:
   422                           	callstack 0
   423   000064                     Interrupt_RBx_Pin_init@_interrupt_RBx:
   424                           	callstack 0
   425                           
   426                           ; 1 bytes @ 0x13
   427   000064                     	ds	1
   428   000065                     gpio_pin_Initialization@_pin_config:
   429                           	callstack 0
   430   000065                     Interrupt_RBx_Pin_init@ret:
   431                           	callstack 0
   432                           
   433                           ; 1 bytes @ 0x14
   434   000065                     	ds	1
   435   000066                     ??_gpio_pin_Initialization:
   436   000066                     Interrupt_RBx_init@_interrupt_RBx:
   437                           	callstack 0
   438                           
   439                           ; 1 bytes @ 0x15
   440   000066                     	ds	1
   441   000067                     gpio_pin_Initialization@ret:
   442                           	callstack 0
   443   000067                     Interrupt_RBx_init@ret:
   444                           	callstack 0
   445                           
   446                           ; 1 bytes @ 0x16
   447   000067                     	ds	1
   448   000068                     
   449                           ; 1 bytes @ 0x17
   450 ;;
   451 ;;Main: autosize = 0, tempsize = 0, incstack = 0, save=0
   452 ;;
   453 ;; *************** function _main *****************
   454 ;; Defined at:
   455 ;;		line 62 in file "application.c"
   456 ;; Parameters:    Size  Location     Type
   457 ;;		None
   458 ;; Auto vars:     Size  Location     Type
   459 ;;		None
   460 ;; Return value:  Size  Location     Type
   461 ;;                  2  794[None  ] int 
   462 ;; Registers used:
   463 ;;		wreg, fsr2l, fsr2h, status,2, status,0, prodl, prodh, cstack
   464 ;; Tracked objects:
   465 ;;		On entry : 0/0
   466 ;;		On exit  : 0/0
   467 ;;		Unchanged: 0/0
   468 ;; Data sizes:     COMRAM   BANK0   BANK1   BANK2   BANK3   BANK4   BANK5   BANK6   BANK7   BANK8   BANK9  BANK10  BANK1
      +1  BANK12  BANK13  BANK14  BANK15
   469 ;;      Params:         0       0       0       0       0       0       0       0       0       0       0       0       
      +0       0       0       0       0
   470 ;;      Locals:         0       0       0       0       0       0       0       0       0       0       0       0       
      +0       0       0       0       0
   471 ;;      Temps:          0       0       0       0       0       0       0       0       0       0       0       0       
      +0       0       0       0       0
   472 ;;      Totals:         0       0       0       0       0       0       0       0       0       0       0       0       
      +0       0       0       0       0
   473 ;;Total ram usage:        0 bytes
   474 ;; Hardware stack levels required when called: 8
   475 ;; This function calls:
   476 ;;		_application_initializ
   477 ;; This function is called by:
   478 ;;		Startup code after reset
   479 ;; This function uses a non-reentrant model
   480 ;;
   481                           
   482                           	psect	text0
   483   0017AA                     __ptext0:
   484                           	callstack 0
   485   0017AA                     _main:
   486                           	callstack 23
   487   0017AA                     
   488                           ;application.c: 64:     application_initializ();
   489   0017AA  ECB1  F00A         	call	_application_initializ	;wreg free
   490   0017AE                     l795:
   491   0017AE  EFD7  F00B         	goto	l795
   492   0017B2  EF07  F000         	goto	start
   493   0017B6                     __end_of_main:
   494                           	callstack 0
   495                           
   496 ;; *************** function _application_initializ *****************
   497 ;; Defined at:
   498 ;;		line 75 in file "application.c"
   499 ;; Parameters:    Size  Location     Type
   500 ;;		None
   501 ;; Auto vars:     Size  Location     Type
   502 ;;		None
   503 ;; Return value:  Size  Location     Type
   504 ;;                  1    wreg      void 
   505 ;; Registers used:
   506 ;;		wreg, fsr2l, fsr2h, status,2, status,0, prodl, prodh, cstack
   507 ;; Tracked objects:
   508 ;;		On entry : 0/0
   509 ;;		On exit  : 0/0
   510 ;;		Unchanged: 0/0
   511 ;; Data sizes:     COMRAM   BANK0   BANK1   BANK2   BANK3   BANK4   BANK5   BANK6   BANK7   BANK8   BANK9  BANK10  BANK1
      +1  BANK12  BANK13  BANK14  BANK15
   512 ;;      Params:         0       0       0       0       0       0       0       0       0       0       0       0       
      +0       0       0       0       0
   513 ;;      Locals:         0       0       0       0       0       0       0       0       0       0       0       0       
      +0       0       0       0       0
   514 ;;      Temps:          0       0       0       0       0       0       0       0       0       0       0       0       
      +0       0       0       0       0
   515 ;;      Totals:         0       0       0       0       0       0       0       0       0       0       0       0       
      +0       0       0       0       0
   516 ;;Total ram usage:        0 bytes
   517 ;; Hardware stack levels used: 1
   518 ;; Hardware stack levels required when called: 7
   519 ;; This function calls:
   520 ;;		_Interrupt_RBx_init
   521 ;;		_gpio_pin_Initialization
   522 ;; This function is called by:
   523 ;;		_main
   524 ;; This function uses a non-reentrant model
   525 ;;
   526                           
   527                           	psect	text1
   528   001562                     __ptext1:
   529                           	callstack 0
   530   001562                     _application_initializ:
   531                           	callstack 23
   532   001562                     
   533                           ;application.c: 77:     ret = Interrupt_RBx_init(&RB4_obj);
   534   001562  0E2B               	movlw	low _RB4_obj
   535   001564  6E66               	movwf	Interrupt_RBx_init@_interrupt_RBx^0,c
   536   001566  ECDA  F00A         	call	_Interrupt_RBx_init	;wreg free
   537   00156A  6E68               	movwf	_ret^0,c
   538                           
   539                           ;application.c: 78:     ret = Interrupt_RBx_init(&RB5_obj);
   540   00156C  0E27               	movlw	low _RB5_obj
   541   00156E  6E66               	movwf	Interrupt_RBx_init@_interrupt_RBx^0,c
   542   001570  ECDA  F00A         	call	_Interrupt_RBx_init	;wreg free
   543   001574  6E68               	movwf	_ret^0,c
   544                           
   545                           ;application.c: 79:     ret = Interrupt_RBx_init(&RB6_obj);
   546   001576  0E23               	movlw	low _RB6_obj
   547   001578  6E66               	movwf	Interrupt_RBx_init@_interrupt_RBx^0,c
   548   00157A  ECDA  F00A         	call	_Interrupt_RBx_init	;wreg free
   549   00157E  6E68               	movwf	_ret^0,c
   550                           
   551                           ;application.c: 80:     ret = Interrupt_RBx_init(&RB7_obj);
   552   001580  0E1F               	movlw	low _RB7_obj
   553   001582  6E66               	movwf	Interrupt_RBx_init@_interrupt_RBx^0,c
   554   001584  ECDA  F00A         	call	_Interrupt_RBx_init	;wreg free
   555   001588  6E68               	movwf	_ret^0,c
   556                           
   557                           ;application.c: 82:     ret = gpio_pin_Initialization(&led1);
   558   00158A  0E32               	movlw	low _led1
   559   00158C  6E65               	movwf	gpio_pin_Initialization@_pin_config^0,c
   560   00158E  EC82  F00A         	call	_gpio_pin_Initialization	;wreg free
   561   001592  6E68               	movwf	_ret^0,c
   562                           
   563                           ;application.c: 83:     ret = gpio_pin_Initialization(&led2);
   564   001594  0E31               	movlw	low _led2
   565   001596  6E65               	movwf	gpio_pin_Initialization@_pin_config^0,c
   566   001598  EC82  F00A         	call	_gpio_pin_Initialization	;wreg free
   567   00159C  6E68               	movwf	_ret^0,c
   568                           
   569                           ;application.c: 84:     ret = gpio_pin_Initialization(&led3);
   570   00159E  0E30               	movlw	low _led3
   571   0015A0  6E65               	movwf	gpio_pin_Initialization@_pin_config^0,c
   572   0015A2  EC82  F00A         	call	_gpio_pin_Initialization	;wreg free
   573   0015A6  6E68               	movwf	_ret^0,c
   574                           
   575                           ;application.c: 85:     ret = gpio_pin_Initialization(&led4);
   576   0015A8  0E2F               	movlw	low _led4
   577   0015AA  6E65               	movwf	gpio_pin_Initialization@_pin_config^0,c
   578   0015AC  EC82  F00A         	call	_gpio_pin_Initialization	;wreg free
   579   0015B0  6E68               	movwf	_ret^0,c
   580   0015B2  0012               	return		;funcret
   581   0015B4                     __end_of_application_initializ:
   582                           	callstack 0
   583                           
   584 ;; *************** function _gpio_pin_Initialization *****************
   585 ;; Defined at:
   586 ;;		line 148 in file "MCAL_layer/GPIO/gpio.c"
   587 ;; Parameters:    Size  Location     Type
   588 ;;  _pin_config     1   20[COMRAM] PTR const struct .
   589 ;;		 -> led4(1), led3(1), led2(1), led1(1), 
   590 ;;		 -> ecu_relay_initializ@relay_init(1), ecu_led_initializ@_pin_config(1), ecu_dc_motor_initializ@dc_motor_pin_2(1), e
      +cu_dc_motor_initializ@dc_motor_pin_1(1), 
   591 ;; Auto vars:     Size  Location     Type
   592 ;;  ret             1   22[COMRAM] unsigned char 
   593 ;; Return value:  Size  Location     Type
   594 ;;                  1    wreg      unsigned char 
   595 ;; Registers used:
   596 ;;		wreg, fsr2l, fsr2h, status,2, status,0, prodl, prodh, cstack
   597 ;; Tracked objects:
   598 ;;		On entry : 0/0
   599 ;;		On exit  : 0/0
   600 ;;		Unchanged: 0/0
   601 ;; Data sizes:     COMRAM   BANK0   BANK1   BANK2   BANK3   BANK4   BANK5   BANK6   BANK7   BANK8   BANK9  BANK10  BANK1
      +1  BANK12  BANK13  BANK14  BANK15
   602 ;;      Params:         1       0       0       0       0       0       0       0       0       0       0       0       
      +0       0       0       0       0
   603 ;;      Locals:         1       0       0       0       0       0       0       0       0       0       0       0       
      +0       0       0       0       0
   604 ;;      Temps:          1       0       0       0       0       0       0       0       0       0       0       0       
      +0       0       0       0       0
   605 ;;      Totals:         3       0       0       0       0       0       0       0       0       0       0       0       
      +0       0       0       0       0
   606 ;;Total ram usage:        3 bytes
   607 ;; Hardware stack levels used: 1
   608 ;; Hardware stack levels required when called: 5
   609 ;; This function calls:
   610 ;;		_gpio_pin_direction_init
   611 ;;		_gpio_pin_write_logic
   612 ;; This function is called by:
   613 ;;		_application_initializ
   614 ;;		_seg_initialization
   615 ;;		_ecu_dc_motor_initializ
   616 ;;		_keypad_initialize
   617 ;;		_lcd_4bit_init
   618 ;;		_lcd_8bit_init
   619 ;;		_ecu_led_initializ
   620 ;;		_ecu_relay_initializ
   621 ;; This function uses a non-reentrant model
   622 ;;
   623                           
   624                           	psect	text2
   625   001504                     __ptext2:
   626                           	callstack 0
   627   001504                     _gpio_pin_Initialization:
   628                           	callstack 24
   629   001504                     
   630                           ;MCAL_layer/GPIO/gpio.c: 151:     if(((void*)0) == _pin_config || _pin_config->pin > 8 -
      +                          1)
   631   001504  5065               	movf	gpio_pin_Initialization@_pin_config^0,w,c
   632   001506  B4D8               	btfsc	status,2,c
   633   001508  EF88  F00A         	goto	u1881
   634   00150C  EF8A  F00A         	goto	u1880
   635   001510                     u1881:
   636   001510  EF9A  F00A         	goto	l3016
   637   001514                     u1880:
   638   001514  5065               	movf	gpio_pin_Initialization@_pin_config^0,w,c
   639   001516  6ED9               	movwf	fsr2l,c
   640   001518  6ADA               	clrf	fsr2h,c
   641   00151A  30DF               	rrcf	223,w,c
   642   00151C  32E8               	rrcf	wreg,f,c
   643   00151E  32E8               	rrcf	wreg,f,c
   644   001520  0B07               	andlw	7
   645   001522  6E66               	movwf	??_gpio_pin_Initialization^0,c
   646   001524  0E07               	movlw	7
   647   001526  6466               	cpfsgt	??_gpio_pin_Initialization^0,c
   648   001528  EF98  F00A         	goto	u1891
   649   00152C  EF9A  F00A         	goto	u1890
   650   001530                     u1891:
   651   001530  EF9E  F00A         	goto	l3018
   652   001534                     u1890:
   653   001534                     l3016:
   654                           
   655                           ;MCAL_layer/GPIO/gpio.c: 152:     {;MCAL_layer/GPIO/gpio.c: 153:         ret = (STD_Retu
      +                          rnType)0x00;
   656   001534  0E00               	movlw	0
   657   001536  6E67               	movwf	gpio_pin_Initialization@ret^0,c
   658                           
   659                           ;MCAL_layer/GPIO/gpio.c: 154:     }
   660   001538  EFAF  F00A         	goto	l3020
   661   00153C                     l3018:
   662                           
   663                           ;MCAL_layer/GPIO/gpio.c: 156:     {;MCAL_layer/GPIO/gpio.c: 157:         ret = gpio_pin_
      +                          direction_init(_pin_config);
   664   00153C  C065  F05D         	movff	gpio_pin_Initialization@_pin_config,gpio_pin_direction_init@_pin_config
   665   001540  ECD6  F008         	call	_gpio_pin_direction_init	;wreg free
   666   001544  6E67               	movwf	gpio_pin_Initialization@ret^0,c
   667                           
   668                           ;MCAL_layer/GPIO/gpio.c: 158:         ret = gpio_pin_write_logic(_pin_config , _pin_conf
      +                          ig->logic);
   669   001546  C065  F05D         	movff	gpio_pin_Initialization@_pin_config,gpio_pin_write_logic@_pin_config
   670   00154A  5065               	movf	gpio_pin_Initialization@_pin_config^0,w,c
   671   00154C  6ED9               	movwf	fsr2l,c
   672   00154E  6ADA               	clrf	fsr2h,c
   673   001550  0E00               	movlw	0
   674   001552  BEDF               	btfsc	indf2,7,c
   675   001554  0E01               	movlw	1
   676   001556  6E5E               	movwf	gpio_pin_write_logic@logic^0,c
   677   001558  EC5F  F009         	call	_gpio_pin_write_logic	;wreg free
   678   00155C  6E67               	movwf	gpio_pin_Initialization@ret^0,c
   679   00155E                     l3020:
   680                           
   681                           ;MCAL_layer/GPIO/gpio.c: 161:     return ret;
   682   00155E  5067               	movf	gpio_pin_Initialization@ret^0,w,c
   683   001560  0012               	return		;funcret
   684   001562                     __end_of_gpio_pin_Initialization:
   685                           	callstack 0
   686                           
   687 ;; *************** function _gpio_pin_write_logic *****************
   688 ;; Defined at:
   689 ;;		line 76 in file "MCAL_layer/GPIO/gpio.c"
   690 ;; Parameters:    Size  Location     Type
   691 ;;  _pin_config     1   12[COMRAM] PTR const struct .
   692 ;;		 -> led4(1), led3(1), led2(1), led1(1), 
   693 ;;		 -> ecu_relay_turn_off@relay_init(1), ecu_relay_turn_on@relay_init(1), ecu_relay_initializ@relay_init(1), ecu_led_tu
      +rn_off@_pin_config(1), 
   694 ;;		 -> ecu_led_turn_on@_pin_config(1), ecu_led_initializ@_pin_config(1), ecu_dc_motor_stop@dc_motor_pin_2(1), ecu_dc_mo
      +tor_stop@dc_motor_pin_1(1), 
   695 ;;		 -> ecu_dc_motor_move_left@dc_motor_pin_2(1), ecu_dc_motor_move_left@dc_motor_pin_1(1), ecu_dc_motor_move_right@dc_m
      +otor_pin_2(1), ecu_dc_motor_move_right@dc_motor_pin_1(1), 
   696 ;;		 -> ecu_dc_motor_initializ@dc_motor_pin_2(1), ecu_dc_motor_initializ@dc_motor_pin_1(1), 
   697 ;;  logic           1   13[COMRAM] enum E2981
   698 ;; Auto vars:     Size  Location     Type
   699 ;;  ret             1   19[COMRAM] unsigned char 
   700 ;; Return value:  Size  Location     Type
   701 ;;                  1    wreg      unsigned char 
   702 ;; Registers used:
   703 ;;		wreg, fsr2l, fsr2h, status,2, status,0, prodl, prodh
   704 ;; Tracked objects:
   705 ;;		On entry : 0/0
   706 ;;		On exit  : 0/0
   707 ;;		Unchanged: 0/0
   708 ;; Data sizes:     COMRAM   BANK0   BANK1   BANK2   BANK3   BANK4   BANK5   BANK6   BANK7   BANK8   BANK9  BANK10  BANK1
      +1  BANK12  BANK13  BANK14  BANK15
   709 ;;      Params:         2       0       0       0       0       0       0       0       0       0       0       0       
      +0       0       0       0       0
   710 ;;      Locals:         1       0       0       0       0       0       0       0       0       0       0       0       
      +0       0       0       0       0
   711 ;;      Temps:          5       0       0       0       0       0       0       0       0       0       0       0       
      +0       0       0       0       0
   712 ;;      Totals:         8       0       0       0       0       0       0       0       0       0       0       0       
      +0       0       0       0       0
   713 ;;Total ram usage:        8 bytes
   714 ;; Hardware stack levels used: 1
   715 ;; Hardware stack levels required when called: 4
   716 ;; This function calls:
   717 ;;		Nothing
   718 ;; This function is called by:
   719 ;;		_gpio_pin_Initialization
   720 ;;		_seg_write_number
   721 ;;		_ecu_dc_motor_move_right
   722 ;;		_ecu_dc_motor_move_left
   723 ;;		_ecu_dc_motor_stop
   724 ;;		_keypad_get_value
   725 ;;		_lcd_4bit_send_command
   726 ;;		_lcd_4bit_send_data
   727 ;;		_lcd_send_4bits
   728 ;;		_lcd_send_4bit_enable_signal
   729 ;;		_lcd_8bit_send_command
   730 ;;		_lcd_8bit_send_data
   731 ;;		_lcd_send_8bit_enable_signal
   732 ;;		_ecu_led_turn_on
   733 ;;		_ecu_led_turn_off
   734 ;;		_ecu_relay_turn_on
   735 ;;		_ecu_relay_turn_off
   736 ;; This function uses a non-reentrant model
   737 ;;
   738                           
   739                           	psect	text3
   740   0012BE                     __ptext3:
   741                           	callstack 0
   742   0012BE                     _gpio_pin_write_logic:
   743                           	callstack 24
   744   0012BE                     
   745                           ;MCAL_layer/GPIO/gpio.c: 76: STD_ReturnType gpio_pin_write_logic(const pin_config *_pin_
      +                          config, logic_t logic);MCAL_layer/GPIO/gpio.c: 77: {;MCAL_layer/GPIO/gpio.c: 78:     STD
      +                          _ReturnType ret = (STD_ReturnType)0x01;
   746   0012BE  0E01               	movlw	1
   747   0012C0  6E64               	movwf	gpio_pin_write_logic@ret^0,c
   748                           
   749                           ;MCAL_layer/GPIO/gpio.c: 79:     if(((void*)0) == _pin_config || _pin_config->pin > 8 -1
      +                          )
   750   0012C2  505D               	movf	gpio_pin_write_logic@_pin_config^0,w,c
   751   0012C4  B4D8               	btfsc	status,2,c
   752   0012C6  EF67  F009         	goto	u1761
   753   0012CA  EF69  F009         	goto	u1760
   754   0012CE                     u1761:
   755   0012CE  EF79  F009         	goto	l2926
   756   0012D2                     u1760:
   757   0012D2  505D               	movf	gpio_pin_write_logic@_pin_config^0,w,c
   758   0012D4  6ED9               	movwf	fsr2l,c
   759   0012D6  6ADA               	clrf	fsr2h,c
   760   0012D8  30DF               	rrcf	223,w,c
   761   0012DA  32E8               	rrcf	wreg,f,c
   762   0012DC  32E8               	rrcf	wreg,f,c
   763   0012DE  0B07               	andlw	7
   764   0012E0  6E5F               	movwf	??_gpio_pin_write_logic^0,c
   765   0012E2  0E07               	movlw	7
   766   0012E4  645F               	cpfsgt	??_gpio_pin_write_logic^0,c
   767   0012E6  EF77  F009         	goto	u1771
   768   0012EA  EF79  F009         	goto	u1770
   769   0012EE                     u1771:
   770   0012EE  EFD0  F009         	goto	l2934
   771   0012F2                     u1770:
   772   0012F2                     l2926:
   773                           
   774                           ;MCAL_layer/GPIO/gpio.c: 80:     {;MCAL_layer/GPIO/gpio.c: 81:         ret = (STD_Return
      +                          Type)0x00;
   775   0012F2  0E00               	movlw	0
   776   0012F4  6E64               	movwf	gpio_pin_write_logic@ret^0,c
   777                           
   778                           ;MCAL_layer/GPIO/gpio.c: 82:     }
   779   0012F6  EFE5  F009         	goto	l2936
   780   0012FA                     l2928:
   781                           
   782                           ;MCAL_layer/GPIO/gpio.c: 88:                 (*lat_registers[_pin_config->port] &= ~((ui
      +                          nt8)1 << _pin_config->pin));
   783   0012FA  505D               	movf	gpio_pin_write_logic@_pin_config^0,w,c
   784   0012FC  6ED9               	movwf	fsr2l,c
   785   0012FE  6ADA               	clrf	fsr2h,c
   786   001300  30DF               	rrcf	223,w,c
   787   001302  32E8               	rrcf	wreg,f,c
   788   001304  32E8               	rrcf	wreg,f,c
   789   001306  0B07               	andlw	7
   790   001308  6E5F               	movwf	??_gpio_pin_write_logic^0,c
   791   00130A  0E01               	movlw	1
   792   00130C  6E60               	movwf	(??_gpio_pin_write_logic+1)^0,c
   793   00130E  2A5F               	incf	??_gpio_pin_write_logic^0,f,c
   794   001310  EF8C  F009         	goto	u1784
   795   001314                     u1785:
   796   001314  90D8               	bcf	status,0,c
   797   001316  3660               	rlcf	(??_gpio_pin_write_logic+1)^0,f,c
   798   001318                     u1784:
   799   001318  2E5F               	decfsz	??_gpio_pin_write_logic^0,f,c
   800   00131A  EF8A  F009         	goto	u1785
   801   00131E  5060               	movf	(??_gpio_pin_write_logic+1)^0,w,c
   802   001320  0AFF               	xorlw	255
   803   001322  6E61               	movwf	(??_gpio_pin_write_logic+2)^0,c
   804   001324  505D               	movf	gpio_pin_write_logic@_pin_config^0,w,c
   805   001326  6ED9               	movwf	fsr2l,c
   806   001328  6ADA               	clrf	fsr2h,c
   807   00132A  50DF               	movf	223,w,c
   808   00132C  0B07               	andlw	7
   809   00132E  0D02               	mullw	2
   810   001330  50F3               	movf	243,w,c
   811   001332  0F0B               	addlw	low _lat_registers
   812   001334  6ED9               	movwf	fsr2l,c
   813   001336  6ADA               	clrf	fsr2h,c
   814   001338  CFDE F062          	movff	postinc2,??_gpio_pin_write_logic+3
   815   00133C  CFDD F063          	movff	postdec2,??_gpio_pin_write_logic+4
   816   001340  C062  FFD9         	movff	??_gpio_pin_write_logic+3,fsr2l
   817   001344  C063  FFDA         	movff	??_gpio_pin_write_logic+4,fsr2h
   818   001348  5061               	movf	(??_gpio_pin_write_logic+2)^0,w,c
   819   00134A  16DF               	andwf	indf2,f,c
   820                           
   821                           ;MCAL_layer/GPIO/gpio.c: 89:                 break;
   822   00134C  EFE5  F009         	goto	l2936
   823   001350                     l2930:
   824                           
   825                           ;MCAL_layer/GPIO/gpio.c: 91:                 (*lat_registers[_pin_config->port] |= ((uin
      +                          t8)1 << _pin_config->pin));
   826   001350  505D               	movf	gpio_pin_write_logic@_pin_config^0,w,c
   827   001352  6ED9               	movwf	fsr2l,c
   828   001354  6ADA               	clrf	fsr2h,c
   829   001356  30DF               	rrcf	223,w,c
   830   001358  32E8               	rrcf	wreg,f,c
   831   00135A  32E8               	rrcf	wreg,f,c
   832   00135C  0B07               	andlw	7
   833   00135E  6E5F               	movwf	??_gpio_pin_write_logic^0,c
   834   001360  0E01               	movlw	1
   835   001362  6E60               	movwf	(??_gpio_pin_write_logic+1)^0,c
   836   001364  2A5F               	incf	??_gpio_pin_write_logic^0,f,c
   837   001366  EFB7  F009         	goto	u1794
   838   00136A                     u1795:
   839   00136A  90D8               	bcf	status,0,c
   840   00136C  3660               	rlcf	(??_gpio_pin_write_logic+1)^0,f,c
   841   00136E                     u1794:
   842   00136E  2E5F               	decfsz	??_gpio_pin_write_logic^0,f,c
   843   001370  EFB5  F009         	goto	u1795
   844   001374  505D               	movf	gpio_pin_write_logic@_pin_config^0,w,c
   845   001376  6ED9               	movwf	fsr2l,c
   846   001378  6ADA               	clrf	fsr2h,c
   847   00137A  50DF               	movf	223,w,c
   848   00137C  0B07               	andlw	7
   849   00137E  0D02               	mullw	2
   850   001380  50F3               	movf	243,w,c
   851   001382  0F0B               	addlw	low _lat_registers
   852   001384  6ED9               	movwf	fsr2l,c
   853   001386  6ADA               	clrf	fsr2h,c
   854   001388  CFDE F061          	movff	postinc2,??_gpio_pin_write_logic+2
   855   00138C  CFDD F062          	movff	postdec2,??_gpio_pin_write_logic+3
   856   001390  C061  FFD9         	movff	??_gpio_pin_write_logic+2,fsr2l
   857   001394  C062  FFDA         	movff	??_gpio_pin_write_logic+3,fsr2h
   858   001398  5060               	movf	(??_gpio_pin_write_logic+1)^0,w,c
   859   00139A  12DF               	iorwf	indf2,f,c
   860                           
   861                           ;MCAL_layer/GPIO/gpio.c: 92:                 break;
   862   00139C  EFE5  F009         	goto	l2936
   863   0013A0                     l2934:
   864   0013A0  505E               	movf	gpio_pin_write_logic@logic^0,w,c
   865   0013A2  6E5F               	movwf	??_gpio_pin_write_logic^0,c
   866   0013A4  6A60               	clrf	(??_gpio_pin_write_logic+1)^0,c
   867                           
   868                           ; Switch on 2 bytes has been partitioned into a top level switch of size 1, and 1 sub-sw
      +                          itches
   869                           ; Switch size 1, requested type "simple"
   870                           ; Number of cases is 1, Range of values is 0 to 0
   871                           ; switch strategies available:
   872                           ; Name         Instructions Cycles
   873                           ; simple_byte            4     3 (average)
   874                           ;	Chosen strategy is simple_byte
   875   0013A6  5060               	movf	(??_gpio_pin_write_logic+1)^0,w,c
   876   0013A8  0A00               	xorlw	0	; case 0
   877   0013AA  B4D8               	btfsc	status,2,c
   878   0013AC  EFDA  F009         	goto	l3948
   879   0013B0  EF79  F009         	goto	l2926
   880   0013B4                     l3948:
   881                           
   882                           ; Switch size 1, requested type "simple"
   883                           ; Number of cases is 2, Range of values is 0 to 1
   884                           ; switch strategies available:
   885                           ; Name         Instructions Cycles
   886                           ; simple_byte            7     4 (average)
   887                           ;	Chosen strategy is simple_byte
   888   0013B4  505F               	movf	??_gpio_pin_write_logic^0,w,c
   889   0013B6  0A00               	xorlw	0	; case 0
   890   0013B8  B4D8               	btfsc	status,2,c
   891   0013BA  EF7D  F009         	goto	l2928
   892   0013BE  0A01               	xorlw	1	; case 1
   893   0013C0  B4D8               	btfsc	status,2,c
   894   0013C2  EFA8  F009         	goto	l2930
   895   0013C6  EF79  F009         	goto	l2926
   896   0013CA                     l2936:
   897                           
   898                           ;MCAL_layer/GPIO/gpio.c: 98:     return ret;
   899   0013CA  5064               	movf	gpio_pin_write_logic@ret^0,w,c
   900   0013CC  0012               	return		;funcret
   901   0013CE                     __end_of_gpio_pin_write_logic:
   902                           	callstack 0
   903                           
   904 ;; *************** function _Interrupt_RBx_init *****************
   905 ;; Defined at:
   906 ;;		line 112 in file "MCAL_layer/Interrupt/external_interrupt.c"
   907 ;; Parameters:    Size  Location     Type
   908 ;;  _interrupt_R    1   21[COMRAM] PTR const struct .
   909 ;;		 -> RB7_obj(4), RB6_obj(4), RB5_obj(4), RB4_obj(4), 
   910 ;; Auto vars:     Size  Location     Type
   911 ;;  ret             1   22[COMRAM] unsigned char 
   912 ;; Return value:  Size  Location     Type
   913 ;;                  1    wreg      unsigned char 
   914 ;; Registers used:
   915 ;;		wreg, fsr2l, fsr2h, status,2, status,0, prodl, prodh, cstack
   916 ;; Tracked objects:
   917 ;;		On entry : 0/0
   918 ;;		On exit  : 0/0
   919 ;;		Unchanged: 0/0
   920 ;; Data sizes:     COMRAM   BANK0   BANK1   BANK2   BANK3   BANK4   BANK5   BANK6   BANK7   BANK8   BANK9  BANK10  BANK1
      +1  BANK12  BANK13  BANK14  BANK15
   921 ;;      Params:         1       0       0       0       0       0       0       0       0       0       0       0       
      +0       0       0       0       0
   922 ;;      Locals:         1       0       0       0       0       0       0       0       0       0       0       0       
      +0       0       0       0       0
   923 ;;      Temps:          0       0       0       0       0       0       0       0       0       0       0       0       
      +0       0       0       0       0
   924 ;;      Totals:         2       0       0       0       0       0       0       0       0       0       0       0       
      +0       0       0       0       0
   925 ;;Total ram usage:        2 bytes
   926 ;; Hardware stack levels used: 1
   927 ;; Hardware stack levels required when called: 6
   928 ;; This function calls:
   929 ;;		_Interrupt_RBx_Clear_Flag
   930 ;;		_Interrupt_RBx_Disable
   931 ;;		_Interrupt_RBx_Enable
   932 ;;		_Interrupt_RBx_Pin_init
   933 ;;		_Interrupt_RBx_Priority_init
   934 ;; This function is called by:
   935 ;;		_application_initializ
   936 ;; This function uses a non-reentrant model
   937 ;;
   938                           
   939                           	psect	text4
   940   0015B4                     __ptext4:
   941                           	callstack 0
   942   0015B4                     _Interrupt_RBx_init:
   943                           	callstack 23
   944   0015B4                     
   945                           ;MCAL_layer/Interrupt/external_interrupt.c: 116:     if(((void*)0) == _interrupt_RBx)
   946   0015B4  5066               	movf	Interrupt_RBx_init@_interrupt_RBx^0,w,c
   947   0015B6  A4D8               	btfss	status,2,c
   948   0015B8  EFE0  F00A         	goto	u1991
   949   0015BC  EFE2  F00A         	goto	u1990
   950   0015C0                     u1991:
   951   0015C0  EFE6  F00A         	goto	l3118
   952   0015C4                     u1990:
   953   0015C4                     
   954                           ;MCAL_layer/Interrupt/external_interrupt.c: 117:     {;MCAL_layer/Interrupt/external_int
      +                          errupt.c: 118:         ret = (STD_ReturnType)0x00;
   955   0015C4  0E00               	movlw	0
   956   0015C6  6E67               	movwf	Interrupt_RBx_init@ret^0,c
   957                           
   958                           ;MCAL_layer/Interrupt/external_interrupt.c: 119:     }
   959   0015C8  EFFE  F00A         	goto	l3124
   960   0015CC                     l3118:
   961                           
   962                           ;MCAL_layer/Interrupt/external_interrupt.c: 121:     {;MCAL_layer/Interrupt/external_int
      +                          errupt.c: 123:         ret = Interrupt_RBx_Disable(_interrupt_RBx);
   963   0015CC  C066  F05D         	movff	Interrupt_RBx_init@_interrupt_RBx,Interrupt_RBx_Disable@_interrupt_RBx
   964   0015D0  ECB3  F00B         	call	_Interrupt_RBx_Disable	;wreg free
   965   0015D4  6E67               	movwf	Interrupt_RBx_init@ret^0,c
   966                           
   967                           ;MCAL_layer/Interrupt/external_interrupt.c: 126:         ret = Interrupt_RBx_Clear_Flag(
      +                          _interrupt_RBx);
   968   0015D6  C066  F05D         	movff	Interrupt_RBx_init@_interrupt_RBx,Interrupt_RBx_Clear_Flag@_interrupt_RBx
   969   0015DA  ECC4  F00B         	call	_Interrupt_RBx_Clear_Flag	;wreg free
   970   0015DE  6E67               	movwf	Interrupt_RBx_init@ret^0,c
   971                           
   972                           ;MCAL_layer/Interrupt/external_interrupt.c: 129:         ret = Interrupt_RBx_Priority_in
      +                          it(_interrupt_RBx);
   973   0015E0  C066  F05D         	movff	Interrupt_RBx_init@_interrupt_RBx,Interrupt_RBx_Priority_init@_interrupt_RBx
   974   0015E4  EC90  F00B         	call	_Interrupt_RBx_Priority_init	;wreg free
   975   0015E8  6E67               	movwf	Interrupt_RBx_init@ret^0,c
   976   0015EA  C066  F064         	movff	Interrupt_RBx_init@_interrupt_RBx,Interrupt_RBx_Pin_init@_interrupt_RBx
   977   0015EE  ECE7  F009         	call	_Interrupt_RBx_Pin_init	;wreg free
   978   0015F2                     
   979                           ;MCAL_layer/Interrupt/external_interrupt.c: 135:         ret = Interrupt_RBx_Enable(_int
      +                          errupt_RBx);
   980   0015F2  C066  F05D         	movff	Interrupt_RBx_init@_interrupt_RBx,Interrupt_RBx_Enable@_interrupt_RBx
   981   0015F6  ECA2  F00B         	call	_Interrupt_RBx_Enable	;wreg free
   982   0015FA  6E67               	movwf	Interrupt_RBx_init@ret^0,c
   983   0015FC                     l3124:
   984                           
   985                           ;MCAL_layer/Interrupt/external_interrupt.c: 138:     return ret;
   986   0015FC  5067               	movf	Interrupt_RBx_init@ret^0,w,c
   987   0015FE  0012               	return		;funcret
   988   001600                     __end_of_Interrupt_RBx_init:
   989                           	callstack 0
   990                           
   991 ;; *************** function _Interrupt_RBx_Priority_init *****************
   992 ;; Defined at:
   993 ;;		line 486 in file "MCAL_layer/Interrupt/external_interrupt.c"
   994 ;; Parameters:    Size  Location     Type
   995 ;;  _interrupt_R    1   12[COMRAM] PTR const struct .
   996 ;;		 -> RB7_obj(4), RB6_obj(4), RB5_obj(4), RB4_obj(4), 
   997 ;; Auto vars:     Size  Location     Type
   998 ;;  ret             1   13[COMRAM] unsigned char 
   999 ;; Return value:  Size  Location     Type
  1000 ;;                  1    wreg      unsigned char 
  1001 ;; Registers used:
  1002 ;;		wreg, status,2
  1003 ;; Tracked objects:
  1004 ;;		On entry : 0/0
  1005 ;;		On exit  : 0/0
  1006 ;;		Unchanged: 0/0
  1007 ;; Data sizes:     COMRAM   BANK0   BANK1   BANK2   BANK3   BANK4   BANK5   BANK6   BANK7   BANK8   BANK9  BANK10  BANK1
      +1  BANK12  BANK13  BANK14  BANK15
  1008 ;;      Params:         1       0       0       0       0       0       0       0       0       0       0       0       
      +0       0       0       0       0
  1009 ;;      Locals:         1       0       0       0       0       0       0       0       0       0       0       0       
      +0       0       0       0       0
  1010 ;;      Temps:          0       0       0       0       0       0       0       0       0       0       0       0       
      +0       0       0       0       0
  1011 ;;      Totals:         2       0       0       0       0       0       0       0       0       0       0       0       
      +0       0       0       0       0
  1012 ;;Total ram usage:        2 bytes
  1013 ;; Hardware stack levels used: 1
  1014 ;; Hardware stack levels required when called: 4
  1015 ;; This function calls:
  1016 ;;		Nothing
  1017 ;; This function is called by:
  1018 ;;		_Interrupt_RBx_init
  1019 ;; This function uses a non-reentrant model
  1020 ;;
  1021                           
  1022                           	psect	text5
  1023   001720                     __ptext5:
  1024                           	callstack 0
  1025   001720                     _Interrupt_RBx_Priority_init:
  1026                           	callstack 24
  1027   001720                     
  1028                           ;MCAL_layer/Interrupt/external_interrupt.c: 486: static STD_ReturnType Interrupt_RBx_Pri
      +                          ority_init(const interrupt_RBx *_interrupt_RBx);MCAL_layer/Interrupt/external_interrupt.
      +                          c: 487: {;MCAL_layer/Interrupt/external_interrupt.c: 488:     STD_ReturnType ret = (STD_
      +                          ReturnType)0x01;
  1029   001720  0E01               	movlw	1
  1030   001722  6E5E               	movwf	Interrupt_RBx_Priority_init@ret^0,c
  1031                           
  1032                           ;MCAL_layer/Interrupt/external_interrupt.c: 490:     if(((void*)0) == _interrupt_RBx)
  1033   001724  505D               	movf	Interrupt_RBx_Priority_init@_interrupt_RBx^0,w,c
  1034   001726  A4D8               	btfss	status,2,c
  1035   001728  EF98  F00B         	goto	u1851
  1036   00172C  EF9A  F00B         	goto	u1850
  1037   001730                     u1851:
  1038   001730  EF9E  F00B         	goto	l643
  1039   001734                     u1850:
  1040   001734                     
  1041                           ;MCAL_layer/Interrupt/external_interrupt.c: 491:     {;MCAL_layer/Interrupt/external_int
      +                          errupt.c: 492:         ret = (STD_ReturnType)0x00;
  1042   001734  0E00               	movlw	0
  1043   001736  6E5E               	movwf	Interrupt_RBx_Priority_init@ret^0,c
  1044                           
  1045                           ;MCAL_layer/Interrupt/external_interrupt.c: 493:     }
  1046   001738  EFA0  F00B         	goto	l2976
  1047   00173C                     l643:
  1048                           
  1049                           ;MCAL_layer/Interrupt/external_interrupt.c: 495:     {;MCAL_layer/Interrupt/external_int
      +                          errupt.c: 513:         (INTCONbits.GIE = 1);
  1050   00173C  8EF2               	bsf	242,7,c	;volatile
  1051                           
  1052                           ;MCAL_layer/Interrupt/external_interrupt.c: 514:         (INTCONbits.PEIE = 1);
  1053   00173E  8CF2               	bsf	242,6,c	;volatile
  1054   001740                     l2976:
  1055                           
  1056                           ;MCAL_layer/Interrupt/external_interrupt.c: 518:     return ret;
  1057   001740  505E               	movf	Interrupt_RBx_Priority_init@ret^0,w,c
  1058   001742  0012               	return		;funcret
  1059   001744                     __end_of_Interrupt_RBx_Priority_init:
  1060                           	callstack 0
  1061                           
  1062 ;; *************** function _Interrupt_RBx_Pin_init *****************
  1063 ;; Defined at:
  1064 ;;		line 526 in file "MCAL_layer/Interrupt/external_interrupt.c"
  1065 ;; Parameters:    Size  Location     Type
  1066 ;;  _interrupt_R    1   19[COMRAM] PTR const struct .
  1067 ;;		 -> RB7_obj(4), RB6_obj(4), RB5_obj(4), RB4_obj(4), 
  1068 ;; Auto vars:     Size  Location     Type
  1069 ;;  ret             1   20[COMRAM] unsigned char 
  1070 ;; Return value:  Size  Location     Type
  1071 ;;                  1    wreg      unsigned char 
  1072 ;; Registers used:
  1073 ;;		wreg, fsr2l, fsr2h, status,2, status,0, prodl, prodh, cstack
  1074 ;; Tracked objects:
  1075 ;;		On entry : 0/0
  1076 ;;		On exit  : 0/0
  1077 ;;		Unchanged: 0/0
  1078 ;; Data sizes:     COMRAM   BANK0   BANK1   BANK2   BANK3   BANK4   BANK5   BANK6   BANK7   BANK8   BANK9  BANK10  BANK1
      +1  BANK12  BANK13  BANK14  BANK15
  1079 ;;      Params:         1       0       0       0       0       0       0       0       0       0       0       0       
      +0       0       0       0       0
  1080 ;;      Locals:         1       0       0       0       0       0       0       0       0       0       0       0       
      +0       0       0       0       0
  1081 ;;      Temps:          0       0       0       0       0       0       0       0       0       0       0       0       
      +0       0       0       0       0
  1082 ;;      Totals:         2       0       0       0       0       0       0       0       0       0       0       0       
      +0       0       0       0       0
  1083 ;;Total ram usage:        2 bytes
  1084 ;; Hardware stack levels used: 1
  1085 ;; Hardware stack levels required when called: 5
  1086 ;; This function calls:
  1087 ;;		_gpio_pin_direction_init
  1088 ;; This function is called by:
  1089 ;;		_Interrupt_RBx_init
  1090 ;; This function uses a non-reentrant model
  1091 ;;
  1092                           
  1093                           	psect	text6
  1094   0013CE                     __ptext6:
  1095                           	callstack 0
  1096   0013CE                     _Interrupt_RBx_Pin_init:
  1097                           	callstack 23
  1098   0013CE                     
  1099                           ;MCAL_layer/Interrupt/external_interrupt.c: 530:     if(((void*)0) == _interrupt_RBx)
  1100   0013CE  5064               	movf	Interrupt_RBx_Pin_init@_interrupt_RBx^0,w,c
  1101   0013D0  A4D8               	btfss	status,2,c
  1102   0013D2  EFED  F009         	goto	u1861
  1103   0013D6  EFEF  F009         	goto	u1860
  1104   0013DA                     u1861:
  1105   0013DA  EFF3  F009         	goto	l2984
  1106   0013DE                     u1860:
  1107   0013DE                     l2982:
  1108                           
  1109                           ;MCAL_layer/Interrupt/external_interrupt.c: 531:     {;MCAL_layer/Interrupt/external_int
      +                          errupt.c: 532:         ret = (STD_ReturnType)0x00;
  1110   0013DE  0E00               	movlw	0
  1111   0013E0  6E65               	movwf	Interrupt_RBx_Pin_init@ret^0,c
  1112                           
  1113                           ;MCAL_layer/Interrupt/external_interrupt.c: 533:     }
  1114   0013E2  EF3A  F00A         	goto	l3000
  1115   0013E6                     l2984:
  1116                           
  1117                           ;MCAL_layer/Interrupt/external_interrupt.c: 535:     {;MCAL_layer/Interrupt/external_int
      +                          errupt.c: 536:         ret = gpio_pin_direction_init(&(_interrupt_RBx->interrupt_pin));
  1118   0013E6  5064               	movf	Interrupt_RBx_Pin_init@_interrupt_RBx^0,w,c
  1119   0013E8  0F02               	addlw	2
  1120   0013EA  6E5D               	movwf	gpio_pin_direction_init@_pin_config^0,c
  1121   0013EC  ECD6  F008         	call	_gpio_pin_direction_init	;wreg free
  1122   0013F0  6E65               	movwf	Interrupt_RBx_Pin_init@ret^0,c
  1123                           
  1124                           ;MCAL_layer/Interrupt/external_interrupt.c: 538:         switch(_interrupt_RBx->interrup
      +                          t_pin.pin)
  1125   0013F2  EF1F  F00A         	goto	l2998
  1126   0013F6                     l2986:
  1127                           
  1128                           ;MCAL_layer/Interrupt/external_interrupt.c: 541:                 RB4_InterruptHandler = 
      +                          _interrupt_RBx->EXTERNAL_INTERRUPT_CALLBACK;
  1129   0013F6  5064               	movf	Interrupt_RBx_Pin_init@_interrupt_RBx^0,w,c
  1130   0013F8  6ED9               	movwf	fsr2l,c
  1131   0013FA  6ADA               	clrf	fsr2h,c
  1132   0013FC  CFDE F039          	movff	postinc2,_RB4_InterruptHandler
  1133   001400  CFDD F03A          	movff	postdec2,_RB4_InterruptHandler+1
  1134                           
  1135                           ;MCAL_layer/Interrupt/external_interrupt.c: 542:                 break;
  1136   001404  EF3A  F00A         	goto	l3000
  1137   001408                     l2988:
  1138                           
  1139                           ;MCAL_layer/Interrupt/external_interrupt.c: 544:                 RB5_InterruptHandler = 
      +                          _interrupt_RBx->EXTERNAL_INTERRUPT_CALLBACK;
  1140   001408  5064               	movf	Interrupt_RBx_Pin_init@_interrupt_RBx^0,w,c
  1141   00140A  6ED9               	movwf	fsr2l,c
  1142   00140C  6ADA               	clrf	fsr2h,c
  1143   00140E  CFDE F037          	movff	postinc2,_RB5_InterruptHandler
  1144   001412  CFDD F038          	movff	postdec2,_RB5_InterruptHandler+1
  1145                           
  1146                           ;MCAL_layer/Interrupt/external_interrupt.c: 545:                 break;
  1147   001416  EF3A  F00A         	goto	l3000
  1148   00141A                     l2990:
  1149                           
  1150                           ;MCAL_layer/Interrupt/external_interrupt.c: 547:                 RB6_InterruptHandler = 
      +                          _interrupt_RBx->EXTERNAL_INTERRUPT_CALLBACK;
  1151   00141A  5064               	movf	Interrupt_RBx_Pin_init@_interrupt_RBx^0,w,c
  1152   00141C  6ED9               	movwf	fsr2l,c
  1153   00141E  6ADA               	clrf	fsr2h,c
  1154   001420  CFDE F035          	movff	postinc2,_RB6_InterruptHandler
  1155   001424  CFDD F036          	movff	postdec2,_RB6_InterruptHandler+1
  1156                           
  1157                           ;MCAL_layer/Interrupt/external_interrupt.c: 548:                 break;
  1158   001428  EF3A  F00A         	goto	l3000
  1159   00142C                     l2992:
  1160                           
  1161                           ;MCAL_layer/Interrupt/external_interrupt.c: 550:                 RB7_InterruptHandler = 
      +                          _interrupt_RBx->EXTERNAL_INTERRUPT_CALLBACK;
  1162   00142C  5064               	movf	Interrupt_RBx_Pin_init@_interrupt_RBx^0,w,c
  1163   00142E  6ED9               	movwf	fsr2l,c
  1164   001430  6ADA               	clrf	fsr2h,c
  1165   001432  CFDE F033          	movff	postinc2,_RB7_InterruptHandler
  1166   001436  CFDD F034          	movff	postdec2,_RB7_InterruptHandler+1
  1167                           
  1168                           ;MCAL_layer/Interrupt/external_interrupt.c: 551:                 break;
  1169   00143A  EF3A  F00A         	goto	l3000
  1170   00143E                     l2998:
  1171   00143E  5064               	movf	Interrupt_RBx_Pin_init@_interrupt_RBx^0,w,c
  1172   001440  6ED9               	movwf	fsr2l,c
  1173   001442  6ADA               	clrf	fsr2h,c
  1174   001444  0E02               	movlw	2
  1175   001446  26D9               	addwf	fsr2l,f,c
  1176   001448  30DF               	rrcf	223,w,c
  1177   00144A  32E8               	rrcf	wreg,f,c
  1178   00144C  32E8               	rrcf	wreg,f,c
  1179   00144E  0B07               	andlw	7
  1180                           
  1181                           ; Switch size 1, requested type "simple"
  1182                           ; Number of cases is 4, Range of values is 4 to 7
  1183                           ; switch strategies available:
  1184                           ; Name         Instructions Cycles
  1185                           ; simple_byte           13     7 (average)
  1186                           ;	Chosen strategy is simple_byte
  1187   001450  0A04               	xorlw	4	; case 4
  1188   001452  B4D8               	btfsc	status,2,c
  1189   001454  EFFB  F009         	goto	l2986
  1190   001458  0A01               	xorlw	1	; case 5
  1191   00145A  B4D8               	btfsc	status,2,c
  1192   00145C  EF04  F00A         	goto	l2988
  1193   001460  0A03               	xorlw	3	; case 6
  1194   001462  B4D8               	btfsc	status,2,c
  1195   001464  EF0D  F00A         	goto	l2990
  1196   001468  0A01               	xorlw	1	; case 7
  1197   00146A  B4D8               	btfsc	status,2,c
  1198   00146C  EF16  F00A         	goto	l2992
  1199   001470  EFEF  F009         	goto	l2982
  1200   001474                     l3000:
  1201                           
  1202                           ;MCAL_layer/Interrupt/external_interrupt.c: 557:     return ret;
  1203   001474  5065               	movf	Interrupt_RBx_Pin_init@ret^0,w,c
  1204   001476  0012               	return		;funcret
  1205   001478                     __end_of_Interrupt_RBx_Pin_init:
  1206                           	callstack 0
  1207                           
  1208 ;; *************** function _gpio_pin_direction_init *****************
  1209 ;; Defined at:
  1210 ;;		line 21 in file "MCAL_layer/GPIO/gpio.c"
  1211 ;; Parameters:    Size  Location     Type
  1212 ;;  _pin_config     1   12[COMRAM] PTR const struct .
  1213 ;;		 -> led4(1), led3(1), led2(1), led1(1), 
  1214 ;;		 -> RB7_obj(4), RB6_obj(4), RB5_obj(4), RB4_obj(4), 
  1215 ;;		 -> ecu_relay_initializ@relay_init(1), ecu_led_initializ@_pin_config(1), ecu_dc_motor_initializ@dc_motor_pin_2(1), e
      +cu_dc_motor_initializ@dc_motor_pin_1(1), 
  1216 ;; Auto vars:     Size  Location     Type
  1217 ;;  ret             1   18[COMRAM] unsigned char 
  1218 ;; Return value:  Size  Location     Type
  1219 ;;                  1    wreg      unsigned char 
  1220 ;; Registers used:
  1221 ;;		wreg, fsr2l, fsr2h, status,2, status,0, prodl, prodh
  1222 ;; Tracked objects:
  1223 ;;		On entry : 0/0
  1224 ;;		On exit  : 0/0
  1225 ;;		Unchanged: 0/0
  1226 ;; Data sizes:     COMRAM   BANK0   BANK1   BANK2   BANK3   BANK4   BANK5   BANK6   BANK7   BANK8   BANK9  BANK10  BANK1
      +1  BANK12  BANK13  BANK14  BANK15
  1227 ;;      Params:         1       0       0       0       0       0       0       0       0       0       0       0       
      +0       0       0       0       0
  1228 ;;      Locals:         1       0       0       0       0       0       0       0       0       0       0       0       
      +0       0       0       0       0
  1229 ;;      Temps:          5       0       0       0       0       0       0       0       0       0       0       0       
      +0       0       0       0       0
  1230 ;;      Totals:         7       0       0       0       0       0       0       0       0       0       0       0       
      +0       0       0       0       0
  1231 ;;Total ram usage:        7 bytes
  1232 ;; Hardware stack levels used: 1
  1233 ;; Hardware stack levels required when called: 4
  1234 ;; This function calls:
  1235 ;;		Nothing
  1236 ;; This function is called by:
  1237 ;;		_gpio_pin_Initialization
  1238 ;;		_Interrupt_RBx_Pin_init
  1239 ;;		_ecu_button_init
  1240 ;;		_Interrupt_INTx_Pin_init
  1241 ;; This function uses a non-reentrant model
  1242 ;;
  1243                           
  1244                           	psect	text7
  1245   0011AC                     __ptext7:
  1246                           	callstack 0
  1247   0011AC                     _gpio_pin_direction_init:
  1248                           	callstack 24
  1249   0011AC                     
  1250                           ;MCAL_layer/GPIO/gpio.c: 21: STD_ReturnType gpio_pin_direction_init(const pin_config *_p
      +                          in_config);MCAL_layer/GPIO/gpio.c: 22: {;MCAL_layer/GPIO/gpio.c: 23:     STD_ReturnType 
      +                          ret = (STD_ReturnType)0x01;
  1251   0011AC  0E01               	movlw	1
  1252   0011AE  6E63               	movwf	gpio_pin_direction_init@ret^0,c
  1253                           
  1254                           ;MCAL_layer/GPIO/gpio.c: 25:     if(((void*)0) == _pin_config || _pin_config->pin > 8 -1
      +                          )
  1255   0011B0  505D               	movf	gpio_pin_direction_init@_pin_config^0,w,c
  1256   0011B2  B4D8               	btfsc	status,2,c
  1257   0011B4  EFDE  F008         	goto	u1711
  1258   0011B8  EFE0  F008         	goto	u1710
  1259   0011BC                     u1711:
  1260   0011BC  EFF0  F008         	goto	l2908
  1261   0011C0                     u1710:
  1262   0011C0  505D               	movf	gpio_pin_direction_init@_pin_config^0,w,c
  1263   0011C2  6ED9               	movwf	fsr2l,c
  1264   0011C4  6ADA               	clrf	fsr2h,c
  1265   0011C6  30DF               	rrcf	223,w,c
  1266   0011C8  32E8               	rrcf	wreg,f,c
  1267   0011CA  32E8               	rrcf	wreg,f,c
  1268   0011CC  0B07               	andlw	7
  1269   0011CE  6E5E               	movwf	??_gpio_pin_direction_init^0,c
  1270   0011D0  0E07               	movlw	7
  1271   0011D2  645E               	cpfsgt	??_gpio_pin_direction_init^0,c
  1272   0011D4  EFEE  F008         	goto	u1721
  1273   0011D8  EFF0  F008         	goto	u1720
  1274   0011DC                     u1721:
  1275   0011DC  EF47  F009         	goto	l2916
  1276   0011E0                     u1720:
  1277   0011E0                     l2908:
  1278                           
  1279                           ;MCAL_layer/GPIO/gpio.c: 26:     {;MCAL_layer/GPIO/gpio.c: 27:         ret = (STD_Return
      +                          Type)0x00;
  1280   0011E0  0E00               	movlw	0
  1281   0011E2  6E63               	movwf	gpio_pin_direction_init@ret^0,c
  1282                           
  1283                           ;MCAL_layer/GPIO/gpio.c: 28:     }
  1284   0011E4  EF5D  F009         	goto	l2918
  1285   0011E8                     l2910:
  1286                           
  1287                           ;MCAL_layer/GPIO/gpio.c: 33:                 (*tris_registers[_pin_config->port] &= ~((u
      +                          int8)1 << _pin_config->pin));
  1288   0011E8  505D               	movf	gpio_pin_direction_init@_pin_config^0,w,c
  1289   0011EA  6ED9               	movwf	fsr2l,c
  1290   0011EC  6ADA               	clrf	fsr2h,c
  1291   0011EE  30DF               	rrcf	223,w,c
  1292   0011F0  32E8               	rrcf	wreg,f,c
  1293   0011F2  32E8               	rrcf	wreg,f,c
  1294   0011F4  0B07               	andlw	7
  1295   0011F6  6E5E               	movwf	??_gpio_pin_direction_init^0,c
  1296   0011F8  0E01               	movlw	1
  1297   0011FA  6E5F               	movwf	(??_gpio_pin_direction_init+1)^0,c
  1298   0011FC  2A5E               	incf	??_gpio_pin_direction_init^0,f,c
  1299   0011FE  EF03  F009         	goto	u1734
  1300   001202                     u1735:
  1301   001202  90D8               	bcf	status,0,c
  1302   001204  365F               	rlcf	(??_gpio_pin_direction_init+1)^0,f,c
  1303   001206                     u1734:
  1304   001206  2E5E               	decfsz	??_gpio_pin_direction_init^0,f,c
  1305   001208  EF01  F009         	goto	u1735
  1306   00120C  505F               	movf	(??_gpio_pin_direction_init+1)^0,w,c
  1307   00120E  0AFF               	xorlw	255
  1308   001210  6E60               	movwf	(??_gpio_pin_direction_init+2)^0,c
  1309   001212  505D               	movf	gpio_pin_direction_init@_pin_config^0,w,c
  1310   001214  6ED9               	movwf	fsr2l,c
  1311   001216  6ADA               	clrf	fsr2h,c
  1312   001218  50DF               	movf	223,w,c
  1313   00121A  0B07               	andlw	7
  1314   00121C  0D02               	mullw	2
  1315   00121E  50F3               	movf	243,w,c
  1316   001220  0F15               	addlw	low _tris_registers
  1317   001222  6ED9               	movwf	fsr2l,c
  1318   001224  6ADA               	clrf	fsr2h,c
  1319   001226  CFDE F061          	movff	postinc2,??_gpio_pin_direction_init+3
  1320   00122A  CFDD F062          	movff	postdec2,??_gpio_pin_direction_init+4
  1321   00122E  C061  FFD9         	movff	??_gpio_pin_direction_init+3,fsr2l
  1322   001232  C062  FFDA         	movff	??_gpio_pin_direction_init+4,fsr2h
  1323   001236  5060               	movf	(??_gpio_pin_direction_init+2)^0,w,c
  1324   001238  16DF               	andwf	indf2,f,c
  1325                           
  1326                           ;MCAL_layer/GPIO/gpio.c: 34:                 break;
  1327   00123A  EF5D  F009         	goto	l2918
  1328   00123E                     l2912:
  1329                           
  1330                           ;MCAL_layer/GPIO/gpio.c: 36:                 (*tris_registers[_pin_config->port] |= ((ui
      +                          nt8)1 << _pin_config->pin));
  1331   00123E  505D               	movf	gpio_pin_direction_init@_pin_config^0,w,c
  1332   001240  6ED9               	movwf	fsr2l,c
  1333   001242  6ADA               	clrf	fsr2h,c
  1334   001244  30DF               	rrcf	223,w,c
  1335   001246  32E8               	rrcf	wreg,f,c
  1336   001248  32E8               	rrcf	wreg,f,c
  1337   00124A  0B07               	andlw	7
  1338   00124C  6E5E               	movwf	??_gpio_pin_direction_init^0,c
  1339   00124E  0E01               	movlw	1
  1340   001250  6E5F               	movwf	(??_gpio_pin_direction_init+1)^0,c
  1341   001252  2A5E               	incf	??_gpio_pin_direction_init^0,f,c
  1342   001254  EF2E  F009         	goto	u1744
  1343   001258                     u1745:
  1344   001258  90D8               	bcf	status,0,c
  1345   00125A  365F               	rlcf	(??_gpio_pin_direction_init+1)^0,f,c
  1346   00125C                     u1744:
  1347   00125C  2E5E               	decfsz	??_gpio_pin_direction_init^0,f,c
  1348   00125E  EF2C  F009         	goto	u1745
  1349   001262  505D               	movf	gpio_pin_direction_init@_pin_config^0,w,c
  1350   001264  6ED9               	movwf	fsr2l,c
  1351   001266  6ADA               	clrf	fsr2h,c
  1352   001268  50DF               	movf	223,w,c
  1353   00126A  0B07               	andlw	7
  1354   00126C  0D02               	mullw	2
  1355   00126E  50F3               	movf	243,w,c
  1356   001270  0F15               	addlw	low _tris_registers
  1357   001272  6ED9               	movwf	fsr2l,c
  1358   001274  6ADA               	clrf	fsr2h,c
  1359   001276  CFDE F060          	movff	postinc2,??_gpio_pin_direction_init+2
  1360   00127A  CFDD F061          	movff	postdec2,??_gpio_pin_direction_init+3
  1361   00127E  C060  FFD9         	movff	??_gpio_pin_direction_init+2,fsr2l
  1362   001282  C061  FFDA         	movff	??_gpio_pin_direction_init+3,fsr2h
  1363   001286  505F               	movf	(??_gpio_pin_direction_init+1)^0,w,c
  1364   001288  12DF               	iorwf	indf2,f,c
  1365                           
  1366                           ;MCAL_layer/GPIO/gpio.c: 37:                 break;
  1367   00128A  EF5D  F009         	goto	l2918
  1368   00128E                     l2916:
  1369   00128E  505D               	movf	gpio_pin_direction_init@_pin_config^0,w,c
  1370   001290  6ED9               	movwf	fsr2l,c
  1371   001292  6ADA               	clrf	fsr2h,c
  1372   001294  BCDF               	btfsc	indf2,6,c
  1373   001296  EF4F  F009         	goto	u1751
  1374   00129A  EF52  F009         	goto	u1750
  1375   00129E                     u1751:
  1376   00129E  0E01               	movlw	1
  1377   0012A0  EF53  F009         	goto	u1756
  1378   0012A4                     u1750:
  1379   0012A4  0E00               	movlw	0
  1380   0012A6                     u1756:
  1381                           
  1382                           ; Switch size 1, requested type "simple"
  1383                           ; Number of cases is 2, Range of values is 0 to 1
  1384                           ; switch strategies available:
  1385                           ; Name         Instructions Cycles
  1386                           ; simple_byte            7     4 (average)
  1387                           ;	Chosen strategy is simple_byte
  1388   0012A6  0A00               	xorlw	0	; case 0
  1389   0012A8  B4D8               	btfsc	status,2,c
  1390   0012AA  EFF4  F008         	goto	l2910
  1391   0012AE  0A01               	xorlw	1	; case 1
  1392   0012B0  B4D8               	btfsc	status,2,c
  1393   0012B2  EF1F  F009         	goto	l2912
  1394   0012B6  EFF0  F008         	goto	l2908
  1395   0012BA                     l2918:
  1396                           
  1397                           ;MCAL_layer/GPIO/gpio.c: 42:     return ret;
  1398   0012BA  5063               	movf	gpio_pin_direction_init@ret^0,w,c
  1399   0012BC  0012               	return		;funcret
  1400   0012BE                     __end_of_gpio_pin_direction_init:
  1401                           	callstack 0
  1402                           
  1403 ;; *************** function _Interrupt_RBx_Enable *****************
  1404 ;; Defined at:
  1405 ;;		line 444 in file "MCAL_layer/Interrupt/external_interrupt.c"
  1406 ;; Parameters:    Size  Location     Type
  1407 ;;  _interrupt_R    1   12[COMRAM] PTR const struct .
  1408 ;;		 -> RB7_obj(4), RB6_obj(4), RB5_obj(4), RB4_obj(4), 
  1409 ;; Auto vars:     Size  Location     Type
  1410 ;;  ret             1   13[COMRAM] unsigned char 
  1411 ;; Return value:  Size  Location     Type
  1412 ;;                  1    wreg      unsigned char 
  1413 ;; Registers used:
  1414 ;;		wreg, status,2
  1415 ;; Tracked objects:
  1416 ;;		On entry : 0/0
  1417 ;;		On exit  : 0/0
  1418 ;;		Unchanged: 0/0
  1419 ;; Data sizes:     COMRAM   BANK0   BANK1   BANK2   BANK3   BANK4   BANK5   BANK6   BANK7   BANK8   BANK9  BANK10  BANK1
      +1  BANK12  BANK13  BANK14  BANK15
  1420 ;;      Params:         1       0       0       0       0       0       0       0       0       0       0       0       
      +0       0       0       0       0
  1421 ;;      Locals:         1       0       0       0       0       0       0       0       0       0       0       0       
      +0       0       0       0       0
  1422 ;;      Temps:          0       0       0       0       0       0       0       0       0       0       0       0       
      +0       0       0       0       0
  1423 ;;      Totals:         2       0       0       0       0       0       0       0       0       0       0       0       
      +0       0       0       0       0
  1424 ;;Total ram usage:        2 bytes
  1425 ;; Hardware stack levels used: 1
  1426 ;; Hardware stack levels required when called: 4
  1427 ;; This function calls:
  1428 ;;		Nothing
  1429 ;; This function is called by:
  1430 ;;		_Interrupt_RBx_init
  1431 ;; This function uses a non-reentrant model
  1432 ;;
  1433                           
  1434                           	psect	text8
  1435   001744                     __ptext8:
  1436                           	callstack 0
  1437   001744                     _Interrupt_RBx_Enable:
  1438                           	callstack 24
  1439   001744                     
  1440                           ;MCAL_layer/Interrupt/external_interrupt.c: 444: static STD_ReturnType Interrupt_RBx_Ena
      +                          ble(const interrupt_RBx *_interrupt_RBx);MCAL_layer/Interrupt/external_interrupt.c: 445:
      +                           {;MCAL_layer/Interrupt/external_interrupt.c: 446:     STD_ReturnType ret = (STD_ReturnT
      +                          ype)0x01;
  1441   001744  0E01               	movlw	1
  1442   001746  6E5E               	movwf	Interrupt_RBx_Enable@ret^0,c
  1443                           
  1444                           ;MCAL_layer/Interrupt/external_interrupt.c: 448:     if(((void*)0) == _interrupt_RBx)
  1445   001748  505D               	movf	Interrupt_RBx_Enable@_interrupt_RBx^0,w,c
  1446   00174A  A4D8               	btfss	status,2,c
  1447   00174C  EFAA  F00B         	goto	u1871
  1448   001750  EFAC  F00B         	goto	u1870
  1449   001754                     u1871:
  1450   001754  EFB0  F00B         	goto	l633
  1451   001758                     u1870:
  1452   001758                     
  1453                           ;MCAL_layer/Interrupt/external_interrupt.c: 449:     {;MCAL_layer/Interrupt/external_int
      +                          errupt.c: 450:         ret = (STD_ReturnType)0x00;
  1454   001758  0E00               	movlw	0
  1455   00175A  6E5E               	movwf	Interrupt_RBx_Enable@ret^0,c
  1456                           
  1457                           ;MCAL_layer/Interrupt/external_interrupt.c: 451:     }
  1458   00175C  EFB1  F00B         	goto	l3008
  1459   001760                     l633:
  1460                           
  1461                           ;MCAL_layer/Interrupt/external_interrupt.c: 453:     {;MCAL_layer/Interrupt/external_int
      +                          errupt.c: 454:         (INTCONbits.RBIE = 1);
  1462   001760  86F2               	bsf	242,3,c	;volatile
  1463   001762                     l3008:
  1464                           
  1465                           ;MCAL_layer/Interrupt/external_interrupt.c: 457:     return ret;
  1466   001762  505E               	movf	Interrupt_RBx_Enable@ret^0,w,c
  1467   001764  0012               	return		;funcret
  1468   001766                     __end_of_Interrupt_RBx_Enable:
  1469                           	callstack 0
  1470                           
  1471 ;; *************** function _Interrupt_RBx_Disable *****************
  1472 ;; Defined at:
  1473 ;;		line 465 in file "MCAL_layer/Interrupt/external_interrupt.c"
  1474 ;; Parameters:    Size  Location     Type
  1475 ;;  _interrupt_R    1   12[COMRAM] PTR const struct .
  1476 ;;		 -> RB7_obj(4), RB6_obj(4), RB5_obj(4), RB4_obj(4), 
  1477 ;; Auto vars:     Size  Location     Type
  1478 ;;  ret             1   13[COMRAM] unsigned char 
  1479 ;; Return value:  Size  Location     Type
  1480 ;;                  1    wreg      unsigned char 
  1481 ;; Registers used:
  1482 ;;		wreg, status,2
  1483 ;; Tracked objects:
  1484 ;;		On entry : 0/0
  1485 ;;		On exit  : 0/0
  1486 ;;		Unchanged: 0/0
  1487 ;; Data sizes:     COMRAM   BANK0   BANK1   BANK2   BANK3   BANK4   BANK5   BANK6   BANK7   BANK8   BANK9  BANK10  BANK1
      +1  BANK12  BANK13  BANK14  BANK15
  1488 ;;      Params:         1       0       0       0       0       0       0       0       0       0       0       0       
      +0       0       0       0       0
  1489 ;;      Locals:         1       0       0       0       0       0       0       0       0       0       0       0       
      +0       0       0       0       0
  1490 ;;      Temps:          0       0       0       0       0       0       0       0       0       0       0       0       
      +0       0       0       0       0
  1491 ;;      Totals:         2       0       0       0       0       0       0       0       0       0       0       0       
      +0       0       0       0       0
  1492 ;;Total ram usage:        2 bytes
  1493 ;; Hardware stack levels used: 1
  1494 ;; Hardware stack levels required when called: 4
  1495 ;; This function calls:
  1496 ;;		Nothing
  1497 ;; This function is called by:
  1498 ;;		_Interrupt_RBx_init
  1499 ;;		_Interrupt_RBx_deinit
  1500 ;; This function uses a non-reentrant model
  1501 ;;
  1502                           
  1503                           	psect	text9
  1504   001766                     __ptext9:
  1505                           	callstack 0
  1506   001766                     _Interrupt_RBx_Disable:
  1507                           	callstack 24
  1508   001766                     
  1509                           ;MCAL_layer/Interrupt/external_interrupt.c: 465: static STD_ReturnType Interrupt_RBx_Dis
      +                          able(const interrupt_RBx *_interrupt_RBx);MCAL_layer/Interrupt/external_interrupt.c: 466
      +                          : {;MCAL_layer/Interrupt/external_interrupt.c: 467:     STD_ReturnType ret = (STD_Return
      +                          Type)0x01;
  1510   001766  0E01               	movlw	1
  1511   001768  6E5E               	movwf	Interrupt_RBx_Disable@ret^0,c
  1512                           
  1513                           ;MCAL_layer/Interrupt/external_interrupt.c: 469:     if(((void*)0) == _interrupt_RBx)
  1514   00176A  505D               	movf	Interrupt_RBx_Disable@_interrupt_RBx^0,w,c
  1515   00176C  A4D8               	btfss	status,2,c
  1516   00176E  EFBB  F00B         	goto	u1831
  1517   001772  EFBD  F00B         	goto	u1830
  1518   001776                     u1831:
  1519   001776  EFC1  F00B         	goto	l638
  1520   00177A                     u1830:
  1521   00177A                     
  1522                           ;MCAL_layer/Interrupt/external_interrupt.c: 470:     {;MCAL_layer/Interrupt/external_int
      +                          errupt.c: 471:         ret = (STD_ReturnType)0x00;
  1523   00177A  0E00               	movlw	0
  1524   00177C  6E5E               	movwf	Interrupt_RBx_Disable@ret^0,c
  1525                           
  1526                           ;MCAL_layer/Interrupt/external_interrupt.c: 472:     }
  1527   00177E  EFC2  F00B         	goto	l2960
  1528   001782                     l638:
  1529                           
  1530                           ;MCAL_layer/Interrupt/external_interrupt.c: 474:     {;MCAL_layer/Interrupt/external_int
      +                          errupt.c: 475:         (INTCONbits.RBIE = 0);
  1531   001782  96F2               	bcf	242,3,c	;volatile
  1532   001784                     l2960:
  1533                           
  1534                           ;MCAL_layer/Interrupt/external_interrupt.c: 478:     return ret;
  1535   001784  505E               	movf	Interrupt_RBx_Disable@ret^0,w,c
  1536   001786  0012               	return		;funcret
  1537   001788                     __end_of_Interrupt_RBx_Disable:
  1538                           	callstack 0
  1539                           
  1540 ;; *************** function _Interrupt_RBx_Clear_Flag *****************
  1541 ;; Defined at:
  1542 ;;		line 565 in file "MCAL_layer/Interrupt/external_interrupt.c"
  1543 ;; Parameters:    Size  Location     Type
  1544 ;;  _interrupt_R    1   12[COMRAM] PTR const struct .
  1545 ;;		 -> RB7_obj(4), RB6_obj(4), RB5_obj(4), RB4_obj(4), 
  1546 ;; Auto vars:     Size  Location     Type
  1547 ;;  ret             1   13[COMRAM] unsigned char 
  1548 ;; Return value:  Size  Location     Type
  1549 ;;                  1    wreg      unsigned char 
  1550 ;; Registers used:
  1551 ;;		wreg, status,2
  1552 ;; Tracked objects:
  1553 ;;		On entry : 0/0
  1554 ;;		On exit  : 0/0
  1555 ;;		Unchanged: 0/0
  1556 ;; Data sizes:     COMRAM   BANK0   BANK1   BANK2   BANK3   BANK4   BANK5   BANK6   BANK7   BANK8   BANK9  BANK10  BANK1
      +1  BANK12  BANK13  BANK14  BANK15
  1557 ;;      Params:         1       0       0       0       0       0       0       0       0       0       0       0       
      +0       0       0       0       0
  1558 ;;      Locals:         1       0       0       0       0       0       0       0       0       0       0       0       
      +0       0       0       0       0
  1559 ;;      Temps:          0       0       0       0       0       0       0       0       0       0       0       0       
      +0       0       0       0       0
  1560 ;;      Totals:         2       0       0       0       0       0       0       0       0       0       0       0       
      +0       0       0       0       0
  1561 ;;Total ram usage:        2 bytes
  1562 ;; Hardware stack levels used: 1
  1563 ;; Hardware stack levels required when called: 4
  1564 ;; This function calls:
  1565 ;;		Nothing
  1566 ;; This function is called by:
  1567 ;;		_Interrupt_RBx_init
  1568 ;; This function uses a non-reentrant model
  1569 ;;
  1570                           
  1571                           	psect	text10
  1572   001788                     __ptext10:
  1573                           	callstack 0
  1574   001788                     _Interrupt_RBx_Clear_Flag:
  1575                           	callstack 24
  1576   001788                     
  1577                           ;MCAL_layer/Interrupt/external_interrupt.c: 565: static STD_ReturnType Interrupt_RBx_Cle
      +                          ar_Flag (const interrupt_RBx *_interrupt_RBx);MCAL_layer/Interrupt/external_interrupt.c:
      +                           566: {;MCAL_layer/Interrupt/external_interrupt.c: 567:     STD_ReturnType ret = (STD_Re
      +                          turnType)0x01;
  1578   001788  0E01               	movlw	1
  1579   00178A  6E5E               	movwf	Interrupt_RBx_Clear_Flag@ret^0,c
  1580                           
  1581                           ;MCAL_layer/Interrupt/external_interrupt.c: 569:     if(((void*)0) == _interrupt_RBx)
  1582   00178C  505D               	movf	Interrupt_RBx_Clear_Flag@_interrupt_RBx^0,w,c
  1583   00178E  A4D8               	btfss	status,2,c
  1584   001790  EFCC  F00B         	goto	u1841
  1585   001794  EFCE  F00B         	goto	u1840
  1586   001798                     u1841:
  1587   001798  EFD2  F00B         	goto	l660
  1588   00179C                     u1840:
  1589   00179C                     
  1590                           ;MCAL_layer/Interrupt/external_interrupt.c: 570:     {;MCAL_layer/Interrupt/external_int
      +                          errupt.c: 571:         ret = (STD_ReturnType)0x00;
  1591   00179C  0E00               	movlw	0
  1592   00179E  6E5E               	movwf	Interrupt_RBx_Clear_Flag@ret^0,c
  1593                           
  1594                           ;MCAL_layer/Interrupt/external_interrupt.c: 572:     }
  1595   0017A0  EFD3  F00B         	goto	l2968
  1596   0017A4                     l660:
  1597                           
  1598                           ;MCAL_layer/Interrupt/external_interrupt.c: 574:     {;MCAL_layer/Interrupt/external_int
      +                          errupt.c: 575:         (INTCONbits.RBIF = 0);
  1599   0017A4  90F2               	bcf	242,0,c	;volatile
  1600   0017A6                     l2968:
  1601                           
  1602                           ;MCAL_layer/Interrupt/external_interrupt.c: 578:     return ret;
  1603   0017A6  505E               	movf	Interrupt_RBx_Clear_Flag@ret^0,w,c
  1604   0017A8  0012               	return		;funcret
  1605   0017AA                     __end_of_Interrupt_RBx_Clear_Flag:
  1606                           	callstack 0
  1607                           
  1608 ;; *************** function _Interrupt_Manager *****************
  1609 ;; Defined at:
  1610 ;;		line 52 in file "MCAL_layer/Interrupt/interrupt_manager.c"
  1611 ;; Parameters:    Size  Location     Type
  1612 ;;		None
  1613 ;; Auto vars:     Size  Location     Type
  1614 ;;		None
  1615 ;; Return value:  Size  Location     Type
  1616 ;;                  1    wreg      void 
  1617 ;; Registers used:
  1618 ;;		wreg, fsr2l, fsr2h, status,2, status,0, pcl, pclath, pclatu, tosl, prodl, prodh, cstack
  1619 ;; Tracked objects:
  1620 ;;		On entry : 0/0
  1621 ;;		On exit  : 0/0
  1622 ;;		Unchanged: 0/0
  1623 ;; Data sizes:     COMRAM   BANK0   BANK1   BANK2   BANK3   BANK4   BANK5   BANK6   BANK7   BANK8   BANK9  BANK10  BANK1
      +1  BANK12  BANK13  BANK14  BANK15
  1624 ;;      Params:         0       0       0       0       0       0       0       0       0       0       0       0       
      +0       0       0       0       0
  1625 ;;      Locals:         0       0       0       0       0       0       0       0       0       0       0       0       
      +0       0       0       0       0
  1626 ;;      Temps:          6       0       0       0       0       0       0       0       0       0       0       0       
      +0       0       0       0       0
  1627 ;;      Totals:         6       0       0       0       0       0       0       0       0       0       0       0       
      +0       0       0       0       0
  1628 ;;Total ram usage:        6 bytes
  1629 ;; Hardware stack levels used: 1
  1630 ;; Hardware stack levels required when called: 3
  1631 ;; This function calls:
  1632 ;;		_INT0_ISR
  1633 ;;		_INT1_ISR
  1634 ;;		_INT2_ISR
  1635 ;;		_RB4_ISR
  1636 ;;		_RB5_ISR
  1637 ;;		_RB6_ISR
  1638 ;;		_RB7_ISR
  1639 ;; This function is called by:
  1640 ;;		Interrupt level 2
  1641 ;; This function uses a non-reentrant model
  1642 ;;
  1643                           
  1644                           	psect	intcode
  1645   000008                     __pintcode:
  1646                           	callstack 0
  1647   000008                     _Interrupt_Manager:
  1648                           	callstack 23
  1649                           
  1650                           ;incstack = 0
  1651   000008  8269               	bsf	int$flags,1,c	;set compiler interrupt flag (level 2)
  1652   00000A  ED0B  F008         	call	int_func,f	;refresh shadow registers
  1653                           
  1654                           	psect	intcode_body
  1655   001016                     __pintcode_body:
  1656                           	callstack 23
  1657   001016                     int_func:
  1658                           	callstack 23
  1659   001016  0006               	pop		; remove dummy address from shadow register refresh
  1660   001018  CFFA F057          	movff	pclath,??_Interrupt_Manager
  1661   00101C  CFFB F058          	movff	pclatu,??_Interrupt_Manager+1
  1662   001020  CFD9 F059          	movff	fsr2l,??_Interrupt_Manager+2
  1663   001024  CFDA F05A          	movff	fsr2h,??_Interrupt_Manager+3
  1664   001028  CFF3 F05B          	movff	prodl,??_Interrupt_Manager+4
  1665   00102C  CFF4 F05C          	movff	prodh,??_Interrupt_Manager+5
  1666   001030                     
  1667                           ;MCAL_layer/Interrupt/interrupt_manager.c: 55:     if((1 == INTCONbits.RBIE) && (1 == IN
      +                          TCONbits.RBIF ))
  1668   001030  A6F2               	btfss	242,3,c	;volatile
  1669   001032  EF1D  F008         	goto	i2u284_41
  1670   001036  EF1F  F008         	goto	i2u284_40
  1671   00103A                     i2u284_41:
  1672   00103A  EF38  F008         	goto	i2l3888
  1673   00103E                     i2u284_40:
  1674   00103E  A0F2               	btfss	242,0,c	;volatile
  1675   001040  EF24  F008         	goto	i2u285_41
  1676   001044  EF26  F008         	goto	i2u285_40
  1677   001048                     i2u285_41:
  1678   001048  EF38  F008         	goto	i2l3888
  1679   00104C                     i2u285_40:
  1680   00104C                     
  1681                           ;MCAL_layer/Interrupt/interrupt_manager.c: 56:     {;MCAL_layer/Interrupt/interrupt_mana
      +                          ger.c: 57:         if(PORTBbits.RB5 == GPIO_HIGH)
  1682   00104C  AA81               	btfss	129,5,c	;volatile
  1683   00104E  EF2B  F008         	goto	i2u286_41
  1684   001052  EF2D  F008         	goto	i2u286_40
  1685   001056                     i2u286_41:
  1686   001056  EF2F  F008         	goto	i2l3884
  1687   00105A                     i2u286_40:
  1688   00105A                     
  1689                           ;MCAL_layer/Interrupt/interrupt_manager.c: 58:         RB5_ISR();
  1690   00105A  EC62  F00B         	call	_RB5_ISR	;wreg free
  1691   00105E                     i2l3884:
  1692                           
  1693                           ;MCAL_layer/Interrupt/interrupt_manager.c: 59:         if(PORTBbits.RB5 == GPIO_LOW)
  1694   00105E  BA81               	btfsc	129,5,c	;volatile
  1695   001060  EF34  F008         	goto	i2u287_41
  1696   001064  EF36  F008         	goto	i2u287_40
  1697   001068                     i2u287_41:
  1698   001068  EF38  F008         	goto	i2l3888
  1699   00106C                     i2u287_40:
  1700   00106C                     
  1701                           ;MCAL_layer/Interrupt/interrupt_manager.c: 60:         RB5_ISR();
  1702   00106C  EC62  F00B         	call	_RB5_ISR	;wreg free
  1703   001070                     i2l3888:
  1704                           
  1705                           ;MCAL_layer/Interrupt/interrupt_manager.c: 63:     if((1 == INTCONbits.RBIE) && (1 == IN
      +                          TCONbits.RBIF ))
  1706   001070  A6F2               	btfss	242,3,c	;volatile
  1707   001072  EF3D  F008         	goto	i2u288_41
  1708   001076  EF3F  F008         	goto	i2u288_40
  1709   00107A                     i2u288_41:
  1710   00107A  EF58  F008         	goto	i2l3900
  1711   00107E                     i2u288_40:
  1712   00107E  A0F2               	btfss	242,0,c	;volatile
  1713   001080  EF44  F008         	goto	i2u289_41
  1714   001084  EF46  F008         	goto	i2u289_40
  1715   001088                     i2u289_41:
  1716   001088  EF58  F008         	goto	i2l3900
  1717   00108C                     i2u289_40:
  1718   00108C                     
  1719                           ;MCAL_layer/Interrupt/interrupt_manager.c: 64:     {;MCAL_layer/Interrupt/interrupt_mana
      +                          ger.c: 65:         if(PORTBbits.RB4 == GPIO_HIGH)
  1720   00108C  A881               	btfss	129,4,c	;volatile
  1721   00108E  EF4B  F008         	goto	i2u290_41
  1722   001092  EF4D  F008         	goto	i2u290_40
  1723   001096                     i2u290_41:
  1724   001096  EF4F  F008         	goto	i2l3896
  1725   00109A                     i2u290_40:
  1726   00109A                     
  1727                           ;MCAL_layer/Interrupt/interrupt_manager.c: 66:         RB4_ISR();
  1728   00109A  EC79  F00B         	call	_RB4_ISR	;wreg free
  1729   00109E                     i2l3896:
  1730                           
  1731                           ;MCAL_layer/Interrupt/interrupt_manager.c: 67:         if(PORTBbits.RB4 == GPIO_LOW)
  1732   00109E  B881               	btfsc	129,4,c	;volatile
  1733   0010A0  EF54  F008         	goto	i2u291_41
  1734   0010A4  EF56  F008         	goto	i2u291_40
  1735   0010A8                     i2u291_41:
  1736   0010A8  EF58  F008         	goto	i2l3900
  1737   0010AC                     i2u291_40:
  1738   0010AC                     
  1739                           ;MCAL_layer/Interrupt/interrupt_manager.c: 68:         RB4_ISR();
  1740   0010AC  EC79  F00B         	call	_RB4_ISR	;wreg free
  1741   0010B0                     i2l3900:
  1742                           
  1743                           ;MCAL_layer/Interrupt/interrupt_manager.c: 72:     if((1 == INTCONbits.RBIE) && (1 == IN
      +                          TCONbits.RBIF ))
  1744   0010B0  A6F2               	btfss	242,3,c	;volatile
  1745   0010B2  EF5D  F008         	goto	i2u292_41
  1746   0010B6  EF5F  F008         	goto	i2u292_40
  1747   0010BA                     i2u292_41:
  1748   0010BA  EF78  F008         	goto	i2l3912
  1749   0010BE                     i2u292_40:
  1750   0010BE  A0F2               	btfss	242,0,c	;volatile
  1751   0010C0  EF64  F008         	goto	i2u293_41
  1752   0010C4  EF66  F008         	goto	i2u293_40
  1753   0010C8                     i2u293_41:
  1754   0010C8  EF78  F008         	goto	i2l3912
  1755   0010CC                     i2u293_40:
  1756   0010CC                     
  1757                           ;MCAL_layer/Interrupt/interrupt_manager.c: 73:     {;MCAL_layer/Interrupt/interrupt_mana
      +                          ger.c: 74:         if(PORTBbits.RB6 == GPIO_HIGH)
  1758   0010CC  AC81               	btfss	129,6,c	;volatile
  1759   0010CE  EF6B  F008         	goto	i2u294_41
  1760   0010D2  EF6D  F008         	goto	i2u294_40
  1761   0010D6                     i2u294_41:
  1762   0010D6  EF6F  F008         	goto	i2l3908
  1763   0010DA                     i2u294_40:
  1764   0010DA                     
  1765                           ;MCAL_layer/Interrupt/interrupt_manager.c: 75:         RB6_ISR();
  1766   0010DA  EC4B  F00B         	call	_RB6_ISR	;wreg free
  1767   0010DE                     i2l3908:
  1768                           
  1769                           ;MCAL_layer/Interrupt/interrupt_manager.c: 76:         if(PORTBbits.RB6== GPIO_LOW)
  1770   0010DE  BC81               	btfsc	129,6,c	;volatile
  1771   0010E0  EF74  F008         	goto	i2u295_41
  1772   0010E4  EF76  F008         	goto	i2u295_40
  1773   0010E8                     i2u295_41:
  1774   0010E8  EF78  F008         	goto	i2l3912
  1775   0010EC                     i2u295_40:
  1776   0010EC                     
  1777                           ;MCAL_layer/Interrupt/interrupt_manager.c: 77:         RB6_ISR();
  1778   0010EC  EC4B  F00B         	call	_RB6_ISR	;wreg free
  1779   0010F0                     i2l3912:
  1780                           
  1781                           ;MCAL_layer/Interrupt/interrupt_manager.c: 80:     if((1 == INTCONbits.RBIE) && (1 == IN
      +                          TCONbits.RBIF ))
  1782   0010F0  A6F2               	btfss	242,3,c	;volatile
  1783   0010F2  EF7D  F008         	goto	i2u296_41
  1784   0010F6  EF7F  F008         	goto	i2u296_40
  1785   0010FA                     i2u296_41:
  1786   0010FA  EF98  F008         	goto	i2l3924
  1787   0010FE                     i2u296_40:
  1788   0010FE  A0F2               	btfss	242,0,c	;volatile
  1789   001100  EF84  F008         	goto	i2u297_41
  1790   001104  EF86  F008         	goto	i2u297_40
  1791   001108                     i2u297_41:
  1792   001108  EF98  F008         	goto	i2l3924
  1793   00110C                     i2u297_40:
  1794   00110C                     
  1795                           ;MCAL_layer/Interrupt/interrupt_manager.c: 81:     {;MCAL_layer/Interrupt/interrupt_mana
      +                          ger.c: 82:         if(PORTBbits.RB7 == GPIO_HIGH)
  1796   00110C  AE81               	btfss	129,7,c	;volatile
  1797   00110E  EF8B  F008         	goto	i2u298_41
  1798   001112  EF8D  F008         	goto	i2u298_40
  1799   001116                     i2u298_41:
  1800   001116  EF8F  F008         	goto	i2l3920
  1801   00111A                     i2u298_40:
  1802   00111A                     
  1803                           ;MCAL_layer/Interrupt/interrupt_manager.c: 83:         RB7_ISR();
  1804   00111A  EC34  F00B         	call	_RB7_ISR	;wreg free
  1805   00111E                     i2l3920:
  1806                           
  1807                           ;MCAL_layer/Interrupt/interrupt_manager.c: 84:         if(PORTBbits.RB7 == GPIO_LOW)
  1808   00111E  BE81               	btfsc	129,7,c	;volatile
  1809   001120  EF94  F008         	goto	i2u299_41
  1810   001124  EF96  F008         	goto	i2u299_40
  1811   001128                     i2u299_41:
  1812   001128  EF98  F008         	goto	i2l3924
  1813   00112C                     i2u299_40:
  1814   00112C                     
  1815                           ;MCAL_layer/Interrupt/interrupt_manager.c: 85:         RB7_ISR();
  1816   00112C  EC34  F00B         	call	_RB7_ISR	;wreg free
  1817   001130                     i2l3924:
  1818                           
  1819                           ;MCAL_layer/Interrupt/interrupt_manager.c: 88:     if((1 == INTCONbits.INT0IE) && (1 == 
      +                          INTCONbits.INT0IF ))
  1820   001130  A8F2               	btfss	242,4,c	;volatile
  1821   001132  EF9D  F008         	goto	i2u300_41
  1822   001136  EF9F  F008         	goto	i2u300_40
  1823   00113A                     i2u300_41:
  1824   00113A  EFA8  F008         	goto	i2l3930
  1825   00113E                     i2u300_40:
  1826   00113E  A2F2               	btfss	242,1,c	;volatile
  1827   001140  EFA4  F008         	goto	i2u301_41
  1828   001144  EFA6  F008         	goto	i2u301_40
  1829   001148                     i2u301_41:
  1830   001148  EFA8  F008         	goto	i2l3930
  1831   00114C                     i2u301_40:
  1832   00114C                     
  1833                           ;MCAL_layer/Interrupt/interrupt_manager.c: 89:     {;MCAL_layer/Interrupt/interrupt_mana
      +                          ger.c: 90:         INT0_ISR();
  1834   00114C  ECF7  F00B         	call	_INT0_ISR	;wreg free
  1835   001150                     i2l3930:
  1836                           
  1837                           ;MCAL_layer/Interrupt/interrupt_manager.c: 93:     if((1 == INTCON3bits.INT1IE) && (1 ==
      +                           INTCON3bits.INT1IF ))
  1838   001150  A6F0               	btfss	240,3,c	;volatile
  1839   001152  EFAD  F008         	goto	i2u302_41
  1840   001156  EFAF  F008         	goto	i2u302_40
  1841   00115A                     i2u302_41:
  1842   00115A  EFB8  F008         	goto	i2l3936
  1843   00115E                     i2u302_40:
  1844   00115E  A0F0               	btfss	240,0,c	;volatile
  1845   001160  EFB4  F008         	goto	i2u303_41
  1846   001164  EFB6  F008         	goto	i2u303_40
  1847   001168                     i2u303_41:
  1848   001168  EFB8  F008         	goto	i2l3936
  1849   00116C                     i2u303_40:
  1850   00116C                     
  1851                           ;MCAL_layer/Interrupt/interrupt_manager.c: 94:     {;MCAL_layer/Interrupt/interrupt_mana
      +                          ger.c: 95:         INT1_ISR();
  1852   00116C  ECF5  F00B         	call	_INT1_ISR	;wreg free
  1853   001170                     i2l3936:
  1854                           
  1855                           ;MCAL_layer/Interrupt/interrupt_manager.c: 98:     if((1 == INTCON3bits.INT2IE) && (1 ==
      +                           INTCON3bits.INT2IF ))
  1856   001170  A8F0               	btfss	240,4,c	;volatile
  1857   001172  EFBD  F008         	goto	i2u304_41
  1858   001176  EFBF  F008         	goto	i2u304_40
  1859   00117A                     i2u304_41:
  1860   00117A  EFC8  F008         	goto	i2l756
  1861   00117E                     i2u304_40:
  1862   00117E  A2F0               	btfss	240,1,c	;volatile
  1863   001180  EFC4  F008         	goto	i2u305_41
  1864   001184  EFC6  F008         	goto	i2u305_40
  1865   001188                     i2u305_41:
  1866   001188  EFC8  F008         	goto	i2l756
  1867   00118C                     i2u305_40:
  1868   00118C                     
  1869                           ;MCAL_layer/Interrupt/interrupt_manager.c: 99:     {;MCAL_layer/Interrupt/interrupt_mana
      +                          ger.c: 100:         INT2_ISR();
  1870   00118C  ECF3  F00B         	call	_INT2_ISR	;wreg free
  1871   001190                     i2l756:
  1872   001190  C05C  FFF4         	movff	??_Interrupt_Manager+5,prodh
  1873   001194  C05B  FFF3         	movff	??_Interrupt_Manager+4,prodl
  1874   001198  C05A  FFDA         	movff	??_Interrupt_Manager+3,fsr2h
  1875   00119C  C059  FFD9         	movff	??_Interrupt_Manager+2,fsr2l
  1876   0011A0  C058  FFFB         	movff	??_Interrupt_Manager+1,pclatu
  1877   0011A4  C057  FFFA         	movff	??_Interrupt_Manager,pclath
  1878   0011A8  9269               	bcf	int$flags,1,c	;clear compiler interrupt flag (level 2)
  1879   0011AA  0011               	retfie		f
  1880   0011AC                     __end_of_Interrupt_Manager:
  1881                           	callstack 0
  1882                           
  1883 ;; *************** function _RB7_ISR *****************
  1884 ;; Defined at:
  1885 ;;		line 764 in file "MCAL_layer/Interrupt/external_interrupt.c"
  1886 ;; Parameters:    Size  Location     Type
  1887 ;;		None
  1888 ;; Auto vars:     Size  Location     Type
  1889 ;;		None
  1890 ;; Return value:  Size  Location     Type
  1891 ;;                  1    wreg      void 
  1892 ;; Registers used:
  1893 ;;		wreg, fsr2l, fsr2h, status,2, status,0, pcl, pclath, pclatu, tosl, prodl, prodh, cstack
  1894 ;; Tracked objects:
  1895 ;;		On entry : 0/0
  1896 ;;		On exit  : 0/0
  1897 ;;		Unchanged: 0/0
  1898 ;; Data sizes:     COMRAM   BANK0   BANK1   BANK2   BANK3   BANK4   BANK5   BANK6   BANK7   BANK8   BANK9  BANK10  BANK1
      +1  BANK12  BANK13  BANK14  BANK15
  1899 ;;      Params:         0       0       0       0       0       0       0       0       0       0       0       0       
      +0       0       0       0       0
  1900 ;;      Locals:         0       0       0       0       0       0       0       0       0       0       0       0       
      +0       0       0       0       0
  1901 ;;      Temps:          0       0       0       0       0       0       0       0       0       0       0       0       
      +0       0       0       0       0
  1902 ;;      Totals:         0       0       0       0       0       0       0       0       0       0       0       0       
      +0       0       0       0       0
  1903 ;;Total ram usage:        0 bytes
  1904 ;; Hardware stack levels used: 1
  1905 ;; Hardware stack levels required when called: 2
  1906 ;; This function calls:
  1907 ;;		NULL
  1908 ;;		_ISR_0
  1909 ;;		_ISR_1
  1910 ;;		_ISR_2
  1911 ;;		_ISR_3
  1912 ;; This function is called by:
  1913 ;;		_Interrupt_Manager
  1914 ;; This function uses a non-reentrant model
  1915 ;;
  1916                           
  1917                           	psect	text12
  1918   001668                     __ptext12:
  1919                           	callstack 0
  1920   001668                     _RB7_ISR:
  1921                           	callstack 23
  1922   001668                     
  1923                           ;MCAL_layer/Interrupt/external_interrupt.c: 767:     (INTCONbits.RBIF = 0);
  1924   001668  90F2               	bcf	242,0,c	;volatile
  1925   00166A                     
  1926                           ;MCAL_layer/Interrupt/external_interrupt.c: 772:     if(RB7_InterruptHandler)
  1927   00166A  5033               	movf	_RB7_InterruptHandler^0,w,c
  1928   00166C  1034               	iorwf	(_RB7_InterruptHandler+1)^0,w,c
  1929   00166E  B4D8               	btfsc	status,2,c
  1930   001670  EF3C  F00B         	goto	i2u212_41
  1931   001674  EF3E  F00B         	goto	i2u212_40
  1932   001678                     i2u212_41:
  1933   001678  EF4A  F00B         	goto	i2l716
  1934   00167C                     i2u212_40:
  1935   00167C                     
  1936                           ;MCAL_layer/Interrupt/external_interrupt.c: 773:     {;MCAL_layer/Interrupt/external_int
      +                          errupt.c: 774:         RB7_InterruptHandler();
  1937   00167C  D802               	call	i2u213_48
  1938   00167E  EF4A  F00B         	goto	i2u213_49
  1939   001682                     i2u213_48:
  1940   001682  0005               	push	
  1941   001684  6EFA               	movwf	pclath,c
  1942   001686  5033               	movf	_RB7_InterruptHandler^0,w,c
  1943   001688  6EFD               	movwf	tosl,c
  1944   00168A  5034               	movf	(_RB7_InterruptHandler+1)^0,w,c
  1945   00168C  6EFE               	movwf	tosh,c
  1946   00168E  6AFF               	clrf	tosu,c
  1947   001690  50FA               	movf	pclath,w,c
  1948   001692  0012               	return		;indir
  1949   001694                     i2u213_49:
  1950   001694                     i2l716:
  1951   001694  0012               	return		;funcret
  1952   001696                     __end_of_RB7_ISR:
  1953                           	callstack 0
  1954                           
  1955 ;; *************** function _RB6_ISR *****************
  1956 ;; Defined at:
  1957 ;;		line 749 in file "MCAL_layer/Interrupt/external_interrupt.c"
  1958 ;; Parameters:    Size  Location     Type
  1959 ;;		None
  1960 ;; Auto vars:     Size  Location     Type
  1961 ;;		None
  1962 ;; Return value:  Size  Location     Type
  1963 ;;                  1    wreg      void 
  1964 ;; Registers used:
  1965 ;;		wreg, fsr2l, fsr2h, status,2, status,0, pcl, pclath, pclatu, tosl, prodl, prodh, cstack
  1966 ;; Tracked objects:
  1967 ;;		On entry : 0/0
  1968 ;;		On exit  : 0/0
  1969 ;;		Unchanged: 0/0
  1970 ;; Data sizes:     COMRAM   BANK0   BANK1   BANK2   BANK3   BANK4   BANK5   BANK6   BANK7   BANK8   BANK9  BANK10  BANK1
      +1  BANK12  BANK13  BANK14  BANK15
  1971 ;;      Params:         0       0       0       0       0       0       0       0       0       0       0       0       
      +0       0       0       0       0
  1972 ;;      Locals:         0       0       0       0       0       0       0       0       0       0       0       0       
      +0       0       0       0       0
  1973 ;;      Temps:          0       0       0       0       0       0       0       0       0       0       0       0       
      +0       0       0       0       0
  1974 ;;      Totals:         0       0       0       0       0       0       0       0       0       0       0       0       
      +0       0       0       0       0
  1975 ;;Total ram usage:        0 bytes
  1976 ;; Hardware stack levels used: 1
  1977 ;; Hardware stack levels required when called: 2
  1978 ;; This function calls:
  1979 ;;		NULL
  1980 ;;		_ISR_0
  1981 ;;		_ISR_1
  1982 ;;		_ISR_2
  1983 ;;		_ISR_3
  1984 ;; This function is called by:
  1985 ;;		_Interrupt_Manager
  1986 ;; This function uses a non-reentrant model
  1987 ;;
  1988                           
  1989                           	psect	text13
  1990   001696                     __ptext13:
  1991                           	callstack 0
  1992   001696                     _RB6_ISR:
  1993                           	callstack 23
  1994   001696                     
  1995                           ;MCAL_layer/Interrupt/external_interrupt.c: 752:     (INTCONbits.RBIF = 0);
  1996   001696  90F2               	bcf	242,0,c	;volatile
  1997   001698                     
  1998                           ;MCAL_layer/Interrupt/external_interrupt.c: 757:     if(RB6_InterruptHandler)
  1999   001698  5035               	movf	_RB6_InterruptHandler^0,w,c
  2000   00169A  1036               	iorwf	(_RB6_InterruptHandler+1)^0,w,c
  2001   00169C  B4D8               	btfsc	status,2,c
  2002   00169E  EF53  F00B         	goto	i2u210_41
  2003   0016A2  EF55  F00B         	goto	i2u210_40
  2004   0016A6                     i2u210_41:
  2005   0016A6  EF61  F00B         	goto	i2l712
  2006   0016AA                     i2u210_40:
  2007   0016AA                     
  2008                           ;MCAL_layer/Interrupt/external_interrupt.c: 758:     {;MCAL_layer/Interrupt/external_int
      +                          errupt.c: 759:         RB6_InterruptHandler();
  2009   0016AA  D802               	call	i2u211_48
  2010   0016AC  EF61  F00B         	goto	i2u211_49
  2011   0016B0                     i2u211_48:
  2012   0016B0  0005               	push	
  2013   0016B2  6EFA               	movwf	pclath,c
  2014   0016B4  5035               	movf	_RB6_InterruptHandler^0,w,c
  2015   0016B6  6EFD               	movwf	tosl,c
  2016   0016B8  5036               	movf	(_RB6_InterruptHandler+1)^0,w,c
  2017   0016BA  6EFE               	movwf	tosh,c
  2018   0016BC  6AFF               	clrf	tosu,c
  2019   0016BE  50FA               	movf	pclath,w,c
  2020   0016C0  0012               	return		;indir
  2021   0016C2                     i2u211_49:
  2022   0016C2                     i2l712:
  2023   0016C2  0012               	return		;funcret
  2024   0016C4                     __end_of_RB6_ISR:
  2025                           	callstack 0
  2026                           
  2027 ;; *************** function _RB5_ISR *****************
  2028 ;; Defined at:
  2029 ;;		line 734 in file "MCAL_layer/Interrupt/external_interrupt.c"
  2030 ;; Parameters:    Size  Location     Type
  2031 ;;		None
  2032 ;; Auto vars:     Size  Location     Type
  2033 ;;		None
  2034 ;; Return value:  Size  Location     Type
  2035 ;;                  1    wreg      void 
  2036 ;; Registers used:
  2037 ;;		wreg, fsr2l, fsr2h, status,2, status,0, pcl, pclath, pclatu, tosl, prodl, prodh, cstack
  2038 ;; Tracked objects:
  2039 ;;		On entry : 0/0
  2040 ;;		On exit  : 0/0
  2041 ;;		Unchanged: 0/0
  2042 ;; Data sizes:     COMRAM   BANK0   BANK1   BANK2   BANK3   BANK4   BANK5   BANK6   BANK7   BANK8   BANK9  BANK10  BANK1
      +1  BANK12  BANK13  BANK14  BANK15
  2043 ;;      Params:         0       0       0       0       0       0       0       0       0       0       0       0       
      +0       0       0       0       0
  2044 ;;      Locals:         0       0       0       0       0       0       0       0       0       0       0       0       
      +0       0       0       0       0
  2045 ;;      Temps:          0       0       0       0       0       0       0       0       0       0       0       0       
      +0       0       0       0       0
  2046 ;;      Totals:         0       0       0       0       0       0       0       0       0       0       0       0       
      +0       0       0       0       0
  2047 ;;Total ram usage:        0 bytes
  2048 ;; Hardware stack levels used: 1
  2049 ;; Hardware stack levels required when called: 2
  2050 ;; This function calls:
  2051 ;;		NULL
  2052 ;;		_ISR_0
  2053 ;;		_ISR_1
  2054 ;;		_ISR_2
  2055 ;;		_ISR_3
  2056 ;; This function is called by:
  2057 ;;		_Interrupt_Manager
  2058 ;; This function uses a non-reentrant model
  2059 ;;
  2060                           
  2061                           	psect	text14
  2062   0016C4                     __ptext14:
  2063                           	callstack 0
  2064   0016C4                     _RB5_ISR:
  2065                           	callstack 23
  2066   0016C4                     
  2067                           ;MCAL_layer/Interrupt/external_interrupt.c: 737:     (INTCONbits.RBIF = 0);
  2068   0016C4  90F2               	bcf	242,0,c	;volatile
  2069   0016C6                     
  2070                           ;MCAL_layer/Interrupt/external_interrupt.c: 742:     if(RB5_InterruptHandler)
  2071   0016C6  5037               	movf	_RB5_InterruptHandler^0,w,c
  2072   0016C8  1038               	iorwf	(_RB5_InterruptHandler+1)^0,w,c
  2073   0016CA  B4D8               	btfsc	status,2,c
  2074   0016CC  EF6A  F00B         	goto	i2u208_41
  2075   0016D0  EF6C  F00B         	goto	i2u208_40
  2076   0016D4                     i2u208_41:
  2077   0016D4  EF78  F00B         	goto	i2l708
  2078   0016D8                     i2u208_40:
  2079   0016D8                     
  2080                           ;MCAL_layer/Interrupt/external_interrupt.c: 743:     {;MCAL_layer/Interrupt/external_int
      +                          errupt.c: 744:         RB5_InterruptHandler();
  2081   0016D8  D802               	call	i2u209_48
  2082   0016DA  EF78  F00B         	goto	i2u209_49
  2083   0016DE                     i2u209_48:
  2084   0016DE  0005               	push	
  2085   0016E0  6EFA               	movwf	pclath,c
  2086   0016E2  5037               	movf	_RB5_InterruptHandler^0,w,c
  2087   0016E4  6EFD               	movwf	tosl,c
  2088   0016E6  5038               	movf	(_RB5_InterruptHandler+1)^0,w,c
  2089   0016E8  6EFE               	movwf	tosh,c
  2090   0016EA  6AFF               	clrf	tosu,c
  2091   0016EC  50FA               	movf	pclath,w,c
  2092   0016EE  0012               	return		;indir
  2093   0016F0                     i2u209_49:
  2094   0016F0                     i2l708:
  2095   0016F0  0012               	return		;funcret
  2096   0016F2                     __end_of_RB5_ISR:
  2097                           	callstack 0
  2098                           
  2099 ;; *************** function _RB4_ISR *****************
  2100 ;; Defined at:
  2101 ;;		line 720 in file "MCAL_layer/Interrupt/external_interrupt.c"
  2102 ;; Parameters:    Size  Location     Type
  2103 ;;		None
  2104 ;; Auto vars:     Size  Location     Type
  2105 ;;		None
  2106 ;; Return value:  Size  Location     Type
  2107 ;;                  1    wreg      void 
  2108 ;; Registers used:
  2109 ;;		wreg, fsr2l, fsr2h, status,2, status,0, pcl, pclath, pclatu, tosl, prodl, prodh, cstack
  2110 ;; Tracked objects:
  2111 ;;		On entry : 0/0
  2112 ;;		On exit  : 0/0
  2113 ;;		Unchanged: 0/0
  2114 ;; Data sizes:     COMRAM   BANK0   BANK1   BANK2   BANK3   BANK4   BANK5   BANK6   BANK7   BANK8   BANK9  BANK10  BANK1
      +1  BANK12  BANK13  BANK14  BANK15
  2115 ;;      Params:         0       0       0       0       0       0       0       0       0       0       0       0       
      +0       0       0       0       0
  2116 ;;      Locals:         0       0       0       0       0       0       0       0       0       0       0       0       
      +0       0       0       0       0
  2117 ;;      Temps:          0       0       0       0       0       0       0       0       0       0       0       0       
      +0       0       0       0       0
  2118 ;;      Totals:         0       0       0       0       0       0       0       0       0       0       0       0       
      +0       0       0       0       0
  2119 ;;Total ram usage:        0 bytes
  2120 ;; Hardware stack levels used: 1
  2121 ;; Hardware stack levels required when called: 2
  2122 ;; This function calls:
  2123 ;;		NULL
  2124 ;;		_ISR_0
  2125 ;;		_ISR_1
  2126 ;;		_ISR_2
  2127 ;;		_ISR_3
  2128 ;; This function is called by:
  2129 ;;		_Interrupt_Manager
  2130 ;; This function uses a non-reentrant model
  2131 ;;
  2132                           
  2133                           	psect	text15
  2134   0016F2                     __ptext15:
  2135                           	callstack 0
  2136   0016F2                     _RB4_ISR:
  2137                           	callstack 23
  2138   0016F2                     
  2139                           ;MCAL_layer/Interrupt/external_interrupt.c: 723:     (INTCONbits.RBIF = 0);
  2140   0016F2  90F2               	bcf	242,0,c	;volatile
  2141   0016F4                     
  2142                           ;MCAL_layer/Interrupt/external_interrupt.c: 728:     if(RB4_InterruptHandler)
  2143   0016F4  5039               	movf	_RB4_InterruptHandler^0,w,c
  2144   0016F6  103A               	iorwf	(_RB4_InterruptHandler+1)^0,w,c
  2145   0016F8  B4D8               	btfsc	status,2,c
  2146   0016FA  EF81  F00B         	goto	i2u206_41
  2147   0016FE  EF83  F00B         	goto	i2u206_40
  2148   001702                     i2u206_41:
  2149   001702  EF8F  F00B         	goto	i2l704
  2150   001706                     i2u206_40:
  2151   001706                     
  2152                           ;MCAL_layer/Interrupt/external_interrupt.c: 729:     {;MCAL_layer/Interrupt/external_int
      +                          errupt.c: 730:         RB4_InterruptHandler();
  2153   001706  D802               	call	i2u207_48
  2154   001708  EF8F  F00B         	goto	i2u207_49
  2155   00170C                     i2u207_48:
  2156   00170C  0005               	push	
  2157   00170E  6EFA               	movwf	pclath,c
  2158   001710  5039               	movf	_RB4_InterruptHandler^0,w,c
  2159   001712  6EFD               	movwf	tosl,c
  2160   001714  503A               	movf	(_RB4_InterruptHandler+1)^0,w,c
  2161   001716  6EFE               	movwf	tosh,c
  2162   001718  6AFF               	clrf	tosu,c
  2163   00171A  50FA               	movf	pclath,w,c
  2164   00171C  0012               	return		;indir
  2165   00171E                     i2u207_49:
  2166   00171E                     i2l704:
  2167   00171E  0012               	return		;funcret
  2168   001720                     __end_of_RB4_ISR:
  2169                           	callstack 0
  2170                           
  2171 ;; *************** function _ISR_2 *****************
  2172 ;; Defined at:
  2173 ;;		line 101 in file "application.c"
  2174 ;; Parameters:    Size  Location     Type
  2175 ;;		None
  2176 ;; Auto vars:     Size  Location     Type
  2177 ;;		None
  2178 ;; Return value:  Size  Location     Type
  2179 ;;                  1    wreg      void 
  2180 ;; Registers used:
  2181 ;;		wreg, fsr2l, fsr2h, status,2, status,0, prodl, prodh, cstack
  2182 ;; Tracked objects:
  2183 ;;		On entry : 0/0
  2184 ;;		On exit  : 0/0
  2185 ;;		Unchanged: 0/0
  2186 ;; Data sizes:     COMRAM   BANK0   BANK1   BANK2   BANK3   BANK4   BANK5   BANK6   BANK7   BANK8   BANK9  BANK10  BANK1
      +1  BANK12  BANK13  BANK14  BANK15
  2187 ;;      Params:         0       0       0       0       0       0       0       0       0       0       0       0       
      +0       0       0       0       0
  2188 ;;      Locals:         0       0       0       0       0       0       0       0       0       0       0       0       
      +0       0       0       0       0
  2189 ;;      Temps:          0       0       0       0       0       0       0       0       0       0       0       0       
      +0       0       0       0       0
  2190 ;;      Totals:         0       0       0       0       0       0       0       0       0       0       0       0       
      +0       0       0       0       0
  2191 ;;Total ram usage:        0 bytes
  2192 ;; Hardware stack levels used: 1
  2193 ;; Hardware stack levels required when called: 1
  2194 ;; This function calls:
  2195 ;;		_gpio_pin_toggle_logic
  2196 ;; This function is called by:
  2197 ;;		_RB4_ISR
  2198 ;;		_RB5_ISR
  2199 ;;		_RB6_ISR
  2200 ;;		_RB7_ISR
  2201 ;; This function uses a non-reentrant model
  2202 ;;
  2203                           
  2204                           	psect	text16
  2205   0017B6                     __ptext16:
  2206                           	callstack 0
  2207   0017B6                     _ISR_2:
  2208                           	callstack 23
  2209   0017B6                     
  2210                           ;application.c: 103:     ret = gpio_pin_toggle_logic(&led3);
  2211   0017B6  0E30               	movlw	low _led3
  2212   0017B8  6E51               	movwf	gpio_pin_toggle_logic@_pin_config^0,c
  2213   0017BA  EC3C  F00A         	call	_gpio_pin_toggle_logic	;wreg free
  2214   0017BE  6E68               	movwf	_ret^0,c
  2215   0017C0  0012               	return		;funcret
  2216   0017C2                     __end_of_ISR_2:
  2217                           	callstack 0
  2218                           
  2219 ;; *************** function _ISR_1 *****************
  2220 ;; Defined at:
  2221 ;;		line 95 in file "application.c"
  2222 ;; Parameters:    Size  Location     Type
  2223 ;;		None
  2224 ;; Auto vars:     Size  Location     Type
  2225 ;;		None
  2226 ;; Return value:  Size  Location     Type
  2227 ;;                  1    wreg      void 
  2228 ;; Registers used:
  2229 ;;		wreg, fsr2l, fsr2h, status,2, status,0, prodl, prodh, cstack
  2230 ;; Tracked objects:
  2231 ;;		On entry : 0/0
  2232 ;;		On exit  : 0/0
  2233 ;;		Unchanged: 0/0
  2234 ;; Data sizes:     COMRAM   BANK0   BANK1   BANK2   BANK3   BANK4   BANK5   BANK6   BANK7   BANK8   BANK9  BANK10  BANK1
      +1  BANK12  BANK13  BANK14  BANK15
  2235 ;;      Params:         0       0       0       0       0       0       0       0       0       0       0       0       
      +0       0       0       0       0
  2236 ;;      Locals:         0       0       0       0       0       0       0       0       0       0       0       0       
      +0       0       0       0       0
  2237 ;;      Temps:          0       0       0       0       0       0       0       0       0       0       0       0       
      +0       0       0       0       0
  2238 ;;      Totals:         0       0       0       0       0       0       0       0       0       0       0       0       
      +0       0       0       0       0
  2239 ;;Total ram usage:        0 bytes
  2240 ;; Hardware stack levels used: 1
  2241 ;; Hardware stack levels required when called: 1
  2242 ;; This function calls:
  2243 ;;		_gpio_pin_toggle_logic
  2244 ;; This function is called by:
  2245 ;;		_RB4_ISR
  2246 ;;		_RB5_ISR
  2247 ;;		_RB6_ISR
  2248 ;;		_RB7_ISR
  2249 ;; This function uses a non-reentrant model
  2250 ;;
  2251                           
  2252                           	psect	text17
  2253   0017C2                     __ptext17:
  2254                           	callstack 0
  2255   0017C2                     _ISR_1:
  2256                           	callstack 23
  2257   0017C2                     
  2258                           ;application.c: 97:     ret = gpio_pin_toggle_logic(&led2);
  2259   0017C2  0E31               	movlw	low _led2
  2260   0017C4  6E51               	movwf	gpio_pin_toggle_logic@_pin_config^0,c
  2261   0017C6  EC3C  F00A         	call	_gpio_pin_toggle_logic	;wreg free
  2262   0017CA  6E68               	movwf	_ret^0,c
  2263   0017CC  0012               	return		;funcret
  2264   0017CE                     __end_of_ISR_1:
  2265                           	callstack 0
  2266                           
  2267 ;; *************** function _ISR_0 *****************
  2268 ;; Defined at:
  2269 ;;		line 89 in file "application.c"
  2270 ;; Parameters:    Size  Location     Type
  2271 ;;		None
  2272 ;; Auto vars:     Size  Location     Type
  2273 ;;		None
  2274 ;; Return value:  Size  Location     Type
  2275 ;;                  1    wreg      void 
  2276 ;; Registers used:
  2277 ;;		wreg, fsr2l, fsr2h, status,2, status,0, prodl, prodh, cstack
  2278 ;; Tracked objects:
  2279 ;;		On entry : 0/0
  2280 ;;		On exit  : 0/0
  2281 ;;		Unchanged: 0/0
  2282 ;; Data sizes:     COMRAM   BANK0   BANK1   BANK2   BANK3   BANK4   BANK5   BANK6   BANK7   BANK8   BANK9  BANK10  BANK1
      +1  BANK12  BANK13  BANK14  BANK15
  2283 ;;      Params:         0       0       0       0       0       0       0       0       0       0       0       0       
      +0       0       0       0       0
  2284 ;;      Locals:         0       0       0       0       0       0       0       0       0       0       0       0       
      +0       0       0       0       0
  2285 ;;      Temps:          0       0       0       0       0       0       0       0       0       0       0       0       
      +0       0       0       0       0
  2286 ;;      Totals:         0       0       0       0       0       0       0       0       0       0       0       0       
      +0       0       0       0       0
  2287 ;;Total ram usage:        0 bytes
  2288 ;; Hardware stack levels used: 1
  2289 ;; Hardware stack levels required when called: 1
  2290 ;; This function calls:
  2291 ;;		_gpio_pin_toggle_logic
  2292 ;; This function is called by:
  2293 ;;		_RB4_ISR
  2294 ;;		_RB5_ISR
  2295 ;;		_RB6_ISR
  2296 ;;		_RB7_ISR
  2297 ;; This function uses a non-reentrant model
  2298 ;;
  2299                           
  2300                           	psect	text18
  2301   0017CE                     __ptext18:
  2302                           	callstack 0
  2303   0017CE                     _ISR_0:
  2304                           	callstack 23
  2305   0017CE                     
  2306                           ;application.c: 91:     ret = gpio_pin_toggle_logic(&led1);
  2307   0017CE  0E32               	movlw	low _led1
  2308   0017D0  6E51               	movwf	gpio_pin_toggle_logic@_pin_config^0,c
  2309   0017D2  EC3C  F00A         	call	_gpio_pin_toggle_logic	;wreg free
  2310   0017D6  6E68               	movwf	_ret^0,c
  2311   0017D8  0012               	return		;funcret
  2312   0017DA                     __end_of_ISR_0:
  2313                           	callstack 0
  2314                           
  2315 ;; *************** function _ISR_3 *****************
  2316 ;; Defined at:
  2317 ;;		line 106 in file "application.c"
  2318 ;; Parameters:    Size  Location     Type
  2319 ;;		None
  2320 ;; Auto vars:     Size  Location     Type
  2321 ;;		None
  2322 ;; Return value:  Size  Location     Type
  2323 ;;                  1    wreg      void 
  2324 ;; Registers used:
  2325 ;;		wreg, fsr2l, fsr2h, status,2, status,0, prodl, prodh, cstack
  2326 ;; Tracked objects:
  2327 ;;		On entry : 0/0
  2328 ;;		On exit  : 0/0
  2329 ;;		Unchanged: 0/0
  2330 ;; Data sizes:     COMRAM   BANK0   BANK1   BANK2   BANK3   BANK4   BANK5   BANK6   BANK7   BANK8   BANK9  BANK10  BANK1
      +1  BANK12  BANK13  BANK14  BANK15
  2331 ;;      Params:         0       0       0       0       0       0       0       0       0       0       0       0       
      +0       0       0       0       0
  2332 ;;      Locals:         0       0       0       0       0       0       0       0       0       0       0       0       
      +0       0       0       0       0
  2333 ;;      Temps:          0       0       0       0       0       0       0       0       0       0       0       0       
      +0       0       0       0       0
  2334 ;;      Totals:         0       0       0       0       0       0       0       0       0       0       0       0       
      +0       0       0       0       0
  2335 ;;Total ram usage:        0 bytes
  2336 ;; Hardware stack levels used: 1
  2337 ;; Hardware stack levels required when called: 1
  2338 ;; This function calls:
  2339 ;;		_gpio_pin_toggle_logic
  2340 ;; This function is called by:
  2341 ;;		_RB4_ISR
  2342 ;;		_RB5_ISR
  2343 ;;		_RB6_ISR
  2344 ;;		_RB7_ISR
  2345 ;; This function uses a non-reentrant model
  2346 ;;
  2347                           
  2348                           	psect	text19
  2349   0017DA                     __ptext19:
  2350                           	callstack 0
  2351   0017DA                     _ISR_3:
  2352                           	callstack 23
  2353   0017DA                     
  2354                           ;application.c: 108:     ret = gpio_pin_toggle_logic(&led4);
  2355   0017DA  0E2F               	movlw	low _led4
  2356   0017DC  6E51               	movwf	gpio_pin_toggle_logic@_pin_config^0,c
  2357   0017DE  EC3C  F00A         	call	_gpio_pin_toggle_logic	;wreg free
  2358   0017E2  6E68               	movwf	_ret^0,c
  2359   0017E4  0012               	return		;funcret
  2360   0017E6                     __end_of_ISR_3:
  2361                           	callstack 0
  2362                           
  2363 ;; *************** function _gpio_pin_toggle_logic *****************
  2364 ;; Defined at:
  2365 ;;		line 131 in file "MCAL_layer/GPIO/gpio.c"
  2366 ;; Parameters:    Size  Location     Type
  2367 ;;  _pin_config     1    0[COMRAM] PTR const struct .
  2368 ;;		 -> led4(1), led3(1), led2(1), led1(1), 
  2369 ;;		 -> ecu_relay_toggle@relay_init(1), ecu_led_toggle@_pin_config(1), 
  2370 ;; Auto vars:     Size  Location     Type
  2371 ;;  ret             1    5[COMRAM] unsigned char 
  2372 ;; Return value:  Size  Location     Type
  2373 ;;                  1    wreg      unsigned char 
  2374 ;; Registers used:
  2375 ;;		wreg, fsr2l, fsr2h, status,2, status,0, prodl, prodh
  2376 ;; Tracked objects:
  2377 ;;		On entry : 0/0
  2378 ;;		On exit  : 0/0
  2379 ;;		Unchanged: 0/0
  2380 ;; Data sizes:     COMRAM   BANK0   BANK1   BANK2   BANK3   BANK4   BANK5   BANK6   BANK7   BANK8   BANK9  BANK10  BANK1
      +1  BANK12  BANK13  BANK14  BANK15
  2381 ;;      Params:         1       0       0       0       0       0       0       0       0       0       0       0       
      +0       0       0       0       0
  2382 ;;      Locals:         1       0       0       0       0       0       0       0       0       0       0       0       
      +0       0       0       0       0
  2383 ;;      Temps:          4       0       0       0       0       0       0       0       0       0       0       0       
      +0       0       0       0       0
  2384 ;;      Totals:         6       0       0       0       0       0       0       0       0       0       0       0       
      +0       0       0       0       0
  2385 ;;Total ram usage:        6 bytes
  2386 ;; Hardware stack levels used: 1
  2387 ;; This function calls:
  2388 ;;		Nothing
  2389 ;; This function is called by:
  2390 ;;		_ISR_0
  2391 ;;		_ISR_1
  2392 ;;		_ISR_2
  2393 ;;		_ISR_3
  2394 ;;		_ecu_led_toggle
  2395 ;;		_ecu_relay_toggle
  2396 ;; This function uses a non-reentrant model
  2397 ;;
  2398                           
  2399                           	psect	text20
  2400   001478                     __ptext20:
  2401                           	callstack 0
  2402   001478                     _gpio_pin_toggle_logic:
  2403                           	callstack 23
  2404   001478                     
  2405                           ;MCAL_layer/GPIO/gpio.c: 131: STD_ReturnType gpio_pin_toggle_logic(const pin_config *_pi
      +                          n_config);MCAL_layer/GPIO/gpio.c: 132: {;MCAL_layer/GPIO/gpio.c: 133:     STD_ReturnType
      +                           ret = (STD_ReturnType)0x01;
  2406   001478  0E01               	movlw	1
  2407   00147A  6E56               	movwf	gpio_pin_toggle_logic@ret^0,c
  2408                           
  2409                           ;MCAL_layer/GPIO/gpio.c: 134:     if(((void*)0) == _pin_config || _pin_config->pin > 8 -
      +                          1)
  2410   00147C  5051               	movf	gpio_pin_toggle_logic@_pin_config^0,w,c
  2411   00147E  B4D8               	btfsc	status,2,c
  2412   001480  EF44  F00A         	goto	i2u180_41
  2413   001484  EF46  F00A         	goto	i2u180_40
  2414   001488                     i2u180_41:
  2415   001488  EF56  F00A         	goto	i2l2948
  2416   00148C                     i2u180_40:
  2417   00148C  5051               	movf	gpio_pin_toggle_logic@_pin_config^0,w,c
  2418   00148E  6ED9               	movwf	fsr2l,c
  2419   001490  6ADA               	clrf	fsr2h,c
  2420   001492  30DF               	rrcf	223,w,c
  2421   001494  32E8               	rrcf	wreg,f,c
  2422   001496  32E8               	rrcf	wreg,f,c
  2423   001498  0B07               	andlw	7
  2424   00149A  6E52               	movwf	??_gpio_pin_toggle_logic^0,c
  2425   00149C  0E07               	movlw	7
  2426   00149E  6452               	cpfsgt	??_gpio_pin_toggle_logic^0,c
  2427   0014A0  EF54  F00A         	goto	i2u181_41
  2428   0014A4  EF56  F00A         	goto	i2u181_40
  2429   0014A8                     i2u181_41:
  2430   0014A8  EF5A  F00A         	goto	i2l2950
  2431   0014AC                     i2u181_40:
  2432   0014AC                     i2l2948:
  2433                           
  2434                           ;MCAL_layer/GPIO/gpio.c: 135:     {;MCAL_layer/GPIO/gpio.c: 136:         ret = (STD_Retu
      +                          rnType)0x00;
  2435   0014AC  0E00               	movlw	0
  2436   0014AE  6E56               	movwf	gpio_pin_toggle_logic@ret^0,c
  2437                           
  2438                           ;MCAL_layer/GPIO/gpio.c: 137:     }
  2439   0014B0  EF80  F00A         	goto	i2l2952
  2440   0014B4                     i2l2950:
  2441                           
  2442                           ;MCAL_layer/GPIO/gpio.c: 139:     {;MCAL_layer/GPIO/gpio.c: 140:         (*port_register
      +                          s[_pin_config->port] ^= ((uint8)1 << _pin_config->pin));
  2443   0014B4  5051               	movf	gpio_pin_toggle_logic@_pin_config^0,w,c
  2444   0014B6  6ED9               	movwf	fsr2l,c
  2445   0014B8  6ADA               	clrf	fsr2h,c
  2446   0014BA  30DF               	rrcf	223,w,c
  2447   0014BC  32E8               	rrcf	wreg,f,c
  2448   0014BE  32E8               	rrcf	wreg,f,c
  2449   0014C0  0B07               	andlw	7
  2450   0014C2  6E52               	movwf	??_gpio_pin_toggle_logic^0,c
  2451   0014C4  0E01               	movlw	1
  2452   0014C6  6E53               	movwf	(??_gpio_pin_toggle_logic+1)^0,c
  2453   0014C8  2A52               	incf	??_gpio_pin_toggle_logic^0,f,c
  2454   0014CA  EF69  F00A         	goto	i2u182_44
  2455   0014CE                     i2u182_45:
  2456   0014CE  90D8               	bcf	status,0,c
  2457   0014D0  3653               	rlcf	(??_gpio_pin_toggle_logic+1)^0,f,c
  2458   0014D2                     i2u182_44:
  2459   0014D2  2E52               	decfsz	??_gpio_pin_toggle_logic^0,f,c
  2460   0014D4  EF67  F00A         	goto	i2u182_45
  2461   0014D8  5051               	movf	gpio_pin_toggle_logic@_pin_config^0,w,c
  2462   0014DA  6ED9               	movwf	fsr2l,c
  2463   0014DC  6ADA               	clrf	fsr2h,c
  2464   0014DE  50DF               	movf	223,w,c
  2465   0014E0  0B07               	andlw	7
  2466   0014E2  0D02               	mullw	2
  2467   0014E4  50F3               	movf	243,w,c
  2468   0014E6  0F01               	addlw	low _port_registers
  2469   0014E8  6ED9               	movwf	fsr2l,c
  2470   0014EA  6ADA               	clrf	fsr2h,c
  2471   0014EC  CFDE F054          	movff	postinc2,??_gpio_pin_toggle_logic+2
  2472   0014F0  CFDD F055          	movff	postdec2,??_gpio_pin_toggle_logic+3
  2473   0014F4  C054  FFD9         	movff	??_gpio_pin_toggle_logic+2,fsr2l
  2474   0014F8  C055  FFDA         	movff	??_gpio_pin_toggle_logic+3,fsr2h
  2475   0014FC  5053               	movf	(??_gpio_pin_toggle_logic+1)^0,w,c
  2476   0014FE  1ADF               	xorwf	indf2,f,c
  2477   001500                     i2l2952:
  2478                           
  2479                           ;MCAL_layer/GPIO/gpio.c: 143:     return ret;
  2480   001500  5056               	movf	gpio_pin_toggle_logic@ret^0,w,c
  2481   001502  0012               	return		;funcret
  2482   001504                     __end_of_gpio_pin_toggle_logic:
  2483                           	callstack 0
  2484                           
  2485 ;; *************** function _INT2_ISR *****************
  2486 ;; Defined at:
  2487 ;;		line 706 in file "MCAL_layer/Interrupt/external_interrupt.c"
  2488 ;; Parameters:    Size  Location     Type
  2489 ;;		None
  2490 ;; Auto vars:     Size  Location     Type
  2491 ;;		None
  2492 ;; Return value:  Size  Location     Type
  2493 ;;                  1    wreg      void 
  2494 ;; Registers used:
  2495 ;;		None
  2496 ;; Tracked objects:
  2497 ;;		On entry : 0/0
  2498 ;;		On exit  : 0/0
  2499 ;;		Unchanged: 0/0
  2500 ;; Data sizes:     COMRAM   BANK0   BANK1   BANK2   BANK3   BANK4   BANK5   BANK6   BANK7   BANK8   BANK9  BANK10  BANK1
      +1  BANK12  BANK13  BANK14  BANK15
  2501 ;;      Params:         0       0       0       0       0       0       0       0       0       0       0       0       
      +0       0       0       0       0
  2502 ;;      Locals:         0       0       0       0       0       0       0       0       0       0       0       0       
      +0       0       0       0       0
  2503 ;;      Temps:          0       0       0       0       0       0       0       0       0       0       0       0       
      +0       0       0       0       0
  2504 ;;      Totals:         0       0       0       0       0       0       0       0       0       0       0       0       
      +0       0       0       0       0
  2505 ;;Total ram usage:        0 bytes
  2506 ;; Hardware stack levels used: 1
  2507 ;; This function calls:
  2508 ;;		Nothing
  2509 ;; This function is called by:
  2510 ;;		_Interrupt_Manager
  2511 ;; This function uses a non-reentrant model
  2512 ;;
  2513                           
  2514                           	psect	text21
  2515   0017E6                     __ptext21:
  2516                           	callstack 0
  2517   0017E6                     _INT2_ISR:
  2518                           	callstack 25
  2519   0017E6                     
  2520                           ;MCAL_layer/Interrupt/external_interrupt.c: 709:     (INTCON3bits.INT2IF = 0);
  2521   0017E6  92F0               	bcf	240,1,c	;volatile
  2522   0017E8  0012               	return		;funcret
  2523   0017EA                     __end_of_INT2_ISR:
  2524                           	callstack 0
  2525                           
  2526 ;; *************** function _INT1_ISR *****************
  2527 ;; Defined at:
  2528 ;;		line 692 in file "MCAL_layer/Interrupt/external_interrupt.c"
  2529 ;; Parameters:    Size  Location     Type
  2530 ;;		None
  2531 ;; Auto vars:     Size  Location     Type
  2532 ;;		None
  2533 ;; Return value:  Size  Location     Type
  2534 ;;                  1    wreg      void 
  2535 ;; Registers used:
  2536 ;;		None
  2537 ;; Tracked objects:
  2538 ;;		On entry : 0/0
  2539 ;;		On exit  : 0/0
  2540 ;;		Unchanged: 0/0
  2541 ;; Data sizes:     COMRAM   BANK0   BANK1   BANK2   BANK3   BANK4   BANK5   BANK6   BANK7   BANK8   BANK9  BANK10  BANK1
      +1  BANK12  BANK13  BANK14  BANK15
  2542 ;;      Params:         0       0       0       0       0       0       0       0       0       0       0       0       
      +0       0       0       0       0
  2543 ;;      Locals:         0       0       0       0       0       0       0       0       0       0       0       0       
      +0       0       0       0       0
  2544 ;;      Temps:          0       0       0       0       0       0       0       0       0       0       0       0       
      +0       0       0       0       0
  2545 ;;      Totals:         0       0       0       0       0       0       0       0       0       0       0       0       
      +0       0       0       0       0
  2546 ;;Total ram usage:        0 bytes
  2547 ;; Hardware stack levels used: 1
  2548 ;; This function calls:
  2549 ;;		Nothing
  2550 ;; This function is called by:
  2551 ;;		_Interrupt_Manager
  2552 ;; This function uses a non-reentrant model
  2553 ;;
  2554                           
  2555                           	psect	text22
  2556   0017EA                     __ptext22:
  2557                           	callstack 0
  2558   0017EA                     _INT1_ISR:
  2559                           	callstack 25
  2560   0017EA                     
  2561                           ;MCAL_layer/Interrupt/external_interrupt.c: 695:     (INTCON3bits.INT1IF = 0);
  2562   0017EA  90F0               	bcf	240,0,c	;volatile
  2563   0017EC  0012               	return		;funcret
  2564   0017EE                     __end_of_INT1_ISR:
  2565                           	callstack 0
  2566                           
  2567 ;; *************** function _INT0_ISR *****************
  2568 ;; Defined at:
  2569 ;;		line 678 in file "MCAL_layer/Interrupt/external_interrupt.c"
  2570 ;; Parameters:    Size  Location     Type
  2571 ;;		None
  2572 ;; Auto vars:     Size  Location     Type
  2573 ;;		None
  2574 ;; Return value:  Size  Location     Type
  2575 ;;                  1    wreg      void 
  2576 ;; Registers used:
  2577 ;;		None
  2578 ;; Tracked objects:
  2579 ;;		On entry : 0/0
  2580 ;;		On exit  : 0/0
  2581 ;;		Unchanged: 0/0
  2582 ;; Data sizes:     COMRAM   BANK0   BANK1   BANK2   BANK3   BANK4   BANK5   BANK6   BANK7   BANK8   BANK9  BANK10  BANK1
      +1  BANK12  BANK13  BANK14  BANK15
  2583 ;;      Params:         0       0       0       0       0       0       0       0       0       0       0       0       
      +0       0       0       0       0
  2584 ;;      Locals:         0       0       0       0       0       0       0       0       0       0       0       0       
      +0       0       0       0       0
  2585 ;;      Temps:          0       0       0       0       0       0       0       0       0       0       0       0       
      +0       0       0       0       0
  2586 ;;      Totals:         0       0       0       0       0       0       0       0       0       0       0       0       
      +0       0       0       0       0
  2587 ;;Total ram usage:        0 bytes
  2588 ;; Hardware stack levels used: 1
  2589 ;; This function calls:
  2590 ;;		Nothing
  2591 ;; This function is called by:
  2592 ;;		_Interrupt_Manager
  2593 ;; This function uses a non-reentrant model
  2594 ;;
  2595                           
  2596                           	psect	text23
  2597   0017EE                     __ptext23:
  2598                           	callstack 0
  2599   0017EE                     _INT0_ISR:
  2600                           	callstack 25
  2601   0017EE                     
  2602                           ;MCAL_layer/Interrupt/external_interrupt.c: 681:     (INTCONbits.INT0IF = 0);
  2603   0017EE  92F2               	bcf	242,1,c	;volatile
  2604   0017F0  0012               	return		;funcret
  2605   0017F2                     __end_of_INT0_ISR:
  2606                           	callstack 0
  2607                           
  2608                           	psect	rparam
  2609   000000                     
  2610                           	psect	temp
  2611   000069                     btemp:
  2612                           	callstack 0
  2613   000069                     	ds	1
  2614   000000                     int$flags	set	btemp
  2615   000000                     wtemp8	set	btemp+1
  2616   000000                     ttemp5	set	btemp+1
  2617   000000                     ttemp6	set	btemp+4
  2618   000000                     ttemp7	set	btemp+8
  2619                           
  2620                           	psect	config
  2621                           
  2622                           ; Padding undefined space
  2623   300000                     	org	3145728
  2624   300000  FF                 	db	255
  2625                           
  2626                           ;Config register CONFIG1H @ 0x300001
  2627                           ;	Oscillator Selection bits
  2628                           ;	OSC = HS, HS oscillator
  2629                           ;	Fail-Safe Clock Monitor Enable bit
  2630                           ;	FCMEN = OFF, Fail-Safe Clock Monitor disabled
  2631                           ;	Internal/External Oscillator Switchover bit
  2632                           ;	IESO = OFF, Oscillator Switchover mode disabled
  2633   300001                     	org	3145729
  2634   300001  02                 	db	2
  2635                           
  2636                           ;Config register CONFIG2L @ 0x300002
  2637                           ;	Power-up Timer Enable bit
  2638                           ;	PWRT = OFF, PWRT disabled
  2639                           ;	Brown-out Reset Enable bits
  2640                           ;	BOREN = SBORDIS, Brown-out Reset enabled in hardware only (SBOREN is disabled)
  2641                           ;	Brown Out Reset Voltage bits
  2642                           ;	BORV = 3, Minimum setting
  2643   300002                     	org	3145730
  2644   300002  1F                 	db	31
  2645                           
  2646                           ;Config register CONFIG2H @ 0x300003
  2647                           ;	Watchdog Timer Enable bit
  2648                           ;	WDT = OFF, WDT disabled (control is placed on the SWDTEN bit)
  2649                           ;	Watchdog Timer Postscale Select bits
  2650                           ;	WDTPS = 32768, 1:32768
  2651   300003                     	org	3145731
  2652   300003  1E                 	db	30
  2653                           
  2654                           ; Padding undefined space
  2655   300004                     	org	3145732
  2656   300004  FF                 	db	255
  2657                           
  2658                           ;Config register CONFIG3H @ 0x300005
  2659                           ;	CCP2 MUX bit
  2660                           ;	CCP2MX = PORTC, CCP2 input/output is multiplexed with RC1
  2661                           ;	PORTB A/D Enable bit
  2662                           ;	PBADEN = OFF, PORTB<4:0> pins are configured as digital I/O on Reset
  2663                           ;	Low-Power Timer1 Oscillator Enable bit
  2664                           ;	LPT1OSC = OFF, Timer1 configured for higher power operation
  2665                           ;	MCLR Pin Enable bit
  2666                           ;	MCLRE = ON, MCLR pin enabled; RE3 input pin disabled
  2667   300005                     	org	3145733
  2668   300005  81                 	db	129
  2669                           
  2670                           ;Config register CONFIG4L @ 0x300006
  2671                           ;	Stack Full/Underflow Reset Enable bit
  2672                           ;	STVREN = ON, Stack full/underflow will cause Reset
  2673                           ;	Single-Supply ICSP Enable bit
  2674                           ;	LVP = OFF, Single-Supply ICSP disabled
  2675                           ;	Extended Instruction Set Enable bit
  2676                           ;	XINST = OFF, Instruction set extension and Indexed Addressing mode disabled (Legacy mo
      +                          de)
  2677                           ;	Background Debugger Enable bit
  2678                           ;	DEBUG = 0x1, unprogrammed default
  2679   300006                     	org	3145734
  2680   300006  81                 	db	129
  2681                           
  2682                           ; Padding undefined space
  2683   300007                     	org	3145735
  2684   300007  FF                 	db	255
  2685                           
  2686                           ;Config register CONFIG5L @ 0x300008
  2687                           ;	Code Protection bit
  2688                           ;	CP0 = OFF, Block 0 (000800-003FFFh) not code-protected
  2689                           ;	Code Protection bit
  2690                           ;	CP1 = OFF, Block 1 (004000-007FFFh) not code-protected
  2691                           ;	Code Protection bit
  2692                           ;	CP2 = OFF, Block 2 (008000-00BFFFh) not code-protected
  2693                           ;	Code Protection bit
  2694                           ;	CP3 = OFF, Block 3 (00C000-00FFFFh) not code-protected
  2695   300008                     	org	3145736
  2696   300008  0F                 	db	15
  2697                           
  2698                           ;Config register CONFIG5H @ 0x300009
  2699                           ;	Boot Block Code Protection bit
  2700                           ;	CPB = OFF, Boot block (000000-0007FFh) not code-protected
  2701                           ;	Data EEPROM Code Protection bit
  2702                           ;	CPD = OFF, Data EEPROM not code-protected
  2703   300009                     	org	3145737
  2704   300009  C0                 	db	192
  2705                           
  2706                           ;Config register CONFIG6L @ 0x30000A
  2707                           ;	Write Protection bit
  2708                           ;	WRT0 = OFF, Block 0 (000800-003FFFh) not write-protected
  2709                           ;	Write Protection bit
  2710                           ;	WRT1 = OFF, Block 1 (004000-007FFFh) not write-protected
  2711                           ;	Write Protection bit
  2712                           ;	WRT2 = OFF, Block 2 (008000-00BFFFh) not write-protected
  2713                           ;	Write Protection bit
  2714                           ;	WRT3 = OFF, Block 3 (00C000-00FFFFh) not write-protected
  2715   30000A                     	org	3145738
  2716   30000A  0F                 	db	15
  2717                           
  2718                           ;Config register CONFIG6H @ 0x30000B
  2719                           ;	Configuration Register Write Protection bit
  2720                           ;	WRTC = OFF, Configuration registers (300000-3000FFh) not write-protected
  2721                           ;	Boot Block Write Protection bit
  2722                           ;	WRTB = OFF, Boot Block (000000-0007FFh) not write-protected
  2723                           ;	Data EEPROM Write Protection bit
  2724                           ;	WRTD = OFF, Data EEPROM not write-protected
  2725   30000B                     	org	3145739
  2726   30000B  E0                 	db	224
  2727                           
  2728                           ;Config register CONFIG7L @ 0x30000C
  2729                           ;	Table Read Protection bit
  2730                           ;	EBTR0 = OFF, Block 0 (000800-003FFFh) not protected from table reads executed in other
      +                           blocks
  2731                           ;	Table Read Protection bit
  2732                           ;	EBTR1 = OFF, Block 1 (004000-007FFFh) not protected from table reads executed in other
      +                           blocks
  2733                           ;	Table Read Protection bit
  2734                           ;	EBTR2 = OFF, Block 2 (008000-00BFFFh) not protected from table reads executed in other
      +                           blocks
  2735                           ;	Table Read Protection bit
  2736                           ;	EBTR3 = OFF, Block 3 (00C000-00FFFFh) not protected from table reads executed in other
      +                           blocks
  2737   30000C                     	org	3145740
  2738   30000C  0F                 	db	15
  2739                           
  2740                           ;Config register CONFIG7H @ 0x30000D
  2741                           ;	Boot Block Table Read Protection bit
  2742                           ;	EBTRB = OFF, Boot Block (000000-0007FFh) not protected from table reads executed in ot
      +                          her blocks
  2743   30000D                     	org	3145741
  2744   30000D  40                 	db	64
  2745                           tosu	equ	0xFFF
  2746                           tosh	equ	0xFFE
  2747                           tosl	equ	0xFFD
  2748                           stkptr	equ	0xFFC
  2749                           pclatu	equ	0xFFB
  2750                           pclath	equ	0xFFA
  2751                           pcl	equ	0xFF9
  2752                           tblptru	equ	0xFF8
  2753                           tblptrh	equ	0xFF7
  2754                           tblptrl	equ	0xFF6
  2755                           tablat	equ	0xFF5
  2756                           prodh	equ	0xFF4
  2757                           prodl	equ	0xFF3
  2758                           indf0	equ	0xFEF
  2759                           postinc0	equ	0xFEE
  2760                           postdec0	equ	0xFED
  2761                           preinc0	equ	0xFEC
  2762                           plusw0	equ	0xFEB
  2763                           fsr0h	equ	0xFEA
  2764                           fsr0l	equ	0xFE9
  2765                           wreg	equ	0xFE8
  2766                           indf1	equ	0xFE7
  2767                           postinc1	equ	0xFE6
  2768                           postdec1	equ	0xFE5
  2769                           preinc1	equ	0xFE4
  2770                           plusw1	equ	0xFE3
  2771                           fsr1h	equ	0xFE2
  2772                           fsr1l	equ	0xFE1
  2773                           bsr	equ	0xFE0
  2774                           indf2	equ	0xFDF
  2775                           postinc2	equ	0xFDE
  2776                           postdec2	equ	0xFDD
  2777                           preinc2	equ	0xFDC
  2778                           plusw2	equ	0xFDB
  2779                           fsr2h	equ	0xFDA
  2780                           fsr2l	equ	0xFD9
  2781                           status	equ	0xFD8

Data Sizes:
    Strings     3
    Constant    16
    Data        50
    BSS         30
    Persistent  1
    Stack       0

Auto Spaces:
    Space          Size  Autos    Used
    COMRAM          126     23     104
    BANK0           128      0       0
    BANK1           256      0       0
    BANK2           256      0       0
    BANK3           256      0       0
    BANK4           256      0       0
    BANK5           256      0       0
    BANK6           256      0       0
    BANK7           256      0       0
    BANK8           256      0       0
    BANK9           256      0       0
    BANK10          256      0       0
    BANK11          256      0       0
    BANK12          256      0       0
    BANK13          256      0       0
    BANK14          256      0       0
    BANK15          128      0       0

Pointer List with Targets:

    f$.$buffer	PTR unsigned char  size(2) Largest target is 0

    f$.$source	PTR const unsigned char  size(2) Largest target is 0

    gpio_pin_direction_init@_pin_config	PTR const struct . size(1) Largest target is 4
		 -> ecu_dc_motor_initializ@dc_motor_pin_1(COMRAM[1]), ecu_dc_motor_initializ@dc_motor_pin_2(COMRAM[1]), ecu_led_initializ@_pin_config(COMRAM[1]), ecu_relay_initializ@relay_init(COMRAM[1]), 
		 -> led1(COMRAM[1]), led2(COMRAM[1]), led3(COMRAM[1]), led4(COMRAM[1]), 
		 -> RB4_obj(COMRAM[4]), RB5_obj(COMRAM[4]), RB6_obj(COMRAM[4]), RB7_obj(COMRAM[4]), 

    gpio_pin_Initialization@_pin_config	PTR const struct . size(1) Largest target is 1
		 -> ecu_dc_motor_initializ@dc_motor_pin_1(COMRAM[1]), ecu_dc_motor_initializ@dc_motor_pin_2(COMRAM[1]), ecu_led_initializ@_pin_config(COMRAM[1]), ecu_relay_initializ@relay_init(COMRAM[1]), 
		 -> led1(COMRAM[1]), led2(COMRAM[1]), led3(COMRAM[1]), led4(COMRAM[1]), 

    gpio_pin_toggle_logic@_pin_config	PTR const struct . size(1) Largest target is 1
		 -> ecu_led_toggle@_pin_config(COMRAM[1]), ecu_relay_toggle@relay_init(COMRAM[1]), led1(COMRAM[1]), led2(COMRAM[1]), 
		 -> led3(COMRAM[1]), led4(COMRAM[1]), 

    gpio_pin_write_logic@_pin_config	PTR const struct . size(1) Largest target is 1
		 -> ecu_dc_motor_initializ@dc_motor_pin_1(COMRAM[1]), ecu_dc_motor_initializ@dc_motor_pin_2(COMRAM[1]), ecu_dc_motor_move_left@dc_motor_pin_1(COMRAM[1]), ecu_dc_motor_move_left@dc_motor_pin_2(COMRAM[1]), 
		 -> ecu_dc_motor_move_right@dc_motor_pin_1(COMRAM[1]), ecu_dc_motor_move_right@dc_motor_pin_2(COMRAM[1]), ecu_dc_motor_stop@dc_motor_pin_1(COMRAM[1]), ecu_dc_motor_stop@dc_motor_pin_2(COMRAM[1]), 
		 -> ecu_led_initializ@_pin_config(COMRAM[1]), ecu_led_turn_off@_pin_config(COMRAM[1]), ecu_led_turn_on@_pin_config(COMRAM[1]), ecu_relay_initializ@relay_init(COMRAM[1]), 
		 -> ecu_relay_turn_off@relay_init(COMRAM[1]), ecu_relay_turn_on@relay_init(COMRAM[1]), led1(COMRAM[1]), led2(COMRAM[1]), 
		 -> led3(COMRAM[1]), led4(COMRAM[1]), 

    INT0_InterruptHandler	PTR FTN()void  size(2) Largest target is 1
		 -> NULL(), 

    INT1_InterruptHandler	PTR FTN()void  size(2) Largest target is 1
		 -> NULL(), 

    INT2_InterruptHandler	PTR FTN()void  size(2) Largest target is 1
		 -> NULL(), 

    Interrupt_INTx_Clear_Flag@_interrupt_INTx$EXTERNAL_INTERRUPT_CALLBACK	PTR FTN()void  size(2) Largest target is 0

    Interrupt_INTx_Disable@_interrupt_INTx$EXTERNAL_INTERRUPT_CALLBACK	PTR FTN()void  size(2) Largest target is 0

    Interrupt_INTx_Edge_init@_interrupt_INTx$EXTERNAL_INTERRUPT_CALLBACK	PTR FTN()void  size(2) Largest target is 0

    Interrupt_INTx_Enable@_interrupt_INTx$EXTERNAL_INTERRUPT_CALLBACK	PTR FTN()void  size(2) Largest target is 0

    Interrupt_INTx_Pin_init@_interrupt_INTx$EXTERNAL_INTERRUPT_CALLBACK	PTR FTN()void  size(2) Largest target is 0

    Interrupt_INTx_Priority_init@_interrupt_INTx$EXTERNAL_INTERRUPT_CALLBACK	PTR FTN()void  size(2) Largest target is 0

    Interrupt_RBx_Clear_Flag@_interrupt_RBx	PTR const struct . size(1) Largest target is 4
		 -> RB4_obj(COMRAM[4]), RB5_obj(COMRAM[4]), RB6_obj(COMRAM[4]), RB7_obj(COMRAM[4]), 

    Interrupt_RBx_Disable@_interrupt_RBx	PTR const struct . size(1) Largest target is 4
		 -> RB4_obj(COMRAM[4]), RB5_obj(COMRAM[4]), RB6_obj(COMRAM[4]), RB7_obj(COMRAM[4]), 

    Interrupt_RBx_Enable@_interrupt_RBx	PTR const struct . size(1) Largest target is 4
		 -> RB4_obj(COMRAM[4]), RB5_obj(COMRAM[4]), RB6_obj(COMRAM[4]), RB7_obj(COMRAM[4]), 

    Interrupt_RBx_init@_interrupt_RBx	PTR const struct . size(1) Largest target is 4
		 -> RB4_obj(COMRAM[4]), RB5_obj(COMRAM[4]), RB6_obj(COMRAM[4]), RB7_obj(COMRAM[4]), 

    Interrupt_RBx_Pin_init@_interrupt_RBx	PTR const struct . size(1) Largest target is 4
		 -> RB4_obj(COMRAM[4]), RB5_obj(COMRAM[4]), RB6_obj(COMRAM[4]), RB7_obj(COMRAM[4]), 

    Interrupt_RBx_Pin_init@_interrupt_RBx$EXTERNAL_INTERRUPT_CALLBACK	PTR FTN()void  size(2) Largest target is 1
		 -> ISR_0(), ISR_1(), ISR_2(), ISR_3(), 

    Interrupt_RBx_Priority_init@_interrupt_RBx	PTR const struct . size(1) Largest target is 4
		 -> RB4_obj(COMRAM[4]), RB5_obj(COMRAM[4]), RB6_obj(COMRAM[4]), RB7_obj(COMRAM[4]), 

    INTx_Set_Interrupt_Handler@_interrupt_INTx$EXTERNAL_INTERRUPT_CALLBACK	PTR FTN()void  size(2) Largest target is 0

    lat_registers	PTR volatile unsigned char [5] size(2) Largest target is 1
		 -> LATA(BITBIGSFRll[1]), LATB(BITBIGSFRlh[1]), LATC(BITBIGSFRlh[1]), LATD(BITBIGSFRlh[1]), 
		 -> LATE(BITBIGSFRlh[1]), 

    port_registers	PTR volatile unsigned char [5] size(2) Largest target is 1
		 -> PORTA(BITBIGSFRll[1]), PORTB(BITBIGSFRll[1]), PORTC(BITBIGSFRll[1]), PORTD(BITBIGSFRll[1]), 
		 -> PORTE(BITBIGSFRll[1]), 

    RB4_InterruptHandler	PTR FTN()void  size(2) Largest target is 1
		 -> ISR_0(), ISR_1(), ISR_2(), ISR_3(), 
		 -> NULL(), 

    RB4_obj$EXTERNAL_INTERRUPT_CALLBACK	PTR FTN()void  size(2) Largest target is 1
		 -> ISR_0(), ISR_1(), ISR_2(), ISR_3(), 

    RB5_InterruptHandler	PTR FTN()void  size(2) Largest target is 1
		 -> ISR_0(), ISR_1(), ISR_2(), ISR_3(), 
		 -> NULL(), 

    RB5_obj$EXTERNAL_INTERRUPT_CALLBACK	PTR FTN()void  size(2) Largest target is 1
		 -> ISR_0(), ISR_1(), ISR_2(), ISR_3(), 

    RB6_InterruptHandler	PTR FTN()void  size(2) Largest target is 1
		 -> ISR_0(), ISR_1(), ISR_2(), ISR_3(), 
		 -> NULL(), 

    RB6_obj$EXTERNAL_INTERRUPT_CALLBACK	PTR FTN()void  size(2) Largest target is 1
		 -> ISR_0(), ISR_1(), ISR_2(), ISR_3(), 

    RB7_InterruptHandler	PTR FTN()void  size(2) Largest target is 1
		 -> ISR_0(), ISR_1(), ISR_2(), ISR_3(), 
		 -> NULL(), 

    RB7_obj$EXTERNAL_INTERRUPT_CALLBACK	PTR FTN()void  size(2) Largest target is 1
		 -> ISR_0(), ISR_1(), ISR_2(), ISR_3(), 

    S1976$buffer	PTR unsigned char  size(2) Largest target is 0

    S1976$source	PTR const unsigned char  size(2) Largest target is 0

    S860$EXTERNAL_INTERRUPT_CALLBACK	PTR FTN()void  size(2) Largest target is 0

    S902$EXTERNAL_INTERRUPT_CALLBACK	PTR FTN()void  size(2) Largest target is 1
		 -> ISR_0(), ISR_1(), ISR_2(), ISR_3(), 

    sp__memset	PTR void  size(2) Largest target is 0

    tris_registers	PTR volatile unsigned char [5] size(2) Largest target is 1
		 -> TRISA(BITBIGSFRll[1]), TRISB(BITBIGSFRhll[1]), TRISC(BITBIGSFRhll[1]), TRISD(BITBIGSFRhll[1]), 
		 -> TRISE(BITBIGSFRhll[1]), 

    vfprintf$0	PTR struct _IO_FILE size(1) Largest target is 12
		 -> sprintf@f(COMRAM[12]), 

    vfprintf$1	PTR const unsigned char  size(1) Largest target is 3
		 -> STR_1(CODE[3]), STR_2(CODE[3]), STR_3(CODE[3]), 

    vfprintf$2	PTR PTR void  size(1) Largest target is 1
		 -> sprintf@ap(COMRAM[1]), 


Critical Paths under _main in COMRAM

    _application_initializ->_Interrupt_RBx_init
    _application_initializ->_gpio_pin_Initialization
    _gpio_pin_Initialization->_gpio_pin_write_logic
    _Interrupt_RBx_init->_Interrupt_RBx_Pin_init
    _Interrupt_RBx_Pin_init->_gpio_pin_direction_init

Critical Paths under _Interrupt_Manager in COMRAM

    _ISR_3->_gpio_pin_toggle_logic
    _ISR_2->_gpio_pin_toggle_logic
    _ISR_1->_gpio_pin_toggle_logic
    _ISR_0->_gpio_pin_toggle_logic

Critical Paths under _main in BANK0

    None.

Critical Paths under _Interrupt_Manager in BANK0

    None.

Critical Paths under _main in BANK1

    None.

Critical Paths under _Interrupt_Manager in BANK1

    None.

Critical Paths under _main in BANK2

    None.

Critical Paths under _Interrupt_Manager in BANK2

    None.

Critical Paths under _main in BANK3

    None.

Critical Paths under _Interrupt_Manager in BANK3

    None.

Critical Paths under _main in BANK4

    None.

Critical Paths under _Interrupt_Manager in BANK4

    None.

Critical Paths under _main in BANK5

    None.

Critical Paths under _Interrupt_Manager in BANK5

    None.

Critical Paths under _main in BANK6

    None.

Critical Paths under _Interrupt_Manager in BANK6

    None.

Critical Paths under _main in BANK7

    None.

Critical Paths under _Interrupt_Manager in BANK7

    None.

Critical Paths under _main in BANK8

    None.

Critical Paths under _Interrupt_Manager in BANK8

    None.

Critical Paths under _main in BANK9

    None.

Critical Paths under _Interrupt_Manager in BANK9

    None.

Critical Paths under _main in BANK10

    None.

Critical Paths under _Interrupt_Manager in BANK10

    None.

Critical Paths under _main in BANK11

    None.

Critical Paths under _Interrupt_Manager in BANK11

    None.

Critical Paths under _main in BANK12

    None.

Critical Paths under _Interrupt_Manager in BANK12

    None.

Critical Paths under _main in BANK13

    None.

Critical Paths under _Interrupt_Manager in BANK13

    None.

Critical Paths under _main in BANK14

    None.

Critical Paths under _Interrupt_Manager in BANK14

    None.

Critical Paths under _main in BANK15

    None.

Critical Paths under _Interrupt_Manager in BANK15

    None.

Call Graph Tables:

 ---------------------------------------------------------------------------------
 (Depth) Function   	        Calls       Base Space   Used Autos Params    Refs
 ---------------------------------------------------------------------------------
 (0) _main                                                 0     0      0    8342
              _application_initializ
 ---------------------------------------------------------------------------------
 (1) _application_initializ                                0     0      0    8342
                 _Interrupt_RBx_init
            _gpio_pin_Initialization
 ---------------------------------------------------------------------------------
 (2) _gpio_pin_Initialization                              3     2      1    6574
                                             20 COMRAM     3     2      1
            _gpio_pin_direction_init
               _gpio_pin_write_logic
 ---------------------------------------------------------------------------------
 (3) _gpio_pin_write_logic                                 8     6      2    4435
                                             12 COMRAM     8     6      2
 ---------------------------------------------------------------------------------
 (2) _Interrupt_RBx_init                                   2     1      1    1768
                                             21 COMRAM     2     1      1
           _Interrupt_RBx_Clear_Flag
              _Interrupt_RBx_Disable
               _Interrupt_RBx_Enable
             _Interrupt_RBx_Pin_init
        _Interrupt_RBx_Priority_init
 ---------------------------------------------------------------------------------
 (3) _Interrupt_RBx_Priority_init                          2     1      1     122
                                             12 COMRAM     2     1      1
 ---------------------------------------------------------------------------------
 (3) _Interrupt_RBx_Pin_init                               2     1      1     739
                                             19 COMRAM     2     1      1
            _gpio_pin_direction_init
 ---------------------------------------------------------------------------------
 (3) _gpio_pin_direction_init                              7     6      1     483
                                             12 COMRAM     7     6      1
 ---------------------------------------------------------------------------------
 (3) _Interrupt_RBx_Enable                                 2     1      1     122
                                             12 COMRAM     2     1      1
 ---------------------------------------------------------------------------------
 (3) _Interrupt_RBx_Disable                                2     1      1     198
                                             12 COMRAM     2     1      1
 ---------------------------------------------------------------------------------
 (3) _Interrupt_RBx_Clear_Flag                             2     1      1     122
                                             12 COMRAM     2     1      1
 ---------------------------------------------------------------------------------
 Estimated maximum stack depth 3
 ---------------------------------------------------------------------------------
 (Depth) Function   	        Calls       Base Space   Used Autos Params    Refs
 ---------------------------------------------------------------------------------
 (5) _Interrupt_Manager                                    6     6      0    9088
                                              6 COMRAM     6     6      0
                           _INT0_ISR
                           _INT1_ISR
                           _INT2_ISR
                            _RB4_ISR
                            _RB5_ISR
                            _RB6_ISR
                            _RB7_ISR
 ---------------------------------------------------------------------------------
 (6) _RB7_ISR                                              0     0      0    2272
                                NULL *
                              _ISR_0 *
                              _ISR_1 *
                              _ISR_2 *
                              _ISR_3 *
 ---------------------------------------------------------------------------------
 (6) _RB6_ISR                                              0     0      0    2272
                                NULL *
                              _ISR_0 *
                              _ISR_1 *
                              _ISR_2 *
                              _ISR_3 *
 ---------------------------------------------------------------------------------
 (6) _RB5_ISR                                              0     0      0    2272
                                NULL *
                              _ISR_0 *
                              _ISR_1 *
                              _ISR_2 *
                              _ISR_3 *
 ---------------------------------------------------------------------------------
 (6) _RB4_ISR                                              0     0      0    2272
                                NULL *
                              _ISR_0 *
                              _ISR_1 *
                              _ISR_2 *
                              _ISR_3 *
 ---------------------------------------------------------------------------------
 (7) _ISR_3                                                0     0      0     568
              _gpio_pin_toggle_logic
 ---------------------------------------------------------------------------------
 (7) _ISR_2                                                0     0      0     568
              _gpio_pin_toggle_logic
 ---------------------------------------------------------------------------------
 (7) _ISR_1                                                0     0      0     568
              _gpio_pin_toggle_logic
 ---------------------------------------------------------------------------------
 (7) _ISR_0                                                0     0      0     568
              _gpio_pin_toggle_logic
 ---------------------------------------------------------------------------------
 (8) _gpio_pin_toggle_logic                                6     5      1     568
                                              0 COMRAM     6     5      1
 ---------------------------------------------------------------------------------
 (7) NULL(Fake)                                            0     0      0       0
 ---------------------------------------------------------------------------------
 (6) _INT2_ISR                                             0     0      0       0
 ---------------------------------------------------------------------------------
 (6) _INT1_ISR                                             0     0      0       0
 ---------------------------------------------------------------------------------
 (6) _INT0_ISR                                             0     0      0       0
 ---------------------------------------------------------------------------------
 Estimated maximum stack depth 8
 ---------------------------------------------------------------------------------

 Call Graph Graphs:

 _main (ROOT)
   _application_initializ
     _Interrupt_RBx_init
       _Interrupt_RBx_Clear_Flag
       _Interrupt_RBx_Disable
       _Interrupt_RBx_Enable
       _Interrupt_RBx_Pin_init
         _gpio_pin_direction_init
       _Interrupt_RBx_Priority_init
     _gpio_pin_Initialization
       _gpio_pin_direction_init
       _gpio_pin_write_logic

 _Interrupt_Manager (ROOT)
   _INT0_ISR
   _INT1_ISR
   _INT2_ISR
   _RB4_ISR
     NULL(Fake) *
     _ISR_0 *
       _gpio_pin_toggle_logic
     _ISR_1 *
       _gpio_pin_toggle_logic
     _ISR_2 *
       _gpio_pin_toggle_logic
     _ISR_3 *
       _gpio_pin_toggle_logic
   _RB5_ISR
     NULL(Fake) *
     _ISR_0 *
     _ISR_1 *
     _ISR_2 *
     _ISR_3 *
   _RB6_ISR
     NULL(Fake) *
     _ISR_0 *
     _ISR_1 *
     _ISR_2 *
     _ISR_3 *
   _RB7_ISR
     NULL(Fake) *
     _ISR_0 *
     _ISR_1 *
     _ISR_2 *
     _ISR_3 *

 Address spaces:
Name               Size   Autos  Total    Cost      Usage
BIGRAM             F7F      0       0      41        0.0%
EEDATA             400      0       0       0        0.0%
BITBANK14          100      0       0      33        0.0%
BANK14             100      0       0      34        0.0%
BITBANK13          100      0       0      31        0.0%
BANK13             100      0       0      32        0.0%
BITBANK12          100      0       0      29        0.0%
BANK12             100      0       0      30        0.0%
BITBANK11          100      0       0      27        0.0%
BANK11             100      0       0      28        0.0%
BITBANK10          100      0       0      24        0.0%
BANK10             100      0       0      25        0.0%
BITBANK9           100      0       0      22        0.0%
BANK9              100      0       0      23        0.0%
BITBANK8           100      0       0      20        0.0%
BANK8              100      0       0      21        0.0%
BITBANK7           100      0       0      18        0.0%
BANK7              100      0       0      19        0.0%
BITBANK6           100      0       0      16        0.0%
BANK6              100      0       0      17        0.0%
BITBANK5           100      0       0      14        0.0%
BANK5              100      0       0      15        0.0%
BITBANK4           100      0       0      12        0.0%
BANK4              100      0       0      13        0.0%
BITBANK3           100      0       0      10        0.0%
BANK3              100      0       0      11        0.0%
BITBANK2           100      0       0       8        0.0%
BANK2              100      0       0       9        0.0%
BITBANK1           100      0       0       6        0.0%
BANK1              100      0       0       7        0.0%
BITBANK15           80      0       0      35        0.0%
BANK15              80      0       0      36        0.0%
BITBANK0            80      0       0       4        0.0%
BANK0               80      0       0       5        0.0%
BITCOMRAM           7E      0       0       0        0.0%
COMRAM              7E     17      68       1       82.5%
BITBIGSFRhll        59      0       0      38        0.0%
BITBIGSFRhh          D      0       0      37        0.0%
BITBIGSFRlh          4      0       0      39        0.0%
BITBIGSFRll          4      0       0      40        0.0%
BIGSFR               0      0       0     200        0.0%
BITSFR               0      0       0     200        0.0%
SFR                  0      0       0     200        0.0%
STACK                0      0       0       2        0.0%
NULL                 0      0       0       0        0.0%
ABS                  0      0      68      26        0.0%
DATA                 0      0      68       3        0.0%
CODE                 0      0       0       0        0.0%


Microchip Technology PIC18 Macro Assembler V2.46 build 20240104201356 
Symbol Table                                                                                   Thu Aug 01 10:13:56 2024

                     ??_Interrupt_RBx_init 0067                        ??_Interrupt_Manager 0057  
                                      l413 12BC                                        l432 13CC  
                                      l453 1560                                        l543 15FE  
                                      l640 1786                                        l633 1760  
                                      l801 15B2                                        l635 1764  
                                      l643 173C                                        l660 17A4  
                                      l645 1742                                        l662 17A8  
                                      l638 1782                                        l657 1476  
                                      l795 17AE                                        l796 17AE  
                                      _ret 0068                                        tosl 0FFD  
                                      wreg 0FE8                            __end_of_RB4_ISR 1720  
                          __end_of_RB5_ISR 16F2                            __end_of_RB6_ISR 16C4  
                          __end_of_RB7_ISR 1696                                       l3000 1474  
                                     l3004 1744                                       l3020 155E  
                                     l3012 1504                                       l3006 1758  
                                     l3014 1514                                       l3008 1762  
                                     l3120 15EA                                       l3016 1534  
                                     l3122 15F2                                       l3114 15B4  
                                     l3018 153C                                       l3124 15FC  
                                     l3116 15C4                                       l3118 15CC  
                                     l3222 1562                                       l2910 11E8  
                                     l2912 123E                                       l2904 11AC  
                                     l2906 11C0                                       l2930 1350  
                                     l2922 12BE                                       l2916 128E  
                                     l2908 11E0                                       l2924 12D2  
                   ??_Interrupt_RBx_Enable 005E                                       l2918 12BA  
                                     l2934 13A0                                       l2926 12F2  
                  ??_application_initializ 0068                                       l2960 1784  
                                     l2928 12FA                                       l2936 13CA  
                                     l2964 1788                                       l2956 1766  
                                     l2980 13CE                                       l2972 1720  
                                     l2966 179C                                       l2958 177A  
                                     l2990 141A                                       l2982 13DE  
                                     l2974 1734                                       l3942 17AA  
                                     l2968 17A6                                       l2992 142C  
                                     l2984 13E6                                       l2976 1740  
                                     l2986 13F6                                       l2988 1408  
                                     l3948 13B4                                       l2998 143E  
                                     STR_1 1011                                       _LATA 0F89  
                                     _LATB 0F8A                                       _LATC 0F8B  
                                     _LATD 0F8C                                       _LATE 0F8D  
                                     u1710 11C0                                       u1711 11BC  
                                     u1720 11E0                                       u1721 11DC  
                                     u1830 177A                                       u1750 12A4  
                                     u1734 1206                                       u1831 1776  
                                     u1751 129E                                       u1735 1202  
                                     u1840 179C                                       u1744 125C  
                                     u1760 12D2                                       u1841 1798  
                                     u1745 1258                                       u1761 12CE  
                                     u1850 1734                                       u1770 12F2  
                                     u1851 1730                                       u1771 12EE  
                                     u1756 12A6                                       u1860 13DE  
                                     u1861 13DA                                       u1870 1758  
                                     u1871 1754                                       u1784 1318  
                                     u1880 1514                                       u1785 1314  
                                     u1881 1510                                       u1794 136E  
                                     u1890 1534                                       u1795 136A  
                                     u1891 1530                                       u1990 15C4  
                                     u1991 15C0                  __end_of_Interrupt_Manager 11AC  
                                     _led1 0032                                       _led2 0031  
                                     _led3 0030                                       _led4 002F  
                                     _main 17AA                                       fsr2h 0FDA  
                                     indf2 0FDF                                       fsr1l 0FE1  
                                     fsr2l 0FD9                   ?_gpio_pin_direction_init 005D  
                                     btemp 0069                                       prodh 0FF4  
                                     prodl 0FF3                                       start 000E  
                     _RB7_InterruptHandler 0033                               ___param_bank 0000  
                   ?_gpio_pin_toggle_logic 0051                       _gpio_pin_write_logic 12BE  
                         __end_of_INT0_ISR 17F2                           __end_of_INT1_ISR 17EE  
                         __end_of_INT2_ISR 17EA         Interrupt_RBx_Enable@_interrupt_RBx 005D  
                                    ?_main 0051                    ??_Interrupt_RBx_Disable 005E  
                                    i2l700 17E8                                      i2l446 1502  
                                    i2l704 171E                                      i2l712 16C2  
                                    i2l810 17C0                                      i2l804 17D8  
                                    i2l708 16F0                                      i2l716 1694  
                                    i2l813 17E4                                      i2l807 17CC  
                                    i2l692 17F0                                      i2l756 1190  
                                    i2l696 17EC                ecu_dc_motor_initializ@F3064 0050  
              ecu_dc_motor_initializ@F3066 004F                                      _ISR_0 17CE  
                                    _ISR_1 17C2                                      _ISR_2 17B6  
                                    _ISR_3 17DA                                      _PORTA 0F80  
                                    _PORTB 0F81                                      _PORTC 0F82  
                                    _PORTD 0F83                                      _PORTE 0F84  
                                    _TRISA 0F92                                      _TRISB 0F93  
                                    _TRISC 0F94                                      _TRISD 0F95  
                                    _TRISE 0F96                                      pclath 0FFA  
                                    pclatu 0FFB                                      tablat 0FF5  
                                    ttemp5 006A                                      ttemp6 006D  
                                    ttemp7 0071                                      status 0FD8  
                                    wtemp8 006A        __end_of_Interrupt_RBx_Priority_init 1744  
              _Interrupt_RBx_Priority_init 1720                            __initialization 1600  
                             __end_of_main 17B6                      ?_gpio_pin_write_logic 005D  
                      ecu_led_toggle@F3076 0045                              _lat_registers 000B  
                                   ??_main 0068                    _gpio_pin_Initialization 1504  
                            __activetblptr 0003                                     ?_ISR_0 0051  
                                   ?_ISR_1 0051                                     ?_ISR_2 0051  
                                   ?_ISR_3 0051                                  ??_RB4_ISR 0057  
                                ??_RB5_ISR 0057                                  ??_RB6_ISR 0057  
                                ??_RB7_ISR 0057                                     i2l3200 16F4  
                                   i2l3130 17C2                                     i2l3202 1706  
                                   i2l3210 1696                                     i2l3132 17B6  
                                   i2l3204 16C4                                     i2l3212 1698  
                                   i2l3220 167C                                     i2l3134 17DA  
                                   i2l3206 16C6                                     i2l3214 16AA  
                                   i2l3128 17CE                                     i2l3208 16D8  
                                   i2l3216 1668                                     i2l3218 166A  
                                   i2l1840 17EA                                     i2l1836 17EE  
                                   i2l1844 17E6                                     i2l3198 16F2  
                                   i2l3900 10B0                                     i2l2950 14B4  
                                   i2l3910 10EC                                     i2l3902 10BE  
                                   i2l2952 1500                                     i2l2944 1478  
                                   i2l3920 111E                                     i2l3904 10CC  
                                   i2l3912 10F0                                     i2l2946 148C  
                                   i2l3930 1150                                     i2l3922 112C  
                                   i2l3914 10FE                                     i2l3906 10DA  
                                   i2l2948 14AC                                     i2l3940 118C  
                                   i2l3932 115E                                     i2l3916 110C  
                                   i2l3924 1130                                     i2l3908 10DE  
                                   i2l3934 116C                                     i2l3926 113E  
                                   i2l3918 111A                                     i2l3936 1170  
                                   i2l3928 114C                                     i2l3880 104C  
                                   i2l3938 117E                                     i2l3890 107E  
                                   i2l3882 105A                                     i2l3892 108C  
                                   i2l3884 105E                                     i2l3876 1030  
                                   i2l3894 109A                                     i2l3886 106C  
                                   i2l3878 103E                                     i2l3896 109E  
                                   i2l3888 1070                                     i2l3898 10AC  
                  Interrupt_RBx_Enable@ret 005E           gpio_pin_toggle_logic@_pin_config 0051  
                 gpio_pin_toggle_logic@ret 0056                   ??_Interrupt_RBx_Pin_init 0065  
                                   clear_0 1626                  ?_Interrupt_RBx_Clear_Flag 005D  
                                   isa$std 0001                               __pdataCOMRAM 0001  
                             __mediumconst 0000                                     tblptrh 0FF7  
                                   tblptrl 0FF6                                     tblptru 0FF8  
Interrupt_RBx_Priority_init@_interrupt_RBx 005D                                 __accesstop 0080  
                  __end_of__initialization 162C                                  ?_INT0_ISR 0051  
                                ?_INT1_ISR 0051                                  ?_INT2_ISR 0051  
                            ___rparam_used 0001                              __end_of_ISR_0 17DA  
                            __end_of_ISR_1 17CE                              __end_of_ISR_2 17C2  
                            __end_of_ISR_3 17E6                     ??_gpio_pin_write_logic 005F  
                           __pcstackCOMRAM 0051       Interrupt_RBx_Pin_init@_interrupt_RBx 0064  
                ??_gpio_pin_Initialization 0066                                    ??_ISR_0 0057  
                                  ??_ISR_1 0057                                    ??_ISR_2 0057  
                                  ??_ISR_3 0057               ecu_dc_motor_move_right@F3071 004E  
             ecu_dc_motor_move_right@F3073 004D        Interrupt_RBx_Disable@_interrupt_RBx 005D  
            __end_of_application_initializ 15B4                      _INT0_InterruptHandler 003F  
                               ??_INT0_ISR 0051                                 ??_INT1_ISR 0051  
                               ??_INT2_ISR 0051                                 __pnvCOMRAM 0068  
                  ??_gpio_pin_toggle_logic 0052         gpio_pin_direction_init@_pin_config 005D  
                                  _RB4_ISR 16F2                                    _RB5_ISR 16C4  
                                  _RB6_ISR 1696                                    _RB7_ISR 1668  
            __end_of_Interrupt_RBx_Disable 1788                                    _RB4_obj 002B  
                                  _RB5_obj 0027                                    _RB6_obj 0023  
                                  _RB7_obj 001F            __end_of_gpio_pin_Initialization 1562  
                 Interrupt_RBx_Disable@ret 005E                             _tris_registers 0015  
                                  __Hparam 0000                                    __Lparam 0000  
   Interrupt_RBx_Clear_Flag@_interrupt_RBx 005D                               __psmallconst 1000  
                                  __pcinit 1600                                    __ramtop 1000  
                                  __ptext0 17AA                                    __ptext1 1562  
                                  __ptext2 1504                                    __ptext3 12BE  
                                  __ptext4 15B4                                    __ptext5 1720  
                                  __ptext6 13CE                                    __ptext7 11AC  
                                  __ptext8 1744                                    __ptext9 1766  
       gpio_pin_Initialization@_pin_config 0065                     _Interrupt_RBx_Pin_init 13CE  
         Interrupt_RBx_init@_interrupt_RBx 0066                             __pintcode_body 1016  
                     end_of_initialization 162C                                    int_func 1016  
         __end_of_Interrupt_RBx_Clear_Flag 17AA                                    postdec1 0FE5  
                                  postdec2 0FDD                                    postinc0 0FEE  
                                  postinc2 0FDE             Interrupt_RBx_Priority_init@ret 005E  
                    _INT1_InterruptHandler 003D                                  _PORTBbits 0F81  
                    ecu_led_turn_off@F3071 0046                    _gpio_pin_direction_init 11AC  
                            __pidataCOMRAM 1636                   ecu_relay_initializ@F3061 0044  
                      start_initialization 1600                ecu_dc_motor_move_left@F3080 004B  
              ecu_dc_motor_move_left@F3078 004C                       _RB4_InterruptHandler 0039  
            __end_of_gpio_pin_toggle_logic 1504                   _Interrupt_RBx_Clear_Flag 1788  
              Interrupt_RBx_Clear_Flag@ret 005E                                   ?_RB4_ISR 0051  
                                 ?_RB5_ISR 0051                                   ?_RB6_ISR 0051  
                                 ?_RB7_ISR 0051                      Interrupt_RBx_init@ret 0067  
                              __pbssCOMRAM 0033                      _INT2_InterruptHandler 003B  
                    _application_initializ 1562                   ?_gpio_pin_Initialization 0065  
                ??_gpio_pin_direction_init 005E               ?_Interrupt_RBx_Priority_init 005D  
                                __pintcode 0008            gpio_pin_write_logic@_pin_config 005D  
               __end_of_Interrupt_RBx_init 1600               __end_of_Interrupt_RBx_Enable 1766  
                gpio_pin_write_logic@logic 005E                    ?_Interrupt_RBx_Pin_init 0064  
                              __smallconst 1000                      _Interrupt_RBx_Disable 1766  
                                 _INT0_ISR 17EE                                   _INT1_ISR 17EA  
                                 _INT2_ISR 17E6                             _keypad_sampels 1001  
                    ecu_relay_toggle@F3076 0041                  Interrupt_RBx_Pin_init@ret 0065  
                                 i2u210_40 16AA                                   i2u210_41 16A6  
                                 i2u211_48 16B0                                   i2u212_40 167C  
                                 i2u300_40 113E                                   i2u211_49 16C2  
                                 i2u212_41 1678                                   i2u300_41 113A  
                                 i2u301_40 114C                                   i2u301_41 1148  
                                 i2u206_40 1706                                   i2u213_48 1682  
                                 i2u302_40 115E                                   i2u206_41 1702  
                                 i2u213_49 1694                                   i2u302_41 115A  
               gpio_pin_Initialization@ret 0067                                   i2u303_40 116C  
                                 i2u303_41 1168                                   i2u207_48 170C  
                                 i2u208_40 16D8                                   i2u304_40 117E  
                                 i2u207_49 171E                                   i2u208_41 16D4  
                                 i2u304_41 117A                                   i2u305_40 118C  
                                 i2u305_41 1188                                   i2u209_48 16DE  
                                 i2u209_49 16F0                                   i2u180_40 148C  
                                 i2u180_41 1488                                   i2u181_40 14AC  
                                 i2u181_41 14A8                                   i2u182_44 14D2  
                                 i2u182_45 14CE                                   i2u290_40 109A  
                                 i2u290_41 1096                                   i2u291_40 10AC  
                                 i2u291_41 10A8                                   i2u292_40 10BE  
                                 i2u284_40 103E                                   i2u292_41 10BA  
                                 i2u284_41 103A                                   i2u293_40 10CC  
                                 i2u285_40 104C                       _RB5_InterruptHandler 0037  
                                 i2u293_41 10C8                                   i2u285_41 1048  
                                 i2u294_40 10DA                                   i2u286_40 105A  
                                 i2u294_41 10D6                                   i2u286_41 1056  
                                 i2u295_40 10EC                                   i2u287_40 106C  
                                 i2u295_41 10E8                                   i2u287_41 1068  
                                 i2u296_40 10FE                                   i2u288_40 107E  
                                 i2u296_41 10FA                                   i2u288_41 107A  
                                 i2u297_40 110C                                   i2u289_40 108C  
                                 i2u297_41 1108                                   i2u289_41 1088  
                                 i2u298_40 111A                                   i2u298_41 1116  
                                 i2u299_40 112C                                   i2u299_41 1128  
            ??_Interrupt_RBx_Priority_init 005E             __end_of_Interrupt_RBx_Pin_init 1478  
                     ecu_led_turn_on@F3066 0047            __end_of_gpio_pin_direction_init 12BE  
                  gpio_pin_write_logic@ret 0064                                _INTCON2bits 0FF1  
                              _INTCON3bits 0FF0                                  copy_data0 1614  
                   __end_of_keypad_sampels 1011                     ?_application_initializ 0051  
                                 __Hrparam 0000                                   __Lrparam 0000  
                   ?_Interrupt_RBx_Disable 005D                                   __ptext10 1788  
                                 __ptext20 1478                                   __ptext12 1668  
                                 __ptext21 17E6                                   __ptext13 1696  
                                 __ptext22 17EA                                   __ptext14 16C4  
                                 __ptext23 17EE                                   __ptext15 16F2  
                                 __ptext16 17B6                                   __ptext17 17C2  
                                 __ptext18 17CE                                   __ptext19 17DA  
                   ecu_dc_motor_stop@F3085 004A                     ecu_dc_motor_stop@F3087 0049  
               ??_Interrupt_RBx_Clear_Flag 005E                       _Interrupt_RBx_Enable 1744  
                  ecu_relay_turn_off@F3071 0042                                   isa$xinst 0000  
                                 int$flags 0069                     ecu_led_initializ@F3061 0048  
                               _INTCONbits 0FF2                       _RB6_InterruptHandler 0035  
             __end_of_gpio_pin_write_logic 13CE                                   intlevel2 0000  
                    ?_Interrupt_RBx_Enable 005D                     ecu_relay_turn_on@F3066 0043  
                    _gpio_pin_toggle_logic 1478                             _port_registers 0001  
                       _Interrupt_RBx_init 15B4                 gpio_pin_direction_init@ret 0063  
                      ?_Interrupt_RBx_init 0066                          _Interrupt_Manager 0008  
                       ?_Interrupt_Manager 0051  
