

Microchip MPLAB XC8 Assembler V2.46 build 20240104201356 
                                                                                               Sat Aug 31 23:34:41 2024

Microchip MPLAB XC8 C Compiler v2.46 (Free license) build 20240104201356 Og1 
     1                           	processor	18F4620
     2                           	fnconf	rparam,??,?,0
     3                           	pagewidth 120
     4                           	opt	flic
     5                           	psect	idataCOMRAM,global,class=CODE,delta=1,noexec
     6                           	psect	idataBANK0,global,class=CODE,delta=1,noexec
     7                           	psect	smallconst,global,reloc=2,class=SMALLCONST,delta=1,noexec
     8                           	psect	nvCOMRAM,global,class=COMRAM,space=1,delta=1,lowdata,noexec
     9                           	psect	cinit,global,reloc=2,class=CODE,delta=1
    10                           	psect	bssCOMRAM,global,class=COMRAM,space=1,delta=1,lowdata,noexec
    11                           	psect	dataCOMRAM,global,class=COMRAM,space=1,delta=1,lowdata,noexec
    12                           	psect	bssBANK0,global,class=BANK0,space=1,delta=1,lowdata,noexec
    13                           	psect	dataBANK0,global,class=BANK0,space=1,delta=1,lowdata,noexec
    14                           	psect	cstackBANK0,global,class=BANK0,space=1,delta=1,lowdata,noexec
    15                           	psect	cstackCOMRAM,global,class=COMRAM,space=1,delta=1,lowdata,noexec
    16                           	psect	text0,global,reloc=2,class=CODE,delta=1
    17                           	psect	text1,global,reloc=2,class=CODE,delta=1
    18                           	psect	text2,global,reloc=2,class=CODE,delta=1
    19                           	psect	text3,global,reloc=2,class=CODE,delta=1,inline
    20                           	psect	text4,global,reloc=2,class=CODE,delta=1,inline
    21                           	psect	text5,global,reloc=2,class=CODE,delta=1,inline
    22                           	psect	text6,global,reloc=2,class=CODE,delta=1,inline
    23                           	psect	text7,global,reloc=2,class=CODE,delta=1,inline
    24                           	psect	text8,global,reloc=2,class=CODE,delta=1,inline
    25                           	psect	intcode,global,reloc=2,class=CODE,delta=1
    26                           	psect	intcode_body,global,reloc=2,class=CODE,delta=1
    27                           	psect	text10,global,reloc=2,class=CODE,delta=1
    28                           	psect	text11,global,reloc=2,class=CODE,delta=1
    29                           	psect	text12,global,reloc=2,class=CODE,delta=1
    30                           	psect	text13,global,reloc=2,class=CODE,delta=1
    31                           	psect	text14,global,reloc=2,class=CODE,delta=1
    32                           	psect	text15,global,reloc=2,class=CODE,delta=1
    33                           	psect	text16,global,reloc=2,class=CODE,delta=1
    34                           	psect	text17,global,reloc=2,class=CODE,delta=1
    35                           	psect	text18,global,reloc=2,class=CODE,delta=1
    36                           	psect	text19,global,reloc=2,class=CODE,delta=1
    37                           	psect	text20,global,reloc=2,class=CODE,delta=1
    38                           	psect	text21,global,reloc=2,class=CODE,delta=1
    39                           	psect	text22,global,reloc=2,class=CODE,delta=1
    40                           	psect	intsave_regs,global,class=BIGRAM,space=1,delta=1,noexec
    41                           	psect	rparam,global,class=COMRAM,space=1,delta=1,noexec
    42                           	psect	temp,global,ovrld,common,class=COMRAM,space=1,delta=1,lowdata
    43                           	psect	config,global,abs,ovrld,class=CONFIG,space=4,delta=1,noexec
    44   000000                     
    45                           ; Generated 17/10/2023 GMT
    46                           ; 
    47                           ; Copyright © 2023, Microchip Technology Inc. and its subsidiaries ("Microchip")
    48                           ; All rights reserved.
    49                           ; 
    50                           ; This software is developed by Microchip Technology Inc. and its subsidiaries ("Microch
      +                          ip").
    51                           ; 
    52                           ; Redistribution and use in source and binary forms, with or without modification, are
    53                           ; permitted provided that the following conditions are met:
    54                           ; 
    55                           ;     1. Redistributions of source code must retain the above copyright notice, this lis
      +                          t of
    56                           ;        conditions and the following disclaimer.
    57                           ; 
    58                           ;     2. Redistributions in binary form must reproduce the above copyright notice, this 
      +                          list
    59                           ;        of conditions and the following disclaimer in the documentation and/or other
    60                           ;        materials provided with the distribution. Publication is not required when
    61                           ;        this file is used in an embedded application.
    62                           ; 
    63                           ;     3. Microchip's name may not be used to endorse or promote products derived from th
      +                          is
    64                           ;        software without specific prior written permission.
    65                           ; 
    66                           ; THIS SOFTWARE IS PROVIDED BY MICROCHIP "AS IS" AND ANY EXPRESS OR IMPLIED WARRANTIES,
    67                           ; INCLUDING, BUT NOT LIMITED TO, THE IMPLIED WARRANTIES OF MERCHANTABILITY AND FITNESS F
      +                          OR
    68                           ; PURPOSE ARE DISCLAIMED.  IN NO EVENT SHALL MICROCHIP BE LIABLE FOR ANY DIRECT, INDIREC
      +                          T,
    69                           ; INCIDENTAL, SPECIAL, EXEMPLARY, OR CONSEQUENTIAL DAMAGES (INCLUDING BUT NOT LIMITED TO
    70                           ; PROCUREMENT OF SUBSTITUTE GOODS OR SERVICES; LOSS OF USE, DATA OR PROFITS; OR BUSINESS
    71                           ; INTERRUPTION) HOWSOEVER CAUSED AND ON ANY THEORY OF LIABILITY, WHETHER IN CONTRACT, ST
      +                          RICT
    72                           ; LIABILITY, OR TORT (INCLUDING NEGLIGENCE OR OTHERWISE) ARISING IN ANY WAY OUT OF THE U
      +                          SE OF
    73                           ; THIS SOFTWARE, EVEN IF ADVISED OF THE POSSIBILITY OF SUCH DAMAGE.
    74                           ; 
    75                           ; 
    76                           ; Code-generator required, PIC18F4620 Definitions
    77                           ; 
    78                           ; SFR Addresses
    79   000000                     
    80                           	psect	idataCOMRAM
    81   001468                     __pidataCOMRAM:
    82                           	callstack 0
    83                           
    84                           ;initializer for _lat_registers
    85   001468  89                 	db	137
    86   001469  0F                 	db	15
    87   00146A  8A                 	db	138
    88   00146B  0F                 	db	15
    89   00146C  8B                 	db	139
    90   00146D  0F                 	db	15
    91   00146E  8C                 	db	140
    92   00146F  0F                 	db	15
    93   001470  8D                 	db	141
    94   001471  0F                 	db	15
    95                           
    96                           ;initializer for _tris_registers
    97   001472  92                 	db	146
    98   001473  0F                 	db	15
    99   001474  93                 	db	147
   100   001475  0F                 	db	15
   101   001476  94                 	db	148
   102   001477  0F                 	db	15
   103   001478  95                 	db	149
   104   001479  0F                 	db	15
   105   00147A  96                 	db	150
   106   00147B  0F                 	db	15
   107                           
   108                           	psect	idataBANK0
   109   00147C                     __pidataBANK0:
   110                           	callstack 0
   111                           
   112                           ;initializer for _port_registers
   113   00147C  80                 	db	128
   114   00147D  0F                 	db	15
   115   00147E  81                 	db	129
   116   00147F  0F                 	db	15
   117   001480  82                 	db	130
   118   001481  0F                 	db	15
   119   001482  83                 	db	131
   120   001483  0F                 	db	15
   121   001484  84                 	db	132
   122   001485  0F                 	db	15
   123                           
   124                           ;initializer for _timer3
   125   001486  D2                 	db	low _Timer3_Interrupt_function
   126   001487  14                 	db	high _Timer3_Interrupt_function
   127   001488  00                 	db	0
   128   001489  03                 	db	3
   129   00148A  01                 	db	1
   130   00148B  01                 	db	1
   131   00148C  01                 	db	1
   132   00148D  3CB0               	dw	15536
   133                           
   134                           	psect	smallconst
   135   001000                     __psmallconst:
   136                           	callstack 0
   137   001000  00                 	db	0
   138   001001                     _keypad_sampels:
   139                           	callstack 0
   140   001001  37                 	db	55
   141   001002  38                 	db	56
   142   001003  39                 	db	57
   143   001004  2F                 	db	47
   144   001005  34                 	db	52
   145   001006  35                 	db	53
   146   001007  36                 	db	54
   147   001008  2A                 	db	42
   148   001009  31                 	db	49
   149   00100A  32                 	db	50
   150   00100B  33                 	db	51
   151   00100C  2D                 	db	45
   152   00100D  23                 	db	35
   153   00100E  30                 	db	48
   154   00100F  3D                 	db	61
   155   001010  2B                 	db	43
   156   001011                     __end_of_keypad_sampels:
   157                           	callstack 0
   158   000000                     _TMR3L	set	4018
   159   000000                     _TMR3H	set	4019
   160   000000                     _TMR1L	set	4046
   161   000000                     _TMR1H	set	4047
   162   000000                     _TMR0L	set	4054
   163   000000                     _TMR0H	set	4055
   164   000000                     _INTCON2bits	set	4081
   165   000000                     _EECON2	set	4007
   166   000000                     _ADCON1bits	set	4033
   167   000000                     _ADRESL	set	4035
   168   000000                     _ADRESH	set	4036
   169   000000                     _TRISD	set	3989
   170   000000                     _TRISC	set	3988
   171   000000                     _TRISB	set	3987
   172   000000                     _TRISE	set	3990
   173   001011                     STR_1:
   174   001011  25                 	db	37
   175   001012  69                 	db	105	;'i'
   176   001013  00                 	db	0
   177   001014  00                 	db	0	; dummy byte at the end
   178   000000                     
   179                           	psect	nvCOMRAM
   180   00007C                     __pnvCOMRAM:
   181                           	callstack 0
   182   00007C                     _ret:
   183                           	callstack 0
   184   00007C                     	ds	1
   185   000000                     _PORTBbits	set	3969
   186   000000                     _PIE1bits	set	3997
   187   000000                     _ADCON2bits	set	4032
   188   000000                     _ADCON0bits	set	4034
   189   000000                     _PORTE	set	3972
   190   000000                     _PORTD	set	3971
   191   000000                     _PORTC	set	3970
   192   000000                     _PORTB	set	3969
   193   000000                     _PORTA	set	3968
   194   000000                     _LATA	set	3977
   195   000000                     _TRISA	set	3986
   196   000000                     _PIE2bits	set	4000
   197   000000                     _EECON1bits	set	4006
   198   000000                     _EEDATA	set	4008
   199   000000                     _EEADR	set	4009
   200   000000                     _EEADRH	set	4010
   201   000000                     _PIR1bits	set	3998
   202   000000                     _T2CONbits	set	4042
   203   000000                     _T1CONbits	set	4045
   204   000000                     _T0CONbits	set	4053
   205   000000                     _INTCON3bits	set	4080
   206   000000                     _INTCONbits	set	4082
   207   000000                     _T3CONbits	set	4017
   208   000000                     _LATE	set	3981
   209   000000                     _LATD	set	3980
   210   000000                     _LATC	set	3979
   211   000000                     _LATB	set	3978
   212   000000                     _PIR2bits	set	4001
   213   000000                     _TMR2	set	4044
   214                           
   215                           ; #config settings
   216                           
   217                           	psect	cinit
   218   001292                     __pcinit:
   219                           	callstack 0
   220   001292                     start_initialization:
   221                           	callstack 0
   222   001292                     __initialization:
   223                           	callstack 0
   224                           
   225                           ; Initialize objects allocated to BANK0 (19 bytes)
   226                           ; load TBLPTR registers with __pidataBANK0
   227   001292  0E7C               	movlw	low __pidataBANK0
   228   001294  6EF6               	movwf	tblptrl,c
   229   001296  0E14               	movlw	high __pidataBANK0
   230   001298  6EF7               	movwf	tblptrh,c
   231   00129A  0E00               	movlw	low (__pidataBANK0 shr (0+16))
   232   00129C  6EF8               	movwf	tblptru,c
   233   00129E  EE00  F095         	lfsr	0,__pdataBANK0
   234   0012A2  EE10 F013          	lfsr	1,19
   235   0012A6                     copy_data0:
   236   0012A6  0009               	tblrd		*+
   237   0012A8  CFF5 FFEE          	movff	tablat,postinc0
   238   0012AC  50E5               	movf	postdec1,w,c
   239   0012AE  50E1               	movf	fsr1l,w,c
   240   0012B0  E1FA               	bnz	copy_data0
   241                           
   242                           ; Initialize objects allocated to COMRAM (20 bytes)
   243                           ; load TBLPTR registers with __pidataCOMRAM
   244   0012B2  0E68               	movlw	low __pidataCOMRAM
   245   0012B4  6EF6               	movwf	tblptrl,c
   246   0012B6  0E14               	movlw	high __pidataCOMRAM
   247   0012B8  6EF7               	movwf	tblptrh,c
   248   0012BA  0E00               	movlw	low (__pidataCOMRAM shr (0+16))
   249   0012BC  6EF8               	movwf	tblptru,c
   250   0012BE  EE00  F062         	lfsr	0,__pdataCOMRAM
   251   0012C2  EE10 F014          	lfsr	1,20
   252   0012C6                     copy_data1:
   253   0012C6  0009               	tblrd		*+
   254   0012C8  CFF5 FFEE          	movff	tablat,postinc0
   255   0012CC  50E5               	movf	postdec1,w,c
   256   0012CE  50E1               	movf	fsr1l,w,c
   257   0012D0  E1FA               	bnz	copy_data1
   258                           
   259                           ; Clear objects allocated to BANK0 (21 bytes)
   260   0012D2  EE00  F080         	lfsr	0,__pbssBANK0
   261   0012D6  0E15               	movlw	21
   262   0012D8                     clear_0:
   263   0012D8  6AEE               	clrf	postinc0,c
   264   0012DA  06E8               	decf	wreg,f,c
   265   0012DC  E1FD               	bnz	clear_0
   266                           
   267                           ; Clear objects allocated to COMRAM (97 bytes)
   268   0012DE  EE00  F001         	lfsr	0,__pbssCOMRAM
   269   0012E2  0E61               	movlw	97
   270   0012E4                     clear_1:
   271   0012E4  6AEE               	clrf	postinc0,c
   272   0012E6  06E8               	decf	wreg,f,c
   273   0012E8  E1FD               	bnz	clear_1
   274   0012EA                     end_of_initialization:
   275                           	callstack 0
   276   0012EA                     __end_of__initialization:
   277                           	callstack 0
   278   0012EA  907D               	bcf	int$flags,0,c	;clear compiler interrupt flag (level 1)
   279   0012EC  927D               	bcf	int$flags,1,c	;clear compiler interrupt flag (level 2)
   280   0012EE  0100               	movlb	0
   281   0012F0  EF48  F00A         	goto	_main	;jump to C main() function
   282                           
   283                           	psect	bssCOMRAM
   284   000001                     __pbssCOMRAM:
   285                           	callstack 0
   286   000001                     ecu_relay_toggle@F3076:
   287                           	callstack 0
   288   000001                     	ds	4
   289   000005                     ecu_relay_turn_off@F3071:
   290                           	callstack 0
   291   000005                     	ds	4
   292   000009                     ecu_relay_turn_on@F3066:
   293                           	callstack 0
   294   000009                     	ds	4
   295   00000D                     ecu_relay_initializ@F3061:
   296                           	callstack 0
   297   00000D                     	ds	4
   298   000011                     ecu_led_toggle@F3076:
   299                           	callstack 0
   300   000011                     	ds	4
   301   000015                     ecu_led_turn_off@F3071:
   302                           	callstack 0
   303   000015                     	ds	4
   304   000019                     ecu_led_turn_on@F3066:
   305                           	callstack 0
   306   000019                     	ds	4
   307   00001D                     ecu_led_initializ@F3061:
   308                           	callstack 0
   309   00001D                     	ds	4
   310   000021                     ecu_dc_motor_stop@F3087:
   311                           	callstack 0
   312   000021                     	ds	4
   313   000025                     ecu_dc_motor_stop@F3085:
   314                           	callstack 0
   315   000025                     	ds	4
   316   000029                     ecu_dc_motor_move_left@F3080:
   317                           	callstack 0
   318   000029                     	ds	4
   319   00002D                     ecu_dc_motor_move_left@F3078:
   320                           	callstack 0
   321   00002D                     	ds	4
   322   000031                     ecu_dc_motor_move_right@F3073:
   323                           	callstack 0
   324   000031                     	ds	4
   325   000035                     ecu_dc_motor_move_right@F3071:
   326                           	callstack 0
   327   000035                     	ds	4
   328   000039                     ecu_dc_motor_initializ@F3066:
   329                           	callstack 0
   330   000039                     	ds	4
   331   00003D                     ecu_dc_motor_initializ@F3064:
   332                           	callstack 0
   333   00003D                     	ds	4
   334   000041                     _preloaded_value@Timer3$F3139:
   335                           	callstack 0
   336   000041                     	ds	2
   337   000043                     _TMR3_Interrupt_Handler:
   338                           	callstack 0
   339   000043                     	ds	2
   340   000045                     _counter_value:
   341                           	callstack 0
   342   000045                     	ds	2
   343   000047                     _TMR2_Interrupt_Handler:
   344                           	callstack 0
   345   000047                     	ds	2
   346   000049                     _preloaded_value@Timer1$F2596:
   347                           	callstack 0
   348   000049                     	ds	2
   349   00004B                     _TMR1_Interrupt_Handler:
   350                           	callstack 0
   351   00004B                     	ds	2
   352   00004D                     _preloaded_value:
   353                           	callstack 0
   354   00004D                     	ds	2
   355   00004F                     _TMR_Interrupt_Handler:
   356                           	callstack 0
   357   00004F                     	ds	2
   358   000051                     _RB7_InterruptHandler:
   359                           	callstack 0
   360   000051                     	ds	2
   361   000053                     _RB6_InterruptHandler:
   362                           	callstack 0
   363   000053                     	ds	2
   364   000055                     _RB5_InterruptHandler:
   365                           	callstack 0
   366   000055                     	ds	2
   367   000057                     _RB4_InterruptHandler:
   368                           	callstack 0
   369   000057                     	ds	2
   370   000059                     _INT2_InterruptHandler:
   371                           	callstack 0
   372   000059                     	ds	2
   373   00005B                     _INT1_InterruptHandler:
   374                           	callstack 0
   375   00005B                     	ds	2
   376   00005D                     _INT0_InterruptHandler:
   377                           	callstack 0
   378   00005D                     	ds	2
   379   00005F                     _ADC_InterruptHandler:
   380                           	callstack 0
   381   00005F                     	ds	2
   382   000061                     _preloaded_value@Timer2$F2847:
   383                           	callstack 0
   384   000061                     	ds	1
   385                           
   386                           	psect	dataCOMRAM
   387   000062                     __pdataCOMRAM:
   388                           	callstack 0
   389   000062                     _lat_registers:
   390                           	callstack 0
   391   000062                     	ds	10
   392   00006C                     _tris_registers:
   393                           	callstack 0
   394   00006C                     	ds	10
   395                           
   396                           	psect	bssBANK0
   397   000080                     __pbssBANK0:
   398                           	callstack 0
   399   000080                     	ds	11
   400   00008B                     	ds	6
   401   000091                     	ds	4
   402                           
   403                           	psect	dataBANK0
   404   000095                     __pdataBANK0:
   405                           	callstack 0
   406   000095                     _port_registers:
   407                           	callstack 0
   408   000095                     	ds	10
   409   00009F                     _timer3:
   410                           	callstack 0
   411   00009F                     	ds	9
   412                           
   413                           	psect	cstackBANK0
   414   0000A8                     __pcstackBANK0:
   415                           	callstack 0
   416   0000A8                     Timer3_Init@ret:
   417                           	callstack 0
   418                           
   419                           ; 1 bytes @ 0x0
   420   0000A8                     	ds	1
   421                           
   422                           	psect	cstackCOMRAM
   423   000076                     __pcstackCOMRAM:
   424                           	callstack 0
   425   000076                     ??_Interrupt_Manager:
   426   000076                     
   427                           ; 2 bytes @ 0x0
   428   000076                     	ds	2
   429   000078                     Timer3_Prescaler_config@timer3_confg:
   430                           	callstack 0
   431   000078                     Timer3_Mode@timer3_confg:
   432                           	callstack 0
   433   000078                     Timer3_Register_Size@timer3_confg:
   434                           	callstack 0
   435   000078                     Timer3_Interrupt_init@timer3_confg:
   436                           	callstack 0
   437   000078                     Timer3_preloaded_value@timer3_confg:
   438                           	callstack 0
   439   000078                     Timer3_Clock_Synchronous_Status@timer3_confg:
   440                           	callstack 0
   441                           
   442                           ; 1 bytes @ 0x2
   443   000078                     	ds	1
   444   000079                     ??_Timer3_Prescaler_config:
   445   000079                     ??_Timer3_Mode:
   446   000079                     ??_Timer3_Register_Size:
   447   000079                     ??_Timer3_Clock_Synchronous_Status:
   448   000079                     ??_Timer3_preloaded_value:
   449   000079                     
   450                           ; 1 bytes @ 0x3
   451   000079                     	ds	2
   452   00007B                     Timer3_Init@timer3_confg:
   453                           	callstack 0
   454                           
   455                           ; 1 bytes @ 0x5
   456   00007B                     	ds	1
   457   00007C                     
   458                           ; 1 bytes @ 0x6
   459 ;;
   460 ;;Main: autosize = 0, tempsize = 0, incstack = 0, save=0
   461 ;;
   462 ;; *************** function _main *****************
   463 ;; Defined at:
   464 ;;		line 16 in file "application.c"
   465 ;; Parameters:    Size  Location     Type
   466 ;;		None
   467 ;; Auto vars:     Size  Location     Type
   468 ;;		None
   469 ;; Return value:  Size  Location     Type
   470 ;;                  2  1213[None  ] int 
   471 ;; Registers used:
   472 ;;		wreg, fsr2l, fsr2h, status,2, status,0, cstack
   473 ;; Tracked objects:
   474 ;;		On entry : 0/0
   475 ;;		On exit  : 0/0
   476 ;;		Unchanged: 0/0
   477 ;; Data sizes:     COMRAM   BANK0   BANK1   BANK2   BANK3   BANK4   BANK5   BANK6   BANK7   BANK8   BANK9  BANK10  BANK1
      +1  BANK12  BANK13  BANK14  BANK15
   478 ;;      Params:         0       0       0       0       0       0       0       0       0       0       0       0       
      +0       0       0       0       0
   479 ;;      Locals:         0       0       0       0       0       0       0       0       0       0       0       0       
      +0       0       0       0       0
   480 ;;      Temps:          0       0       0       0       0       0       0       0       0       0       0       0       
      +0       0       0       0       0
   481 ;;      Totals:         0       0       0       0       0       0       0       0       0       0       0       0       
      +0       0       0       0       0
   482 ;;Total ram usage:        0 bytes
   483 ;; Hardware stack levels required when called: 6
   484 ;; This function calls:
   485 ;;		_application_initializ
   486 ;; This function is called by:
   487 ;;		Startup code after reset
   488 ;; This function uses a non-reentrant model
   489 ;;
   490                           
   491                           	psect	text0
   492   001490                     __ptext0:
   493                           	callstack 0
   494   001490                     _main:
   495                           	callstack 25
   496   001490                     
   497                           ;application.c: 18:     application_initializ();
   498   001490  EC4E  F00A         	call	_application_initializ	;wreg free
   499   001494                     l1214:
   500   001494  EF4A  F00A         	goto	l1214
   501   001498  EF07  F000         	goto	start
   502   00149C                     __end_of_main:
   503                           	callstack 0
   504                           
   505 ;; *************** function _application_initializ *****************
   506 ;; Defined at:
   507 ;;		line 27 in file "application.c"
   508 ;; Parameters:    Size  Location     Type
   509 ;;		None
   510 ;; Auto vars:     Size  Location     Type
   511 ;;		None
   512 ;; Return value:  Size  Location     Type
   513 ;;                  1    wreg      void 
   514 ;; Registers used:
   515 ;;		wreg, fsr2l, fsr2h, status,2, status,0, cstack
   516 ;; Tracked objects:
   517 ;;		On entry : 0/0
   518 ;;		On exit  : 0/0
   519 ;;		Unchanged: 0/0
   520 ;; Data sizes:     COMRAM   BANK0   BANK1   BANK2   BANK3   BANK4   BANK5   BANK6   BANK7   BANK8   BANK9  BANK10  BANK1
      +1  BANK12  BANK13  BANK14  BANK15
   521 ;;      Params:         0       0       0       0       0       0       0       0       0       0       0       0       
      +0       0       0       0       0
   522 ;;      Locals:         0       0       0       0       0       0       0       0       0       0       0       0       
      +0       0       0       0       0
   523 ;;      Temps:          0       0       0       0       0       0       0       0       0       0       0       0       
      +0       0       0       0       0
   524 ;;      Totals:         0       0       0       0       0       0       0       0       0       0       0       0       
      +0       0       0       0       0
   525 ;;Total ram usage:        0 bytes
   526 ;; Hardware stack levels used: 1
   527 ;; Hardware stack levels required when called: 5
   528 ;; This function calls:
   529 ;;		_Timer3_Init
   530 ;; This function is called by:
   531 ;;		_main
   532 ;; This function uses a non-reentrant model
   533 ;;
   534                           
   535                           	psect	text1
   536   00149C                     __ptext1:
   537                           	callstack 0
   538   00149C                     _application_initializ:
   539                           	callstack 25
   540   00149C                     
   541                           ;application.c: 29:     ret = Timer3_Init(&timer3);
   542   00149C  0E9F               	movlw	low _timer3
   543   00149E  6E7B               	movwf	Timer3_Init@timer3_confg^0,c
   544   0014A0  EC16  F009         	call	_Timer3_Init	;wreg free
   545   0014A4  6E7C               	movwf	_ret^0,c
   546   0014A6  0012               	return		;funcret
   547   0014A8                     __end_of_application_initializ:
   548                           	callstack 0
   549                           
   550 ;; *************** function _Timer3_Init *****************
   551 ;; Defined at:
   552 ;;		line 27 in file "MCAL_layer/Timer3/Timer3.c"
   553 ;; Parameters:    Size  Location     Type
   554 ;;  timer3_confg    1    5[COMRAM] PTR const struct .
   555 ;;		 -> timer3(9), 
   556 ;; Auto vars:     Size  Location     Type
   557 ;;  ret             1    0[BANK0 ] unsigned char 
   558 ;; Return value:  Size  Location     Type
   559 ;;                  1    wreg      unsigned char 
   560 ;; Registers used:
   561 ;;		wreg, fsr2l, fsr2h, status,2, status,0, cstack
   562 ;; Tracked objects:
   563 ;;		On entry : 0/0
   564 ;;		On exit  : 0/0
   565 ;;		Unchanged: 0/0
   566 ;; Data sizes:     COMRAM   BANK0   BANK1   BANK2   BANK3   BANK4   BANK5   BANK6   BANK7   BANK8   BANK9  BANK10  BANK1
      +1  BANK12  BANK13  BANK14  BANK15
   567 ;;      Params:         1       0       0       0       0       0       0       0       0       0       0       0       
      +0       0       0       0       0
   568 ;;      Locals:         0       1       0       0       0       0       0       0       0       0       0       0       
      +0       0       0       0       0
   569 ;;      Temps:          0       0       0       0       0       0       0       0       0       0       0       0       
      +0       0       0       0       0
   570 ;;      Totals:         1       1       0       0       0       0       0       0       0       0       0       0       
      +0       0       0       0       0
   571 ;;Total ram usage:        2 bytes
   572 ;; Hardware stack levels used: 1
   573 ;; Hardware stack levels required when called: 4
   574 ;; This function calls:
   575 ;;		_Timer3_Clock_Synchronous_Status
   576 ;;		_Timer3_Interrupt_init
   577 ;;		_Timer3_Mode
   578 ;;		_Timer3_Prescaler_config
   579 ;;		_Timer3_Register_Size
   580 ;;		_Timer3_preloaded_value
   581 ;; This function is called by:
   582 ;;		_application_initializ
   583 ;; This function uses a non-reentrant model
   584 ;;
   585                           
   586                           	psect	text2
   587   00122C                     __ptext2:
   588                           	callstack 0
   589   00122C                     _Timer3_Init:
   590                           	callstack 25
   591   00122C                     
   592                           ;MCAL_layer/Timer3/Timer3.c: 27: STD_ReturnType Timer3_Init(const timer3_t *timer3_confg
      +                          );MCAL_layer/Timer3/Timer3.c: 28: {;MCAL_layer/Timer3/Timer3.c: 29:     STD_ReturnType r
      +                          et = (STD_ReturnType)0x01;
   593   00122C  0E01               	movlw	1
   594   00122E  0100               	movlb	0	; () banked
   595   001230  6FA8               	movwf	Timer3_Init@ret& (0+255),b
   596                           
   597                           ;MCAL_layer/Timer3/Timer3.c: 30:     if(((void*)0) == timer3_confg)
   598   001232  507B               	movf	Timer3_Init@timer3_confg^0,w,c
   599   001234  A4D8               	btfss	status,2,c
   600   001236  EF1F  F009         	goto	u2341
   601   00123A  EF21  F009         	goto	u2340
   602   00123E                     u2341:
   603   00123E  EF25  F009         	goto	l1254
   604   001242                     u2340:
   605   001242                     
   606                           ; BSR set to: 0
   607                           ;MCAL_layer/Timer3/Timer3.c: 31:     {;MCAL_layer/Timer3/Timer3.c: 32:         ret = (ST
      +                          D_ReturnType)0x00;
   608   001242  0E00               	movlw	0
   609   001244  6FA8               	movwf	Timer3_Init@ret& (0+255),b
   610                           
   611                           ;MCAL_layer/Timer3/Timer3.c: 33:     }
   612   001246  EF46  F009         	goto	l1255
   613   00124A                     l1254:
   614                           
   615                           ; BSR set to: 0
   616                           ;MCAL_layer/Timer3/Timer3.c: 35:     {;MCAL_layer/Timer3/Timer3.c: 36:         (T3CONbit
      +                          s.TMR3ON = 0);
   617   00124A  90B1               	bcf	177,0,c	;volatile
   618   00124C                     
   619                           ; BSR set to: 0
   620                           ;MCAL_layer/Timer3/Timer3.c: 38:         Timer3_Prescaler_config(timer3_confg);
   621   00124C  C07B  F078         	movff	Timer3_Init@timer3_confg,Timer3_Prescaler_config@timer3_confg
   622   001250  EC26  F00A         	call	_Timer3_Prescaler_config	;wreg free
   623                           
   624                           ;MCAL_layer/Timer3/Timer3.c: 39:         Timer3_Mode(timer3_confg);
   625   001254  C07B  F078         	movff	Timer3_Init@timer3_confg,Timer3_Mode@timer3_confg
   626   001258  ECA0  F009         	call	_Timer3_Mode	;wreg free
   627                           
   628                           ;MCAL_layer/Timer3/Timer3.c: 40:         Timer3_Register_Size(timer3_confg);
   629   00125C  C07B  F078         	movff	Timer3_Init@timer3_confg,Timer3_Register_Size@timer3_confg
   630   001260  EC7A  F009         	call	_Timer3_Register_Size	;wreg free
   631                           
   632                           ;MCAL_layer/Timer3/Timer3.c: 41:         Timer3_Clock_Synchronous_Status(timer3_confg);
   633   001264  C07B  F078         	movff	Timer3_Init@timer3_confg,Timer3_Clock_Synchronous_Status@timer3_confg
   634   001268  ECC6  F009         	call	_Timer3_Clock_Synchronous_Status	;wreg free
   635                           
   636                           ;MCAL_layer/Timer3/Timer3.c: 42:         Timer3_preloaded_value(timer3_confg);
   637   00126C  C07B  F078         	movff	Timer3_Init@timer3_confg,Timer3_preloaded_value@timer3_confg
   638   001270  ECEC  F009         	call	_Timer3_preloaded_value	;wreg free
   639   001274                     
   640                           ;MCAL_layer/Timer3/Timer3.c: 43:         Timer3_Interrupt_init(timer3_confg);
   641   001274  C07B  F078         	movff	Timer3_Init@timer3_confg,Timer3_Interrupt_init@timer3_confg
   642   001278  EC60  F00A         	call	_Timer3_Interrupt_init	;wreg free
   643   00127C                     
   644                           ;MCAL_layer/Timer3/Timer3.c: 44:         TMR3_Interrupt_Handler = timer3_confg->Timer3_I
      +                          nterrupt_Handlar;
   645   00127C  507B               	movf	Timer3_Init@timer3_confg^0,w,c
   646   00127E  6ED9               	movwf	fsr2l,c
   647   001280  6ADA               	clrf	fsr2h,c
   648   001282  CFDE F043          	movff	postinc2,_TMR3_Interrupt_Handler
   649   001286  CFDD F044          	movff	postdec2,_TMR3_Interrupt_Handler+1
   650   00128A                     
   651                           ;MCAL_layer/Timer3/Timer3.c: 46:         (T3CONbits.TMR3ON = 1);
   652   00128A  80B1               	bsf	177,0,c	;volatile
   653   00128C                     l1255:
   654                           
   655                           ;MCAL_layer/Timer3/Timer3.c: 49:     return ret;
   656   00128C  0100               	movlb	0	; () banked
   657   00128E  51A8               	movf	Timer3_Init@ret& (0+255),w,b
   658   001290                     
   659                           ; BSR set to: 0
   660   001290  0012               	return		;funcret
   661   001292                     __end_of_Timer3_Init:
   662                           	callstack 0
   663                           
   664 ;; *************** function _Timer3_preloaded_value *****************
   665 ;; Defined at:
   666 ;;		line 192 in file "MCAL_layer/Timer3/Timer3.c"
   667 ;; Parameters:    Size  Location     Type
   668 ;;  timer3_confg    1    2[COMRAM] PTR const struct .
   669 ;;		 -> timer3(9), 
   670 ;; Auto vars:     Size  Location     Type
   671 ;;		None
   672 ;; Return value:  Size  Location     Type
   673 ;;                  1    wreg      void 
   674 ;; Registers used:
   675 ;;		wreg, fsr2l, fsr2h, status,2, status,0
   676 ;; Tracked objects:
   677 ;;		On entry : 0/0
   678 ;;		On exit  : 0/0
   679 ;;		Unchanged: 0/0
   680 ;; Data sizes:     COMRAM   BANK0   BANK1   BANK2   BANK3   BANK4   BANK5   BANK6   BANK7   BANK8   BANK9  BANK10  BANK1
      +1  BANK12  BANK13  BANK14  BANK15
   681 ;;      Params:         1       0       0       0       0       0       0       0       0       0       0       0       
      +0       0       0       0       0
   682 ;;      Locals:         0       0       0       0       0       0       0       0       0       0       0       0       
      +0       0       0       0       0
   683 ;;      Temps:          2       0       0       0       0       0       0       0       0       0       0       0       
      +0       0       0       0       0
   684 ;;      Totals:         3       0       0       0       0       0       0       0       0       0       0       0       
      +0       0       0       0       0
   685 ;;Total ram usage:        3 bytes
   686 ;; Hardware stack levels used: 1
   687 ;; Hardware stack levels required when called: 3
   688 ;; This function calls:
   689 ;;		Nothing
   690 ;; This function is called by:
   691 ;;		_Timer3_Init
   692 ;; This function uses a non-reentrant model
   693 ;;
   694                           
   695                           	psect	text3
   696   0013D8                     __ptext3:
   697                           	callstack 0
   698   0013D8                     _Timer3_preloaded_value:
   699                           	callstack 25
   700   0013D8                     
   701                           ;MCAL_layer/Timer3/Timer3.c: 192: static __attribute__((inline)) void Timer3_preloaded_v
      +                          alue(const timer3_t *timer3_confg);MCAL_layer/Timer3/Timer3.c: 193: {;MCAL_layer/Timer3/
      +                          Timer3.c: 194:     TMR3H = ((timer3_confg->preloaded_value) >> 8);
   702   0013D8  5078               	movf	Timer3_preloaded_value@timer3_confg^0,w,c
   703   0013DA  6ED9               	movwf	fsr2l,c
   704   0013DC  6ADA               	clrf	fsr2h,c
   705   0013DE  0E07               	movlw	7
   706   0013E0  26D9               	addwf	fsr2l,f,c
   707   0013E2  CFDE F079          	movff	postinc2,??_Timer3_preloaded_value
   708   0013E6  CFDD F07A          	movff	postdec2,??_Timer3_preloaded_value+1
   709   0013EA  C07A  F079         	movff	??_Timer3_preloaded_value+1,??_Timer3_preloaded_value
   710   0013EE  6A7A               	clrf	(??_Timer3_preloaded_value+1)^0,c
   711   0013F0  5079               	movf	??_Timer3_preloaded_value^0,w,c
   712   0013F2  6EB3               	movwf	179,c	;volatile
   713                           
   714                           ;MCAL_layer/Timer3/Timer3.c: 195:     TMR3L = (uint8)(timer3_confg->preloaded_value);
   715   0013F4  5078               	movf	Timer3_preloaded_value@timer3_confg^0,w,c
   716   0013F6  6ED9               	movwf	fsr2l,c
   717   0013F8  6ADA               	clrf	fsr2h,c
   718   0013FA  0E07               	movlw	7
   719   0013FC  26D9               	addwf	fsr2l,f,c
   720   0013FE  50DF               	movf	indf2,w,c
   721   001400  6EB2               	movwf	178,c	;volatile
   722                           
   723                           ;MCAL_layer/Timer3/Timer3.c: 196:     preloaded_value = timer3_confg->preloaded_value;
   724   001402  5078               	movf	Timer3_preloaded_value@timer3_confg^0,w,c
   725   001404  6ED9               	movwf	fsr2l,c
   726   001406  6ADA               	clrf	fsr2h,c
   727   001408  0E07               	movlw	7
   728   00140A  26D9               	addwf	fsr2l,f,c
   729   00140C  CFDE F041          	movff	postinc2,_preloaded_value@Timer3$F3139	;volatile
   730   001410  CFDD F042          	movff	postdec2,_preloaded_value@Timer3$F3139+1	;volatile
   731   001414  0012               	return		;funcret
   732   001416                     __end_of_Timer3_preloaded_value:
   733                           	callstack 0
   734                           
   735 ;; *************** function _Timer3_Register_Size *****************
   736 ;; Defined at:
   737 ;;		line 151 in file "MCAL_layer/Timer3/Timer3.c"
   738 ;; Parameters:    Size  Location     Type
   739 ;;  timer3_confg    1    2[COMRAM] PTR const struct .
   740 ;;		 -> timer3(9), 
   741 ;; Auto vars:     Size  Location     Type
   742 ;;		None
   743 ;; Return value:  Size  Location     Type
   744 ;;                  1    wreg      void 
   745 ;; Registers used:
   746 ;;		wreg, fsr2l, fsr2h, status,2, status,0
   747 ;; Tracked objects:
   748 ;;		On entry : 0/0
   749 ;;		On exit  : 0/0
   750 ;;		Unchanged: 0/0
   751 ;; Data sizes:     COMRAM   BANK0   BANK1   BANK2   BANK3   BANK4   BANK5   BANK6   BANK7   BANK8   BANK9  BANK10  BANK1
      +1  BANK12  BANK13  BANK14  BANK15
   752 ;;      Params:         1       0       0       0       0       0       0       0       0       0       0       0       
      +0       0       0       0       0
   753 ;;      Locals:         0       0       0       0       0       0       0       0       0       0       0       0       
      +0       0       0       0       0
   754 ;;      Temps:          2       0       0       0       0       0       0       0       0       0       0       0       
      +0       0       0       0       0
   755 ;;      Totals:         3       0       0       0       0       0       0       0       0       0       0       0       
      +0       0       0       0       0
   756 ;;Total ram usage:        3 bytes
   757 ;; Hardware stack levels used: 1
   758 ;; Hardware stack levels required when called: 3
   759 ;; This function calls:
   760 ;;		Nothing
   761 ;; This function is called by:
   762 ;;		_Timer3_Init
   763 ;; This function uses a non-reentrant model
   764 ;;
   765                           
   766                           	psect	text4
   767   0012F4                     __ptext4:
   768                           	callstack 0
   769   0012F4                     _Timer3_Register_Size:
   770                           	callstack 25
   771   0012F4                     
   772                           ;MCAL_layer/Timer3/Timer3.c: 151: static __attribute__((inline)) void Timer3_Register_Si
      +                          ze(const timer3_t *timer3_confg);MCAL_layer/Timer3/Timer3.c: 152: {;MCAL_layer/Timer3/Ti
      +                          mer3.c: 153:     switch (timer3_confg->register_size)
   773   0012F4  EF85  F009         	goto	l4341
   774   0012F8                     l1292:
   775                           
   776                           ;MCAL_layer/Timer3/Timer3.c: 156:             (T3CONbits.RD16 = 0);
   777   0012F8  9EB1               	bcf	177,7,c	;volatile
   778                           
   779                           ;MCAL_layer/Timer3/Timer3.c: 157:             break;
   780   0012FA  EF9F  F009         	goto	l1296
   781   0012FE                     l1294:
   782                           
   783                           ;MCAL_layer/Timer3/Timer3.c: 159:             (T3CONbits.RD16 = 1);
   784   0012FE  8EB1               	bsf	177,7,c	;volatile
   785                           
   786                           ;MCAL_layer/Timer3/Timer3.c: 160:             break;
   787   001300  EF9F  F009         	goto	l1296
   788   001304                     l1295:
   789                           
   790                           ;MCAL_layer/Timer3/Timer3.c: 162:             (T3CONbits.RD16 = 1);
   791   001304  8EB1               	bsf	177,7,c	;volatile
   792                           
   793                           ;MCAL_layer/Timer3/Timer3.c: 163:             break;
   794   001306  EF9F  F009         	goto	l1296
   795   00130A                     l4341:
   796   00130A  5078               	movf	Timer3_Register_Size@timer3_confg^0,w,c
   797   00130C  6ED9               	movwf	fsr2l,c
   798   00130E  6ADA               	clrf	fsr2h,c
   799   001310  0E05               	movlw	5
   800   001312  26D9               	addwf	fsr2l,f,c
   801   001314  50DF               	movf	indf2,w,c
   802   001316  6E79               	movwf	??_Timer3_Register_Size^0,c
   803   001318  6A7A               	clrf	(??_Timer3_Register_Size+1)^0,c
   804                           
   805                           ; Switch on 2 bytes has been partitioned into a top level switch of size 1, and 1 sub-sw
      +                          itches
   806                           ; Switch size 1, requested type "simple"
   807                           ; Number of cases is 1, Range of values is 0 to 0
   808                           ; switch strategies available:
   809                           ; Name         Instructions Cycles
   810                           ; simple_byte            4     3 (average)
   811                           ;	Chosen strategy is simple_byte
   812   00131A  507A               	movf	(??_Timer3_Register_Size+1)^0,w,c
   813   00131C  0A00               	xorlw	0	; case 0
   814   00131E  B4D8               	btfsc	status,2,c
   815   001320  EF94  F009         	goto	l4439
   816   001324  EF82  F009         	goto	l1295
   817   001328                     l4439:
   818                           
   819                           ; Switch size 1, requested type "simple"
   820                           ; Number of cases is 2, Range of values is 0 to 1
   821                           ; switch strategies available:
   822                           ; Name         Instructions Cycles
   823                           ; simple_byte            7     4 (average)
   824                           ;	Chosen strategy is simple_byte
   825   001328  5079               	movf	??_Timer3_Register_Size^0,w,c
   826   00132A  0A00               	xorlw	0	; case 0
   827   00132C  B4D8               	btfsc	status,2,c
   828   00132E  EF7C  F009         	goto	l1292
   829   001332  0A01               	xorlw	1	; case 1
   830   001334  B4D8               	btfsc	status,2,c
   831   001336  EF7F  F009         	goto	l1294
   832   00133A  EF82  F009         	goto	l1295
   833   00133E                     l1296:
   834   00133E  0012               	return		;funcret
   835   001340                     __end_of_Timer3_Register_Size:
   836                           	callstack 0
   837                           
   838 ;; *************** function _Timer3_Prescaler_config *****************
   839 ;; Defined at:
   840 ;;		line 129 in file "MCAL_layer/Timer3/Timer3.c"
   841 ;; Parameters:    Size  Location     Type
   842 ;;  timer3_confg    1    2[COMRAM] PTR const struct .
   843 ;;		 -> timer3(9), 
   844 ;; Auto vars:     Size  Location     Type
   845 ;;		None
   846 ;; Return value:  Size  Location     Type
   847 ;;                  1    wreg      void 
   848 ;; Registers used:
   849 ;;		wreg, fsr2l, fsr2h, status,2, status,0
   850 ;; Tracked objects:
   851 ;;		On entry : 0/0
   852 ;;		On exit  : 0/0
   853 ;;		Unchanged: 0/0
   854 ;; Data sizes:     COMRAM   BANK0   BANK1   BANK2   BANK3   BANK4   BANK5   BANK6   BANK7   BANK8   BANK9  BANK10  BANK1
      +1  BANK12  BANK13  BANK14  BANK15
   855 ;;      Params:         1       0       0       0       0       0       0       0       0       0       0       0       
      +0       0       0       0       0
   856 ;;      Locals:         0       0       0       0       0       0       0       0       0       0       0       0       
      +0       0       0       0       0
   857 ;;      Temps:          1       0       0       0       0       0       0       0       0       0       0       0       
      +0       0       0       0       0
   858 ;;      Totals:         2       0       0       0       0       0       0       0       0       0       0       0       
      +0       0       0       0       0
   859 ;;Total ram usage:        2 bytes
   860 ;; Hardware stack levels used: 1
   861 ;; Hardware stack levels required when called: 3
   862 ;; This function calls:
   863 ;;		Nothing
   864 ;; This function is called by:
   865 ;;		_Timer3_Init
   866 ;; This function uses a non-reentrant model
   867 ;;
   868                           
   869                           	psect	text5
   870   00144C                     __ptext5:
   871                           	callstack 0
   872   00144C                     _Timer3_Prescaler_config:
   873                           	callstack 25
   874   00144C                     
   875                           ;MCAL_layer/Timer3/Timer3.c: 129: static __attribute__((inline)) void Timer3_Prescaler_c
      +                          onfig(const timer3_t *timer3_confg);MCAL_layer/Timer3/Timer3.c: 130: {;MCAL_layer/Timer3
      +                          /Timer3.c: 131:     T3CONbits.T3CKPS = timer3_confg->prescaler_value;
   876   00144C  5078               	movf	Timer3_Prescaler_config@timer3_confg^0,w,c
   877   00144E  6ED9               	movwf	fsr2l,c
   878   001450  6ADA               	clrf	fsr2h,c
   879   001452  0E03               	movlw	3
   880   001454  26D9               	addwf	fsr2l,f,c
   881   001456  50DF               	movf	indf2,w,c
   882   001458  6E79               	movwf	??_Timer3_Prescaler_config^0,c
   883   00145A  3A79               	swapf	??_Timer3_Prescaler_config^0,f,c
   884   00145C  50B1               	movf	177,w,c	;volatile
   885   00145E  1879               	xorwf	??_Timer3_Prescaler_config^0,w,c
   886   001460  0BCF               	andlw	-49
   887   001462  1879               	xorwf	??_Timer3_Prescaler_config^0,w,c
   888   001464  6EB1               	movwf	177,c	;volatile
   889   001466  0012               	return		;funcret
   890   001468                     __end_of_Timer3_Prescaler_config:
   891                           	callstack 0
   892                           
   893 ;; *************** function _Timer3_Mode *****************
   894 ;; Defined at:
   895 ;;		line 134 in file "MCAL_layer/Timer3/Timer3.c"
   896 ;; Parameters:    Size  Location     Type
   897 ;;  timer3_confg    1    2[COMRAM] PTR const struct .
   898 ;;		 -> timer3(9), 
   899 ;; Auto vars:     Size  Location     Type
   900 ;;		None
   901 ;; Return value:  Size  Location     Type
   902 ;;                  1    wreg      void 
   903 ;; Registers used:
   904 ;;		wreg, fsr2l, fsr2h, status,2, status,0
   905 ;; Tracked objects:
   906 ;;		On entry : 0/0
   907 ;;		On exit  : 0/0
   908 ;;		Unchanged: 0/0
   909 ;; Data sizes:     COMRAM   BANK0   BANK1   BANK2   BANK3   BANK4   BANK5   BANK6   BANK7   BANK8   BANK9  BANK10  BANK1
      +1  BANK12  BANK13  BANK14  BANK15
   910 ;;      Params:         1       0       0       0       0       0       0       0       0       0       0       0       
      +0       0       0       0       0
   911 ;;      Locals:         0       0       0       0       0       0       0       0       0       0       0       0       
      +0       0       0       0       0
   912 ;;      Temps:          2       0       0       0       0       0       0       0       0       0       0       0       
      +0       0       0       0       0
   913 ;;      Totals:         3       0       0       0       0       0       0       0       0       0       0       0       
      +0       0       0       0       0
   914 ;;Total ram usage:        3 bytes
   915 ;; Hardware stack levels used: 1
   916 ;; Hardware stack levels required when called: 3
   917 ;; This function calls:
   918 ;;		Nothing
   919 ;; This function is called by:
   920 ;;		_Timer3_Init
   921 ;; This function uses a non-reentrant model
   922 ;;
   923                           
   924                           	psect	text6
   925   001340                     __ptext6:
   926                           	callstack 0
   927   001340                     _Timer3_Mode:
   928                           	callstack 25
   929   001340                     
   930                           ;MCAL_layer/Timer3/Timer3.c: 134: static __attribute__((inline)) void Timer3_Mode(const 
      +                          timer3_t *timer3_confg);MCAL_layer/Timer3/Timer3.c: 135: {;MCAL_layer/Timer3/Timer3.c: 1
      +                          36:     switch (timer3_confg->mode)
   931   001340  EFAB  F009         	goto	l4331
   932   001344                     l1284:
   933                           
   934                           ;MCAL_layer/Timer3/Timer3.c: 139:             (T3CONbits.TMR3CS = 1);
   935   001344  82B1               	bsf	177,1,c	;volatile
   936                           
   937                           ;MCAL_layer/Timer3/Timer3.c: 140:             break;
   938   001346  EFC5  F009         	goto	l1288
   939   00134A                     l1286:
   940                           
   941                           ;MCAL_layer/Timer3/Timer3.c: 142:             (T3CONbits.TMR3CS = 0);
   942   00134A  92B1               	bcf	177,1,c	;volatile
   943                           
   944                           ;MCAL_layer/Timer3/Timer3.c: 143:             break;
   945   00134C  EFC5  F009         	goto	l1288
   946   001350                     l1287:
   947                           
   948                           ;MCAL_layer/Timer3/Timer3.c: 145:             (T3CONbits.TMR3CS = 0);
   949   001350  92B1               	bcf	177,1,c	;volatile
   950                           
   951                           ;MCAL_layer/Timer3/Timer3.c: 146:             break;
   952   001352  EFC5  F009         	goto	l1288
   953   001356                     l4331:
   954   001356  5078               	movf	Timer3_Mode@timer3_confg^0,w,c
   955   001358  6ED9               	movwf	fsr2l,c
   956   00135A  6ADA               	clrf	fsr2h,c
   957   00135C  0E04               	movlw	4
   958   00135E  26D9               	addwf	fsr2l,f,c
   959   001360  50DF               	movf	indf2,w,c
   960   001362  6E79               	movwf	??_Timer3_Mode^0,c
   961   001364  6A7A               	clrf	(??_Timer3_Mode+1)^0,c
   962                           
   963                           ; Switch on 2 bytes has been partitioned into a top level switch of size 1, and 1 sub-sw
      +                          itches
   964                           ; Switch size 1, requested type "simple"
   965                           ; Number of cases is 1, Range of values is 0 to 0
   966                           ; switch strategies available:
   967                           ; Name         Instructions Cycles
   968                           ; simple_byte            4     3 (average)
   969                           ;	Chosen strategy is simple_byte
   970   001366  507A               	movf	(??_Timer3_Mode+1)^0,w,c
   971   001368  0A00               	xorlw	0	; case 0
   972   00136A  B4D8               	btfsc	status,2,c
   973   00136C  EFBA  F009         	goto	l4441
   974   001370  EFA8  F009         	goto	l1287
   975   001374                     l4441:
   976                           
   977                           ; Switch size 1, requested type "simple"
   978                           ; Number of cases is 2, Range of values is 0 to 1
   979                           ; switch strategies available:
   980                           ; Name         Instructions Cycles
   981                           ; simple_byte            7     4 (average)
   982                           ;	Chosen strategy is simple_byte
   983   001374  5079               	movf	??_Timer3_Mode^0,w,c
   984   001376  0A00               	xorlw	0	; case 0
   985   001378  B4D8               	btfsc	status,2,c
   986   00137A  EFA5  F009         	goto	l1286
   987   00137E  0A01               	xorlw	1	; case 1
   988   001380  B4D8               	btfsc	status,2,c
   989   001382  EFA2  F009         	goto	l1284
   990   001386  EFA8  F009         	goto	l1287
   991   00138A                     l1288:
   992   00138A  0012               	return		;funcret
   993   00138C                     __end_of_Timer3_Mode:
   994                           	callstack 0
   995                           
   996 ;; *************** function _Timer3_Interrupt_init *****************
   997 ;; Defined at:
   998 ;;		line 167 in file "MCAL_layer/Timer3/Timer3.c"
   999 ;; Parameters:    Size  Location     Type
  1000 ;;  timer3_confg    1    2[COMRAM] PTR const struct .
  1001 ;;		 -> timer3(9), 
  1002 ;; Auto vars:     Size  Location     Type
  1003 ;;		None
  1004 ;; Return value:  Size  Location     Type
  1005 ;;                  1    wreg      void 
  1006 ;; Registers used:
  1007 ;;		None
  1008 ;; Tracked objects:
  1009 ;;		On entry : 0/0
  1010 ;;		On exit  : 0/0
  1011 ;;		Unchanged: 0/0
  1012 ;; Data sizes:     COMRAM   BANK0   BANK1   BANK2   BANK3   BANK4   BANK5   BANK6   BANK7   BANK8   BANK9  BANK10  BANK1
      +1  BANK12  BANK13  BANK14  BANK15
  1013 ;;      Params:         1       0       0       0       0       0       0       0       0       0       0       0       
      +0       0       0       0       0
  1014 ;;      Locals:         0       0       0       0       0       0       0       0       0       0       0       0       
      +0       0       0       0       0
  1015 ;;      Temps:          0       0       0       0       0       0       0       0       0       0       0       0       
      +0       0       0       0       0
  1016 ;;      Totals:         1       0       0       0       0       0       0       0       0       0       0       0       
      +0       0       0       0       0
  1017 ;;Total ram usage:        1 bytes
  1018 ;; Hardware stack levels used: 1
  1019 ;; Hardware stack levels required when called: 3
  1020 ;; This function calls:
  1021 ;;		Nothing
  1022 ;; This function is called by:
  1023 ;;		_Timer3_Init
  1024 ;; This function uses a non-reentrant model
  1025 ;;
  1026                           
  1027                           	psect	text7
  1028   0014C0                     __ptext7:
  1029                           	callstack 0
  1030   0014C0                     _Timer3_Interrupt_init:
  1031                           	callstack 25
  1032   0014C0                     
  1033                           ;MCAL_layer/Timer3/Timer3.c: 167: static __attribute__((inline)) void Timer3_Interrupt_i
      +                          nit(const timer3_t *timer3_confg);MCAL_layer/Timer3/Timer3.c: 168: {;MCAL_layer/Timer3/T
      +                          imer3.c: 170:     (PIE2bits.TMR3IE = 1);
  1034   0014C0  82A0               	bsf	160,1,c	;volatile
  1035                           
  1036                           ;MCAL_layer/Timer3/Timer3.c: 171:     (PIR2bits.TMR3IF = 0);
  1037   0014C2  92A1               	bcf	161,1,c	;volatile
  1038                           
  1039                           ;MCAL_layer/Timer3/Timer3.c: 186:     (INTCONbits.PEIE = 1);
  1040   0014C4  8CF2               	bsf	242,6,c	;volatile
  1041                           
  1042                           ;MCAL_layer/Timer3/Timer3.c: 187:     (INTCONbits.GIE = 1);
  1043   0014C6  8EF2               	bsf	242,7,c	;volatile
  1044   0014C8  0012               	return		;funcret
  1045   0014CA                     __end_of_Timer3_Interrupt_init:
  1046                           	callstack 0
  1047                           
  1048 ;; *************** function _Timer3_Clock_Synchronous_Status *****************
  1049 ;; Defined at:
  1050 ;;		line 199 in file "MCAL_layer/Timer3/Timer3.c"
  1051 ;; Parameters:    Size  Location     Type
  1052 ;;  timer3_confg    1    2[COMRAM] PTR const struct .
  1053 ;;		 -> timer3(9), 
  1054 ;; Auto vars:     Size  Location     Type
  1055 ;;		None
  1056 ;; Return value:  Size  Location     Type
  1057 ;;                  1    wreg      void 
  1058 ;; Registers used:
  1059 ;;		wreg, fsr2l, fsr2h, status,2, status,0
  1060 ;; Tracked objects:
  1061 ;;		On entry : 0/0
  1062 ;;		On exit  : 0/0
  1063 ;;		Unchanged: 0/0
  1064 ;; Data sizes:     COMRAM   BANK0   BANK1   BANK2   BANK3   BANK4   BANK5   BANK6   BANK7   BANK8   BANK9  BANK10  BANK1
      +1  BANK12  BANK13  BANK14  BANK15
  1065 ;;      Params:         1       0       0       0       0       0       0       0       0       0       0       0       
      +0       0       0       0       0
  1066 ;;      Locals:         0       0       0       0       0       0       0       0       0       0       0       0       
      +0       0       0       0       0
  1067 ;;      Temps:          2       0       0       0       0       0       0       0       0       0       0       0       
      +0       0       0       0       0
  1068 ;;      Totals:         3       0       0       0       0       0       0       0       0       0       0       0       
      +0       0       0       0       0
  1069 ;;Total ram usage:        3 bytes
  1070 ;; Hardware stack levels used: 1
  1071 ;; Hardware stack levels required when called: 3
  1072 ;; This function calls:
  1073 ;;		Nothing
  1074 ;; This function is called by:
  1075 ;;		_Timer3_Init
  1076 ;; This function uses a non-reentrant model
  1077 ;;
  1078                           
  1079                           	psect	text8
  1080   00138C                     __ptext8:
  1081                           	callstack 0
  1082   00138C                     _Timer3_Clock_Synchronous_Status:
  1083                           	callstack 25
  1084   00138C                     
  1085                           ;MCAL_layer/Timer3/Timer3.c: 199: static __attribute__((inline)) void Timer3_Clock_Synch
      +                          ronous_Status(const timer3_t *timer3_confg);MCAL_layer/Timer3/Timer3.c: 200: {;MCAL_laye
      +                          r/Timer3/Timer3.c: 201:     switch (timer3_confg->clock_status)
  1086   00138C  EFD1  F009         	goto	l4351
  1087   001390                     l1306:
  1088                           
  1089                           ;MCAL_layer/Timer3/Timer3.c: 204:             (T3CONbits.T3SYNC = 0);
  1090   001390  94B1               	bcf	177,2,c	;volatile
  1091                           
  1092                           ;MCAL_layer/Timer3/Timer3.c: 205:             break;
  1093   001392  EFEB  F009         	goto	l1310
  1094   001396                     l1308:
  1095                           
  1096                           ;MCAL_layer/Timer3/Timer3.c: 207:             (T3CONbits.T3SYNC = 1);
  1097   001396  84B1               	bsf	177,2,c	;volatile
  1098                           
  1099                           ;MCAL_layer/Timer3/Timer3.c: 208:             break;
  1100   001398  EFEB  F009         	goto	l1310
  1101   00139C                     l1309:
  1102                           
  1103                           ;MCAL_layer/Timer3/Timer3.c: 210:             (T3CONbits.T3SYNC = 1);
  1104   00139C  84B1               	bsf	177,2,c	;volatile
  1105                           
  1106                           ;MCAL_layer/Timer3/Timer3.c: 211:             break;
  1107   00139E  EFEB  F009         	goto	l1310
  1108   0013A2                     l4351:
  1109   0013A2  5078               	movf	Timer3_Clock_Synchronous_Status@timer3_confg^0,w,c
  1110   0013A4  6ED9               	movwf	fsr2l,c
  1111   0013A6  6ADA               	clrf	fsr2h,c
  1112   0013A8  0E06               	movlw	6
  1113   0013AA  26D9               	addwf	fsr2l,f,c
  1114   0013AC  50DF               	movf	indf2,w,c
  1115   0013AE  6E79               	movwf	??_Timer3_Clock_Synchronous_Status^0,c
  1116   0013B0  6A7A               	clrf	(??_Timer3_Clock_Synchronous_Status+1)^0,c
  1117                           
  1118                           ; Switch on 2 bytes has been partitioned into a top level switch of size 1, and 1 sub-sw
      +                          itches
  1119                           ; Switch size 1, requested type "simple"
  1120                           ; Number of cases is 1, Range of values is 0 to 0
  1121                           ; switch strategies available:
  1122                           ; Name         Instructions Cycles
  1123                           ; simple_byte            4     3 (average)
  1124                           ;	Chosen strategy is simple_byte
  1125   0013B2  507A               	movf	(??_Timer3_Clock_Synchronous_Status+1)^0,w,c
  1126   0013B4  0A00               	xorlw	0	; case 0
  1127   0013B6  B4D8               	btfsc	status,2,c
  1128   0013B8  EFE0  F009         	goto	l4443
  1129   0013BC  EFCE  F009         	goto	l1309
  1130   0013C0                     l4443:
  1131                           
  1132                           ; Switch size 1, requested type "simple"
  1133                           ; Number of cases is 2, Range of values is 0 to 1
  1134                           ; switch strategies available:
  1135                           ; Name         Instructions Cycles
  1136                           ; simple_byte            7     4 (average)
  1137                           ;	Chosen strategy is simple_byte
  1138   0013C0  5079               	movf	??_Timer3_Clock_Synchronous_Status^0,w,c
  1139   0013C2  0A00               	xorlw	0	; case 0
  1140   0013C4  B4D8               	btfsc	status,2,c
  1141   0013C6  EFC8  F009         	goto	l1306
  1142   0013CA  0A01               	xorlw	1	; case 1
  1143   0013CC  B4D8               	btfsc	status,2,c
  1144   0013CE  EFCB  F009         	goto	l1308
  1145   0013D2  EFCE  F009         	goto	l1309
  1146   0013D6                     l1310:
  1147   0013D6  0012               	return		;funcret
  1148   0013D8                     __end_of_Timer3_Clock_Synchronous_Status:
  1149                           	callstack 0
  1150                           
  1151 ;; *************** function _Interrupt_Manager *****************
  1152 ;; Defined at:
  1153 ;;		line 52 in file "MCAL_layer/Interrupt/interrupt_manager.c"
  1154 ;; Parameters:    Size  Location     Type
  1155 ;;		None
  1156 ;; Auto vars:     Size  Location     Type
  1157 ;;		None
  1158 ;; Return value:  Size  Location     Type
  1159 ;;                  1    wreg      void 
  1160 ;; Registers used:
  1161 ;;		wreg, status,2, status,0, pcl, pclath, pclatu, tosl, cstack
  1162 ;; Tracked objects:
  1163 ;;		On entry : 0/0
  1164 ;;		On exit  : 0/0
  1165 ;;		Unchanged: 0/0
  1166 ;; Data sizes:     COMRAM   BANK0   BANK1   BANK2   BANK3   BANK4   BANK5   BANK6   BANK7   BANK8   BANK9  BANK10  BANK1
      +1  BANK12  BANK13  BANK14  BANK15
  1167 ;;      Params:         0       0       0       0       0       0       0       0       0       0       0       0       
      +0       0       0       0       0
  1168 ;;      Locals:         0       0       0       0       0       0       0       0       0       0       0       0       
      +0       0       0       0       0
  1169 ;;      Temps:          2       0       0       0       0       0       0       0       0       0       0       0       
      +0       0       0       0       0
  1170 ;;      Totals:         2       0       0       0       0       0       0       0       0       0       0       0       
      +0       0       0       0       0
  1171 ;;Total ram usage:        2 bytes
  1172 ;; Hardware stack levels used: 1
  1173 ;; Hardware stack levels required when called: 2
  1174 ;; This function calls:
  1175 ;;		_ADC_ISR
  1176 ;;		_INT0_ISR
  1177 ;;		_INT1_ISR
  1178 ;;		_INT2_ISR
  1179 ;;		_RB4_ISR
  1180 ;;		_RB5_ISR
  1181 ;;		_RB6_ISR
  1182 ;;		_RB7_ISR
  1183 ;;		_TMR0_ISR
  1184 ;;		_TMR1_ISR
  1185 ;;		_TMR2_ISR
  1186 ;;		_TMR3_ISR
  1187 ;; This function is called by:
  1188 ;;		Interrupt level 2
  1189 ;; This function uses a non-reentrant model
  1190 ;;
  1191                           
  1192                           	psect	intcode
  1193   000008                     __pintcode:
  1194                           	callstack 0
  1195   000008                     _Interrupt_Manager:
  1196                           	callstack 25
  1197                           
  1198                           ;incstack = 0
  1199   000008  827D               	bsf	int$flags,1,c	;set compiler interrupt flag (level 2)
  1200   00000A  ED0B  F008         	call	int_func,f	;refresh shadow registers
  1201                           
  1202                           	psect	intcode_body
  1203   001016                     __pintcode_body:
  1204                           	callstack 25
  1205   001016                     int_func:
  1206                           	callstack 25
  1207   001016  0006               	pop		; remove dummy address from shadow register refresh
  1208   001018  CFFA F076          	movff	pclath,??_Interrupt_Manager
  1209   00101C  CFFB F077          	movff	pclatu,??_Interrupt_Manager+1
  1210   001020                     
  1211                           ;MCAL_layer/Interrupt/interrupt_manager.c: 55:     if((1 == PIE1bits.ADIE ) && (1 == PIR
      +                          1bits.ADIF))
  1212   001020  AC9D               	btfss	157,6,c	;volatile
  1213   001022  EF15  F008         	goto	i2u152_41
  1214   001026  EF17  F008         	goto	i2u152_40
  1215   00102A                     i2u152_41:
  1216   00102A  EF20  F008         	goto	i2l3685
  1217   00102E                     i2u152_40:
  1218   00102E  AC9E               	btfss	158,6,c	;volatile
  1219   001030  EF1C  F008         	goto	i2u153_41
  1220   001034  EF1E  F008         	goto	i2u153_40
  1221   001038                     i2u153_41:
  1222   001038  EF20  F008         	goto	i2l3685
  1223   00103C                     i2u153_40:
  1224   00103C                     
  1225                           ;MCAL_layer/Interrupt/interrupt_manager.c: 56:     {;MCAL_layer/Interrupt/interrupt_mana
      +                          ger.c: 57:         ADC_ISR();
  1226   00103C  EC7A  F00A         	call	_ADC_ISR	;wreg free
  1227   001040                     i2l3685:
  1228                           
  1229                           ;MCAL_layer/Interrupt/interrupt_manager.c: 61:     if((1 == INTCONbits.RBIE) && (1 == IN
      +                          TCONbits.RBIF ))
  1230   001040  A6F2               	btfss	242,3,c	;volatile
  1231   001042  EF25  F008         	goto	i2u154_41
  1232   001046  EF27  F008         	goto	i2u154_40
  1233   00104A                     i2u154_41:
  1234   00104A  EF40  F008         	goto	i2l3697
  1235   00104E                     i2u154_40:
  1236   00104E  A0F2               	btfss	242,0,c	;volatile
  1237   001050  EF2C  F008         	goto	i2u155_41
  1238   001054  EF2E  F008         	goto	i2u155_40
  1239   001058                     i2u155_41:
  1240   001058  EF40  F008         	goto	i2l3697
  1241   00105C                     i2u155_40:
  1242   00105C                     
  1243                           ;MCAL_layer/Interrupt/interrupt_manager.c: 62:     {;MCAL_layer/Interrupt/interrupt_mana
      +                          ger.c: 63:         if(PORTBbits.RB5 == GPIO_HIGH)
  1244   00105C  AA81               	btfss	129,5,c	;volatile
  1245   00105E  EF33  F008         	goto	i2u156_41
  1246   001062  EF35  F008         	goto	i2u156_40
  1247   001066                     i2u156_41:
  1248   001066  EF37  F008         	goto	i2l3693
  1249   00106A                     i2u156_40:
  1250   00106A                     
  1251                           ;MCAL_layer/Interrupt/interrupt_manager.c: 64:         RB5_ISR();
  1252   00106A  EC70  F00A         	call	_RB5_ISR	;wreg free
  1253   00106E                     i2l3693:
  1254                           
  1255                           ;MCAL_layer/Interrupt/interrupt_manager.c: 65:         if(PORTBbits.RB5 == GPIO_LOW)
  1256   00106E  BA81               	btfsc	129,5,c	;volatile
  1257   001070  EF3C  F008         	goto	i2u157_41
  1258   001074  EF3E  F008         	goto	i2u157_40
  1259   001078                     i2u157_41:
  1260   001078  EF40  F008         	goto	i2l3697
  1261   00107C                     i2u157_40:
  1262   00107C                     
  1263                           ;MCAL_layer/Interrupt/interrupt_manager.c: 66:         RB5_ISR();
  1264   00107C  EC70  F00A         	call	_RB5_ISR	;wreg free
  1265   001080                     i2l3697:
  1266                           
  1267                           ;MCAL_layer/Interrupt/interrupt_manager.c: 69:     if((1 == INTCONbits.RBIE) && (1 == IN
      +                          TCONbits.RBIF ))
  1268   001080  A6F2               	btfss	242,3,c	;volatile
  1269   001082  EF45  F008         	goto	i2u158_41
  1270   001086  EF47  F008         	goto	i2u158_40
  1271   00108A                     i2u158_41:
  1272   00108A  EF60  F008         	goto	i2l3709
  1273   00108E                     i2u158_40:
  1274   00108E  A0F2               	btfss	242,0,c	;volatile
  1275   001090  EF4C  F008         	goto	i2u159_41
  1276   001094  EF4E  F008         	goto	i2u159_40
  1277   001098                     i2u159_41:
  1278   001098  EF60  F008         	goto	i2l3709
  1279   00109C                     i2u159_40:
  1280   00109C                     
  1281                           ;MCAL_layer/Interrupt/interrupt_manager.c: 70:     {;MCAL_layer/Interrupt/interrupt_mana
      +                          ger.c: 71:         if(PORTBbits.RB4 == GPIO_HIGH)
  1282   00109C  A881               	btfss	129,4,c	;volatile
  1283   00109E  EF53  F008         	goto	i2u160_41
  1284   0010A2  EF55  F008         	goto	i2u160_40
  1285   0010A6                     i2u160_41:
  1286   0010A6  EF57  F008         	goto	i2l3705
  1287   0010AA                     i2u160_40:
  1288   0010AA                     
  1289                           ;MCAL_layer/Interrupt/interrupt_manager.c: 72:         RB4_ISR();
  1290   0010AA  EC72  F00A         	call	_RB4_ISR	;wreg free
  1291   0010AE                     i2l3705:
  1292                           
  1293                           ;MCAL_layer/Interrupt/interrupt_manager.c: 73:         if(PORTBbits.RB4 == GPIO_LOW)
  1294   0010AE  B881               	btfsc	129,4,c	;volatile
  1295   0010B0  EF5C  F008         	goto	i2u161_41
  1296   0010B4  EF5E  F008         	goto	i2u161_40
  1297   0010B8                     i2u161_41:
  1298   0010B8  EF60  F008         	goto	i2l3709
  1299   0010BC                     i2u161_40:
  1300   0010BC                     
  1301                           ;MCAL_layer/Interrupt/interrupt_manager.c: 74:         RB4_ISR();
  1302   0010BC  EC72  F00A         	call	_RB4_ISR	;wreg free
  1303   0010C0                     i2l3709:
  1304                           
  1305                           ;MCAL_layer/Interrupt/interrupt_manager.c: 78:     if((1 == INTCONbits.RBIE) && (1 == IN
      +                          TCONbits.RBIF ))
  1306   0010C0  A6F2               	btfss	242,3,c	;volatile
  1307   0010C2  EF65  F008         	goto	i2u162_41
  1308   0010C6  EF67  F008         	goto	i2u162_40
  1309   0010CA                     i2u162_41:
  1310   0010CA  EF80  F008         	goto	i2l3721
  1311   0010CE                     i2u162_40:
  1312   0010CE  A0F2               	btfss	242,0,c	;volatile
  1313   0010D0  EF6C  F008         	goto	i2u163_41
  1314   0010D4  EF6E  F008         	goto	i2u163_40
  1315   0010D8                     i2u163_41:
  1316   0010D8  EF80  F008         	goto	i2l3721
  1317   0010DC                     i2u163_40:
  1318   0010DC                     
  1319                           ;MCAL_layer/Interrupt/interrupt_manager.c: 79:     {;MCAL_layer/Interrupt/interrupt_mana
      +                          ger.c: 80:         if(PORTBbits.RB6 == GPIO_HIGH)
  1320   0010DC  AC81               	btfss	129,6,c	;volatile
  1321   0010DE  EF73  F008         	goto	i2u164_41
  1322   0010E2  EF75  F008         	goto	i2u164_40
  1323   0010E6                     i2u164_41:
  1324   0010E6  EF77  F008         	goto	i2l3717
  1325   0010EA                     i2u164_40:
  1326   0010EA                     
  1327                           ;MCAL_layer/Interrupt/interrupt_manager.c: 81:         RB6_ISR();
  1328   0010EA  EC6E  F00A         	call	_RB6_ISR	;wreg free
  1329   0010EE                     i2l3717:
  1330                           
  1331                           ;MCAL_layer/Interrupt/interrupt_manager.c: 82:         if(PORTBbits.RB6== GPIO_LOW)
  1332   0010EE  BC81               	btfsc	129,6,c	;volatile
  1333   0010F0  EF7C  F008         	goto	i2u165_41
  1334   0010F4  EF7E  F008         	goto	i2u165_40
  1335   0010F8                     i2u165_41:
  1336   0010F8  EF80  F008         	goto	i2l3721
  1337   0010FC                     i2u165_40:
  1338   0010FC                     
  1339                           ;MCAL_layer/Interrupt/interrupt_manager.c: 83:         RB6_ISR();
  1340   0010FC  EC6E  F00A         	call	_RB6_ISR	;wreg free
  1341   001100                     i2l3721:
  1342                           
  1343                           ;MCAL_layer/Interrupt/interrupt_manager.c: 86:     if((1 == INTCONbits.RBIE) && (1 == IN
      +                          TCONbits.RBIF ))
  1344   001100  A6F2               	btfss	242,3,c	;volatile
  1345   001102  EF85  F008         	goto	i2u166_41
  1346   001106  EF87  F008         	goto	i2u166_40
  1347   00110A                     i2u166_41:
  1348   00110A  EFA0  F008         	goto	i2l3733
  1349   00110E                     i2u166_40:
  1350   00110E  A0F2               	btfss	242,0,c	;volatile
  1351   001110  EF8C  F008         	goto	i2u167_41
  1352   001114  EF8E  F008         	goto	i2u167_40
  1353   001118                     i2u167_41:
  1354   001118  EFA0  F008         	goto	i2l3733
  1355   00111C                     i2u167_40:
  1356   00111C                     
  1357                           ;MCAL_layer/Interrupt/interrupt_manager.c: 87:     {;MCAL_layer/Interrupt/interrupt_mana
      +                          ger.c: 88:         if(PORTBbits.RB7 == GPIO_HIGH)
  1358   00111C  AE81               	btfss	129,7,c	;volatile
  1359   00111E  EF93  F008         	goto	i2u168_41
  1360   001122  EF95  F008         	goto	i2u168_40
  1361   001126                     i2u168_41:
  1362   001126  EF97  F008         	goto	i2l3729
  1363   00112A                     i2u168_40:
  1364   00112A                     
  1365                           ;MCAL_layer/Interrupt/interrupt_manager.c: 89:         RB7_ISR();
  1366   00112A  EC6C  F00A         	call	_RB7_ISR	;wreg free
  1367   00112E                     i2l3729:
  1368                           
  1369                           ;MCAL_layer/Interrupt/interrupt_manager.c: 90:         if(PORTBbits.RB7 == GPIO_LOW)
  1370   00112E  BE81               	btfsc	129,7,c	;volatile
  1371   001130  EF9C  F008         	goto	i2u169_41
  1372   001134  EF9E  F008         	goto	i2u169_40
  1373   001138                     i2u169_41:
  1374   001138  EFA0  F008         	goto	i2l3733
  1375   00113C                     i2u169_40:
  1376   00113C                     
  1377                           ;MCAL_layer/Interrupt/interrupt_manager.c: 91:         RB7_ISR();
  1378   00113C  EC6C  F00A         	call	_RB7_ISR	;wreg free
  1379   001140                     i2l3733:
  1380                           
  1381                           ;MCAL_layer/Interrupt/interrupt_manager.c: 94:     if((1 == INTCONbits.INT0IE) && (1 == 
      +                          INTCONbits.INT0IF ))
  1382   001140  A8F2               	btfss	242,4,c	;volatile
  1383   001142  EFA5  F008         	goto	i2u170_41
  1384   001146  EFA7  F008         	goto	i2u170_40
  1385   00114A                     i2u170_41:
  1386   00114A  EFB0  F008         	goto	i2l3739
  1387   00114E                     i2u170_40:
  1388   00114E  A2F2               	btfss	242,1,c	;volatile
  1389   001150  EFAC  F008         	goto	i2u171_41
  1390   001154  EFAE  F008         	goto	i2u171_40
  1391   001158                     i2u171_41:
  1392   001158  EFB0  F008         	goto	i2l3739
  1393   00115C                     i2u171_40:
  1394   00115C                     
  1395                           ;MCAL_layer/Interrupt/interrupt_manager.c: 95:     {;MCAL_layer/Interrupt/interrupt_mana
      +                          ger.c: 96:         INT0_ISR();
  1396   00115C  EC78  F00A         	call	_INT0_ISR	;wreg free
  1397   001160                     i2l3739:
  1398                           
  1399                           ;MCAL_layer/Interrupt/interrupt_manager.c: 99:     if((1 == INTCON3bits.INT1IE) && (1 ==
      +                           INTCON3bits.INT1IF ))
  1400   001160  A6F0               	btfss	240,3,c	;volatile
  1401   001162  EFB5  F008         	goto	i2u172_41
  1402   001166  EFB7  F008         	goto	i2u172_40
  1403   00116A                     i2u172_41:
  1404   00116A  EFC0  F008         	goto	i2l3745
  1405   00116E                     i2u172_40:
  1406   00116E  A0F0               	btfss	240,0,c	;volatile
  1407   001170  EFBC  F008         	goto	i2u173_41
  1408   001174  EFBE  F008         	goto	i2u173_40
  1409   001178                     i2u173_41:
  1410   001178  EFC0  F008         	goto	i2l3745
  1411   00117C                     i2u173_40:
  1412   00117C                     
  1413                           ;MCAL_layer/Interrupt/interrupt_manager.c: 100:     {;MCAL_layer/Interrupt/interrupt_man
      +                          ager.c: 101:         INT1_ISR();
  1414   00117C  EC76  F00A         	call	_INT1_ISR	;wreg free
  1415   001180                     i2l3745:
  1416                           
  1417                           ;MCAL_layer/Interrupt/interrupt_manager.c: 104:     if((1 == INTCON3bits.INT2IE) && (1 =
      +                          = INTCON3bits.INT2IF ))
  1418   001180  A8F0               	btfss	240,4,c	;volatile
  1419   001182  EFC5  F008         	goto	i2u174_41
  1420   001186  EFC7  F008         	goto	i2u174_40
  1421   00118A                     i2u174_41:
  1422   00118A  EFD0  F008         	goto	i2l3751
  1423   00118E                     i2u174_40:
  1424   00118E  A2F0               	btfss	240,1,c	;volatile
  1425   001190  EFCC  F008         	goto	i2u175_41
  1426   001194  EFCE  F008         	goto	i2u175_40
  1427   001198                     i2u175_41:
  1428   001198  EFD0  F008         	goto	i2l3751
  1429   00119C                     i2u175_40:
  1430   00119C                     
  1431                           ;MCAL_layer/Interrupt/interrupt_manager.c: 105:     {;MCAL_layer/Interrupt/interrupt_man
      +                          ager.c: 106:         INT2_ISR();
  1432   00119C  EC74  F00A         	call	_INT2_ISR	;wreg free
  1433   0011A0                     i2l3751:
  1434                           
  1435                           ;MCAL_layer/Interrupt/interrupt_manager.c: 110:     if((1 == INTCONbits.TMR0IE) && (1 ==
      +                           INTCONbits.TMR0IF))
  1436   0011A0  AAF2               	btfss	242,5,c	;volatile
  1437   0011A2  EFD5  F008         	goto	i2u176_41
  1438   0011A6  EFD7  F008         	goto	i2u176_40
  1439   0011AA                     i2u176_41:
  1440   0011AA  EFE0  F008         	goto	i2l3757
  1441   0011AE                     i2u176_40:
  1442   0011AE  A4F2               	btfss	242,2,c	;volatile
  1443   0011B0  EFDC  F008         	goto	i2u177_41
  1444   0011B4  EFDE  F008         	goto	i2u177_40
  1445   0011B8                     i2u177_41:
  1446   0011B8  EFE0  F008         	goto	i2l3757
  1447   0011BC                     i2u177_40:
  1448   0011BC                     
  1449                           ;MCAL_layer/Interrupt/interrupt_manager.c: 111:     {;MCAL_layer/Interrupt/interrupt_man
      +                          ager.c: 112:         TMR0_ISR();
  1450   0011BC  EC5A  F00A         	call	_TMR0_ISR	;wreg free
  1451   0011C0                     i2l3757:
  1452                           
  1453                           ;MCAL_layer/Interrupt/interrupt_manager.c: 115:     if((1 == PIE1bits.TMR1IE) && (1 == P
      +                          IR1bits.TMR1IF))
  1454   0011C0  A09D               	btfss	157,0,c	;volatile
  1455   0011C2  EFE5  F008         	goto	i2u178_41
  1456   0011C6  EFE7  F008         	goto	i2u178_40
  1457   0011CA                     i2u178_41:
  1458   0011CA  EFF0  F008         	goto	i2l3763
  1459   0011CE                     i2u178_40:
  1460   0011CE  A09E               	btfss	158,0,c	;volatile
  1461   0011D0  EFEC  F008         	goto	i2u179_41
  1462   0011D4  EFEE  F008         	goto	i2u179_40
  1463   0011D8                     i2u179_41:
  1464   0011D8  EFF0  F008         	goto	i2l3763
  1465   0011DC                     i2u179_40:
  1466   0011DC                     
  1467                           ;MCAL_layer/Interrupt/interrupt_manager.c: 116:     {;MCAL_layer/Interrupt/interrupt_man
      +                          ager.c: 117:         TMR1_ISR();
  1468   0011DC  EC54  F00A         	call	_TMR1_ISR	;wreg free
  1469   0011E0                     i2l3763:
  1470                           
  1471                           ;MCAL_layer/Interrupt/interrupt_manager.c: 120:     if((1 == PIE1bits.TMR2IE) && (1 == P
      +                          IR1bits.TMR2IF))
  1472   0011E0  A29D               	btfss	157,1,c	;volatile
  1473   0011E2  EFF5  F008         	goto	i2u180_41
  1474   0011E6  EFF7  F008         	goto	i2u180_40
  1475   0011EA                     i2u180_41:
  1476   0011EA  EF00  F009         	goto	i2l3769
  1477   0011EE                     i2u180_40:
  1478   0011EE  A29E               	btfss	158,1,c	;volatile
  1479   0011F0  EFFC  F008         	goto	i2u181_41
  1480   0011F4  EFFE  F008         	goto	i2u181_40
  1481   0011F8                     i2u181_41:
  1482   0011F8  EF00  F009         	goto	i2l3769
  1483   0011FC                     i2u181_40:
  1484   0011FC                     
  1485                           ;MCAL_layer/Interrupt/interrupt_manager.c: 121:     {;MCAL_layer/Interrupt/interrupt_man
      +                          ager.c: 122:         TMR2_ISR();
  1486   0011FC  EC65  F00A         	call	_TMR2_ISR	;wreg free
  1487   001200                     i2l3769:
  1488                           
  1489                           ;MCAL_layer/Interrupt/interrupt_manager.c: 125:     if((1 == PIE2bits.TMR3IE) && (1 == P
      +                          IR2bits.TMR3IF))
  1490   001200  A2A0               	btfss	160,1,c	;volatile
  1491   001202  EF05  F009         	goto	i2u182_41
  1492   001206  EF07  F009         	goto	i2u182_40
  1493   00120A                     i2u182_41:
  1494   00120A  EF10  F009         	goto	i2l954
  1495   00120E                     i2u182_40:
  1496   00120E  A2A1               	btfss	161,1,c	;volatile
  1497   001210  EF0C  F009         	goto	i2u183_41
  1498   001214  EF0E  F009         	goto	i2u183_40
  1499   001218                     i2u183_41:
  1500   001218  EF10  F009         	goto	i2l954
  1501   00121C                     i2u183_40:
  1502   00121C                     
  1503                           ;MCAL_layer/Interrupt/interrupt_manager.c: 126:     {;MCAL_layer/Interrupt/interrupt_man
      +                          ager.c: 127:         TMR3_ISR();
  1504   00121C  EC0B  F00A         	call	_TMR3_ISR	;wreg free
  1505   001220                     i2l954:
  1506   001220  C077  FFFB         	movff	??_Interrupt_Manager+1,pclatu
  1507   001224  C076  FFFA         	movff	??_Interrupt_Manager,pclath
  1508   001228  927D               	bcf	int$flags,1,c	;clear compiler interrupt flag (level 2)
  1509   00122A  0011               	retfie		f
  1510   00122C                     __end_of_Interrupt_Manager:
  1511                           	callstack 0
  1512                           
  1513 ;; *************** function _TMR3_ISR *****************
  1514 ;; Defined at:
  1515 ;;		line 116 in file "MCAL_layer/Timer3/Timer3.c"
  1516 ;; Parameters:    Size  Location     Type
  1517 ;;		None
  1518 ;; Auto vars:     Size  Location     Type
  1519 ;;		None
  1520 ;; Return value:  Size  Location     Type
  1521 ;;                  1    wreg      void 
  1522 ;; Registers used:
  1523 ;;		wreg, status,2, status,0, pcl, pclath, pclatu, tosl, cstack
  1524 ;; Tracked objects:
  1525 ;;		On entry : 0/0
  1526 ;;		On exit  : 0/0
  1527 ;;		Unchanged: 0/0
  1528 ;; Data sizes:     COMRAM   BANK0   BANK1   BANK2   BANK3   BANK4   BANK5   BANK6   BANK7   BANK8   BANK9  BANK10  BANK1
      +1  BANK12  BANK13  BANK14  BANK15
  1529 ;;      Params:         0       0       0       0       0       0       0       0       0       0       0       0       
      +0       0       0       0       0
  1530 ;;      Locals:         0       0       0       0       0       0       0       0       0       0       0       0       
      +0       0       0       0       0
  1531 ;;      Temps:          0       0       0       0       0       0       0       0       0       0       0       0       
      +0       0       0       0       0
  1532 ;;      Totals:         0       0       0       0       0       0       0       0       0       0       0       0       
      +0       0       0       0       0
  1533 ;;Total ram usage:        0 bytes
  1534 ;; Hardware stack levels used: 1
  1535 ;; Hardware stack levels required when called: 1
  1536 ;; This function calls:
  1537 ;;		NULL
  1538 ;;		_Timer3_Interrupt_function
  1539 ;; This function is called by:
  1540 ;;		_Interrupt_Manager
  1541 ;; This function uses a non-reentrant model
  1542 ;;
  1543                           
  1544                           	psect	text10
  1545   001416                     __ptext10:
  1546                           	callstack 0
  1547   001416                     _TMR3_ISR:
  1548                           	callstack 25
  1549   001416                     
  1550                           ;MCAL_layer/Timer3/Timer3.c: 118:     (PIR2bits.TMR3IF = 0);
  1551   001416  92A1               	bcf	161,1,c	;volatile
  1552   001418                     
  1553                           ;MCAL_layer/Timer3/Timer3.c: 119:     TMR3H = (preloaded_value >> 8);
  1554   001418  5042               	movf	(_preloaded_value@Timer3$F3139+1)^0,w,c	;volatile
  1555   00141A  6EB3               	movwf	179,c	;volatile
  1556   00141C                     
  1557                           ;MCAL_layer/Timer3/Timer3.c: 120:     TMR3L = (uint8)(preloaded_value);
  1558   00141C  C041  FFB2         	movff	_preloaded_value@Timer3$F3139,4018	;volatile
  1559   001420                     
  1560                           ;MCAL_layer/Timer3/Timer3.c: 121:     if(TMR3_Interrupt_Handler)
  1561   001420  5043               	movf	_TMR3_Interrupt_Handler^0,w,c
  1562   001422  1044               	iorwf	(_TMR3_Interrupt_Handler+1)^0,w,c
  1563   001424  B4D8               	btfsc	status,2,c
  1564   001426  EF17  F00A         	goto	i2u33_41
  1565   00142A  EF19  F00A         	goto	i2u33_40
  1566   00142E                     i2u33_41:
  1567   00142E  EF25  F00A         	goto	i2l1277
  1568   001432                     i2u33_40:
  1569   001432                     
  1570                           ;MCAL_layer/Timer3/Timer3.c: 122:     {;MCAL_layer/Timer3/Timer3.c: 123:         TMR3_In
      +                          terrupt_Handler();
  1571   001432  D802               	call	i2u34_48
  1572   001434  EF25  F00A         	goto	i2u34_49
  1573   001438                     i2u34_48:
  1574   001438  0005               	push	
  1575   00143A  6EFA               	movwf	pclath,c
  1576   00143C  5043               	movf	_TMR3_Interrupt_Handler^0,w,c
  1577   00143E  6EFD               	movwf	tosl,c
  1578   001440  5044               	movf	(_TMR3_Interrupt_Handler+1)^0,w,c
  1579   001442  6EFE               	movwf	tosh,c
  1580   001444  6AFF               	clrf	tosu,c
  1581   001446  50FA               	movf	pclath,w,c
  1582   001448  0012               	return		;indir
  1583   00144A                     i2u34_49:
  1584   00144A                     i2l1277:
  1585   00144A  0012               	return		;funcret
  1586   00144C                     __end_of_TMR3_ISR:
  1587                           	callstack 0
  1588                           
  1589 ;; *************** function _Timer3_Interrupt_function *****************
  1590 ;; Defined at:
  1591 ;;		line 33 in file "application.c"
  1592 ;; Parameters:    Size  Location     Type
  1593 ;;		None
  1594 ;; Auto vars:     Size  Location     Type
  1595 ;;		None
  1596 ;; Return value:  Size  Location     Type
  1597 ;;                  1    wreg      void 
  1598 ;; Registers used:
  1599 ;;		status,2, status,0
  1600 ;; Tracked objects:
  1601 ;;		On entry : 0/0
  1602 ;;		On exit  : 0/0
  1603 ;;		Unchanged: 0/0
  1604 ;; Data sizes:     COMRAM   BANK0   BANK1   BANK2   BANK3   BANK4   BANK5   BANK6   BANK7   BANK8   BANK9  BANK10  BANK1
      +1  BANK12  BANK13  BANK14  BANK15
  1605 ;;      Params:         0       0       0       0       0       0       0       0       0       0       0       0       
      +0       0       0       0       0
  1606 ;;      Locals:         0       0       0       0       0       0       0       0       0       0       0       0       
      +0       0       0       0       0
  1607 ;;      Temps:          0       0       0       0       0       0       0       0       0       0       0       0       
      +0       0       0       0       0
  1608 ;;      Totals:         0       0       0       0       0       0       0       0       0       0       0       0       
      +0       0       0       0       0
  1609 ;;Total ram usage:        0 bytes
  1610 ;; Hardware stack levels used: 1
  1611 ;; This function calls:
  1612 ;;		Nothing
  1613 ;; This function is called by:
  1614 ;;		_TMR3_ISR
  1615 ;; This function uses a non-reentrant model
  1616 ;;
  1617                           
  1618                           	psect	text11
  1619   0014D2                     __ptext11:
  1620                           	callstack 0
  1621   0014D2                     _Timer3_Interrupt_function:
  1622                           	callstack 25
  1623   0014D2                     
  1624                           ;application.c: 35:     counter_value++;
  1625   0014D2  4A45               	infsnz	_counter_value^0,f,c	;volatile
  1626   0014D4  2A46               	incf	(_counter_value+1)^0,f,c	;volatile
  1627   0014D6  0012               	return		;funcret
  1628   0014D8                     __end_of_Timer3_Interrupt_function:
  1629                           	callstack 0
  1630                           
  1631 ;; *************** function _TMR2_ISR *****************
  1632 ;; Defined at:
  1633 ;;		line 109 in file "MCAL_layer/Timer2/Timer2.c"
  1634 ;; Parameters:    Size  Location     Type
  1635 ;;		None
  1636 ;; Auto vars:     Size  Location     Type
  1637 ;;		None
  1638 ;; Return value:  Size  Location     Type
  1639 ;;                  1    wreg      void 
  1640 ;; Registers used:
  1641 ;;		None
  1642 ;; Tracked objects:
  1643 ;;		On entry : 0/0
  1644 ;;		On exit  : 0/0
  1645 ;;		Unchanged: 0/0
  1646 ;; Data sizes:     COMRAM   BANK0   BANK1   BANK2   BANK3   BANK4   BANK5   BANK6   BANK7   BANK8   BANK9  BANK10  BANK1
      +1  BANK12  BANK13  BANK14  BANK15
  1647 ;;      Params:         0       0       0       0       0       0       0       0       0       0       0       0       
      +0       0       0       0       0
  1648 ;;      Locals:         0       0       0       0       0       0       0       0       0       0       0       0       
      +0       0       0       0       0
  1649 ;;      Temps:          0       0       0       0       0       0       0       0       0       0       0       0       
      +0       0       0       0       0
  1650 ;;      Totals:         0       0       0       0       0       0       0       0       0       0       0       0       
      +0       0       0       0       0
  1651 ;;Total ram usage:        0 bytes
  1652 ;; Hardware stack levels used: 1
  1653 ;; This function calls:
  1654 ;;		Nothing
  1655 ;; This function is called by:
  1656 ;;		_Interrupt_Manager
  1657 ;; This function uses a non-reentrant model
  1658 ;;
  1659                           
  1660                           	psect	text12
  1661   0014CA                     __ptext12:
  1662                           	callstack 0
  1663   0014CA                     _TMR2_ISR:
  1664                           	callstack 26
  1665   0014CA                     
  1666                           ;MCAL_layer/Timer2/Timer2.c: 111:     (PIR1bits.TMR1IF = 0);
  1667   0014CA  909E               	bcf	158,0,c	;volatile
  1668                           
  1669                           ;MCAL_layer/Timer2/Timer2.c: 112:     TMR2 = preloaded_value;
  1670   0014CC  C061  FFCC         	movff	_preloaded_value@Timer2$F2847,4044	;volatile
  1671   0014D0  0012               	return		;funcret
  1672   0014D2                     __end_of_TMR2_ISR:
  1673                           	callstack 0
  1674                           
  1675 ;; *************** function _TMR1_ISR *****************
  1676 ;; Defined at:
  1677 ;;		line 118 in file "MCAL_layer/Timer1/Timer1.c"
  1678 ;; Parameters:    Size  Location     Type
  1679 ;;		None
  1680 ;; Auto vars:     Size  Location     Type
  1681 ;;		None
  1682 ;; Return value:  Size  Location     Type
  1683 ;;                  1    wreg      void 
  1684 ;; Registers used:
  1685 ;;		wreg, status,2
  1686 ;; Tracked objects:
  1687 ;;		On entry : 0/0
  1688 ;;		On exit  : 0/0
  1689 ;;		Unchanged: 0/0
  1690 ;; Data sizes:     COMRAM   BANK0   BANK1   BANK2   BANK3   BANK4   BANK5   BANK6   BANK7   BANK8   BANK9  BANK10  BANK1
      +1  BANK12  BANK13  BANK14  BANK15
  1691 ;;      Params:         0       0       0       0       0       0       0       0       0       0       0       0       
      +0       0       0       0       0
  1692 ;;      Locals:         0       0       0       0       0       0       0       0       0       0       0       0       
      +0       0       0       0       0
  1693 ;;      Temps:          0       0       0       0       0       0       0       0       0       0       0       0       
      +0       0       0       0       0
  1694 ;;      Totals:         0       0       0       0       0       0       0       0       0       0       0       0       
      +0       0       0       0       0
  1695 ;;Total ram usage:        0 bytes
  1696 ;; Hardware stack levels used: 1
  1697 ;; This function calls:
  1698 ;;		Nothing
  1699 ;; This function is called by:
  1700 ;;		_Interrupt_Manager
  1701 ;; This function uses a non-reentrant model
  1702 ;;
  1703                           
  1704                           	psect	text13
  1705   0014A8                     __ptext13:
  1706                           	callstack 0
  1707   0014A8                     _TMR1_ISR:
  1708                           	callstack 26
  1709   0014A8                     
  1710                           ;MCAL_layer/Timer1/Timer1.c: 120:     (PIR1bits.TMR1IF = 0);
  1711   0014A8  909E               	bcf	158,0,c	;volatile
  1712   0014AA                     
  1713                           ;MCAL_layer/Timer1/Timer1.c: 121:     TMR1H = (preloaded_value >> 8);
  1714   0014AA  504A               	movf	(_preloaded_value@Timer1$F2596+1)^0,w,c	;volatile
  1715   0014AC  6ECF               	movwf	207,c	;volatile
  1716   0014AE                     
  1717                           ;MCAL_layer/Timer1/Timer1.c: 122:     TMR1L = (uint8)(preloaded_value);
  1718   0014AE  C049  FFCE         	movff	_preloaded_value@Timer1$F2596,4046	;volatile
  1719   0014B2  0012               	return		;funcret
  1720   0014B4                     __end_of_TMR1_ISR:
  1721                           	callstack 0
  1722                           
  1723 ;; *************** function _TMR0_ISR *****************
  1724 ;; Defined at:
  1725 ;;		line 115 in file "MCAL_layer/Timer0/Timer0.c"
  1726 ;; Parameters:    Size  Location     Type
  1727 ;;		None
  1728 ;; Auto vars:     Size  Location     Type
  1729 ;;		None
  1730 ;; Return value:  Size  Location     Type
  1731 ;;                  1    wreg      void 
  1732 ;; Registers used:
  1733 ;;		wreg, status,2
  1734 ;; Tracked objects:
  1735 ;;		On entry : 0/0
  1736 ;;		On exit  : 0/0
  1737 ;;		Unchanged: 0/0
  1738 ;; Data sizes:     COMRAM   BANK0   BANK1   BANK2   BANK3   BANK4   BANK5   BANK6   BANK7   BANK8   BANK9  BANK10  BANK1
      +1  BANK12  BANK13  BANK14  BANK15
  1739 ;;      Params:         0       0       0       0       0       0       0       0       0       0       0       0       
      +0       0       0       0       0
  1740 ;;      Locals:         0       0       0       0       0       0       0       0       0       0       0       0       
      +0       0       0       0       0
  1741 ;;      Temps:          0       0       0       0       0       0       0       0       0       0       0       0       
      +0       0       0       0       0
  1742 ;;      Totals:         0       0       0       0       0       0       0       0       0       0       0       0       
      +0       0       0       0       0
  1743 ;;Total ram usage:        0 bytes
  1744 ;; Hardware stack levels used: 1
  1745 ;; This function calls:
  1746 ;;		Nothing
  1747 ;; This function is called by:
  1748 ;;		_Interrupt_Manager
  1749 ;; This function uses a non-reentrant model
  1750 ;;
  1751                           
  1752                           	psect	text14
  1753   0014B4                     __ptext14:
  1754                           	callstack 0
  1755   0014B4                     _TMR0_ISR:
  1756                           	callstack 26
  1757   0014B4                     
  1758                           ;MCAL_layer/Timer0/Timer0.c: 117:     (INTCONbits.TMR0IF = 0);
  1759   0014B4  94F2               	bcf	242,2,c	;volatile
  1760   0014B6                     
  1761                           ;MCAL_layer/Timer0/Timer0.c: 118:     TMR0H = (preloaded_value >> 8);
  1762   0014B6  504E               	movf	(_preloaded_value+1)^0,w,c
  1763   0014B8  6ED7               	movwf	215,c	;volatile
  1764   0014BA                     
  1765                           ;MCAL_layer/Timer0/Timer0.c: 119:     TMR0L = (uint8)(preloaded_value);
  1766   0014BA  C04D  FFD6         	movff	_preloaded_value,4054	;volatile
  1767   0014BE  0012               	return		;funcret
  1768   0014C0                     __end_of_TMR0_ISR:
  1769                           	callstack 0
  1770                           
  1771 ;; *************** function _RB7_ISR *****************
  1772 ;; Defined at:
  1773 ;;		line 764 in file "MCAL_layer/Interrupt/external_interrupt.c"
  1774 ;; Parameters:    Size  Location     Type
  1775 ;;		None
  1776 ;; Auto vars:     Size  Location     Type
  1777 ;;		None
  1778 ;; Return value:  Size  Location     Type
  1779 ;;                  1    wreg      void 
  1780 ;; Registers used:
  1781 ;;		None
  1782 ;; Tracked objects:
  1783 ;;		On entry : 0/0
  1784 ;;		On exit  : 0/0
  1785 ;;		Unchanged: 0/0
  1786 ;; Data sizes:     COMRAM   BANK0   BANK1   BANK2   BANK3   BANK4   BANK5   BANK6   BANK7   BANK8   BANK9  BANK10  BANK1
      +1  BANK12  BANK13  BANK14  BANK15
  1787 ;;      Params:         0       0       0       0       0       0       0       0       0       0       0       0       
      +0       0       0       0       0
  1788 ;;      Locals:         0       0       0       0       0       0       0       0       0       0       0       0       
      +0       0       0       0       0
  1789 ;;      Temps:          0       0       0       0       0       0       0       0       0       0       0       0       
      +0       0       0       0       0
  1790 ;;      Totals:         0       0       0       0       0       0       0       0       0       0       0       0       
      +0       0       0       0       0
  1791 ;;Total ram usage:        0 bytes
  1792 ;; Hardware stack levels used: 1
  1793 ;; This function calls:
  1794 ;;		Nothing
  1795 ;; This function is called by:
  1796 ;;		_Interrupt_Manager
  1797 ;; This function uses a non-reentrant model
  1798 ;;
  1799                           
  1800                           	psect	text15
  1801   0014D8                     __ptext15:
  1802                           	callstack 0
  1803   0014D8                     _RB7_ISR:
  1804                           	callstack 26
  1805   0014D8                     
  1806                           ;MCAL_layer/Interrupt/external_interrupt.c: 767:     (INTCONbits.RBIF = 0);
  1807   0014D8  90F2               	bcf	242,0,c	;volatile
  1808   0014DA  0012               	return		;funcret
  1809   0014DC                     __end_of_RB7_ISR:
  1810                           	callstack 0
  1811                           
  1812 ;; *************** function _RB6_ISR *****************
  1813 ;; Defined at:
  1814 ;;		line 749 in file "MCAL_layer/Interrupt/external_interrupt.c"
  1815 ;; Parameters:    Size  Location     Type
  1816 ;;		None
  1817 ;; Auto vars:     Size  Location     Type
  1818 ;;		None
  1819 ;; Return value:  Size  Location     Type
  1820 ;;                  1    wreg      void 
  1821 ;; Registers used:
  1822 ;;		None
  1823 ;; Tracked objects:
  1824 ;;		On entry : 0/0
  1825 ;;		On exit  : 0/0
  1826 ;;		Unchanged: 0/0
  1827 ;; Data sizes:     COMRAM   BANK0   BANK1   BANK2   BANK3   BANK4   BANK5   BANK6   BANK7   BANK8   BANK9  BANK10  BANK1
      +1  BANK12  BANK13  BANK14  BANK15
  1828 ;;      Params:         0       0       0       0       0       0       0       0       0       0       0       0       
      +0       0       0       0       0
  1829 ;;      Locals:         0       0       0       0       0       0       0       0       0       0       0       0       
      +0       0       0       0       0
  1830 ;;      Temps:          0       0       0       0       0       0       0       0       0       0       0       0       
      +0       0       0       0       0
  1831 ;;      Totals:         0       0       0       0       0       0       0       0       0       0       0       0       
      +0       0       0       0       0
  1832 ;;Total ram usage:        0 bytes
  1833 ;; Hardware stack levels used: 1
  1834 ;; This function calls:
  1835 ;;		Nothing
  1836 ;; This function is called by:
  1837 ;;		_Interrupt_Manager
  1838 ;; This function uses a non-reentrant model
  1839 ;;
  1840                           
  1841                           	psect	text16
  1842   0014DC                     __ptext16:
  1843                           	callstack 0
  1844   0014DC                     _RB6_ISR:
  1845                           	callstack 26
  1846   0014DC                     
  1847                           ;MCAL_layer/Interrupt/external_interrupt.c: 752:     (INTCONbits.RBIF = 0);
  1848   0014DC  90F2               	bcf	242,0,c	;volatile
  1849   0014DE  0012               	return		;funcret
  1850   0014E0                     __end_of_RB6_ISR:
  1851                           	callstack 0
  1852                           
  1853 ;; *************** function _RB5_ISR *****************
  1854 ;; Defined at:
  1855 ;;		line 734 in file "MCAL_layer/Interrupt/external_interrupt.c"
  1856 ;; Parameters:    Size  Location     Type
  1857 ;;		None
  1858 ;; Auto vars:     Size  Location     Type
  1859 ;;		None
  1860 ;; Return value:  Size  Location     Type
  1861 ;;                  1    wreg      void 
  1862 ;; Registers used:
  1863 ;;		None
  1864 ;; Tracked objects:
  1865 ;;		On entry : 0/0
  1866 ;;		On exit  : 0/0
  1867 ;;		Unchanged: 0/0
  1868 ;; Data sizes:     COMRAM   BANK0   BANK1   BANK2   BANK3   BANK4   BANK5   BANK6   BANK7   BANK8   BANK9  BANK10  BANK1
      +1  BANK12  BANK13  BANK14  BANK15
  1869 ;;      Params:         0       0       0       0       0       0       0       0       0       0       0       0       
      +0       0       0       0       0
  1870 ;;      Locals:         0       0       0       0       0       0       0       0       0       0       0       0       
      +0       0       0       0       0
  1871 ;;      Temps:          0       0       0       0       0       0       0       0       0       0       0       0       
      +0       0       0       0       0
  1872 ;;      Totals:         0       0       0       0       0       0       0       0       0       0       0       0       
      +0       0       0       0       0
  1873 ;;Total ram usage:        0 bytes
  1874 ;; Hardware stack levels used: 1
  1875 ;; This function calls:
  1876 ;;		Nothing
  1877 ;; This function is called by:
  1878 ;;		_Interrupt_Manager
  1879 ;; This function uses a non-reentrant model
  1880 ;;
  1881                           
  1882                           	psect	text17
  1883   0014E0                     __ptext17:
  1884                           	callstack 0
  1885   0014E0                     _RB5_ISR:
  1886                           	callstack 26
  1887   0014E0                     
  1888                           ;MCAL_layer/Interrupt/external_interrupt.c: 737:     (INTCONbits.RBIF = 0);
  1889   0014E0  90F2               	bcf	242,0,c	;volatile
  1890   0014E2  0012               	return		;funcret
  1891   0014E4                     __end_of_RB5_ISR:
  1892                           	callstack 0
  1893                           
  1894 ;; *************** function _RB4_ISR *****************
  1895 ;; Defined at:
  1896 ;;		line 720 in file "MCAL_layer/Interrupt/external_interrupt.c"
  1897 ;; Parameters:    Size  Location     Type
  1898 ;;		None
  1899 ;; Auto vars:     Size  Location     Type
  1900 ;;		None
  1901 ;; Return value:  Size  Location     Type
  1902 ;;                  1    wreg      void 
  1903 ;; Registers used:
  1904 ;;		None
  1905 ;; Tracked objects:
  1906 ;;		On entry : 0/0
  1907 ;;		On exit  : 0/0
  1908 ;;		Unchanged: 0/0
  1909 ;; Data sizes:     COMRAM   BANK0   BANK1   BANK2   BANK3   BANK4   BANK5   BANK6   BANK7   BANK8   BANK9  BANK10  BANK1
      +1  BANK12  BANK13  BANK14  BANK15
  1910 ;;      Params:         0       0       0       0       0       0       0       0       0       0       0       0       
      +0       0       0       0       0
  1911 ;;      Locals:         0       0       0       0       0       0       0       0       0       0       0       0       
      +0       0       0       0       0
  1912 ;;      Temps:          0       0       0       0       0       0       0       0       0       0       0       0       
      +0       0       0       0       0
  1913 ;;      Totals:         0       0       0       0       0       0       0       0       0       0       0       0       
      +0       0       0       0       0
  1914 ;;Total ram usage:        0 bytes
  1915 ;; Hardware stack levels used: 1
  1916 ;; This function calls:
  1917 ;;		Nothing
  1918 ;; This function is called by:
  1919 ;;		_Interrupt_Manager
  1920 ;; This function uses a non-reentrant model
  1921 ;;
  1922                           
  1923                           	psect	text18
  1924   0014E4                     __ptext18:
  1925                           	callstack 0
  1926   0014E4                     _RB4_ISR:
  1927                           	callstack 26
  1928   0014E4                     
  1929                           ;MCAL_layer/Interrupt/external_interrupt.c: 723:     (INTCONbits.RBIF = 0);
  1930   0014E4  90F2               	bcf	242,0,c	;volatile
  1931   0014E6  0012               	return		;funcret
  1932   0014E8                     __end_of_RB4_ISR:
  1933                           	callstack 0
  1934                           
  1935 ;; *************** function _INT2_ISR *****************
  1936 ;; Defined at:
  1937 ;;		line 706 in file "MCAL_layer/Interrupt/external_interrupt.c"
  1938 ;; Parameters:    Size  Location     Type
  1939 ;;		None
  1940 ;; Auto vars:     Size  Location     Type
  1941 ;;		None
  1942 ;; Return value:  Size  Location     Type
  1943 ;;                  1    wreg      void 
  1944 ;; Registers used:
  1945 ;;		None
  1946 ;; Tracked objects:
  1947 ;;		On entry : 0/0
  1948 ;;		On exit  : 0/0
  1949 ;;		Unchanged: 0/0
  1950 ;; Data sizes:     COMRAM   BANK0   BANK1   BANK2   BANK3   BANK4   BANK5   BANK6   BANK7   BANK8   BANK9  BANK10  BANK1
      +1  BANK12  BANK13  BANK14  BANK15
  1951 ;;      Params:         0       0       0       0       0       0       0       0       0       0       0       0       
      +0       0       0       0       0
  1952 ;;      Locals:         0       0       0       0       0       0       0       0       0       0       0       0       
      +0       0       0       0       0
  1953 ;;      Temps:          0       0       0       0       0       0       0       0       0       0       0       0       
      +0       0       0       0       0
  1954 ;;      Totals:         0       0       0       0       0       0       0       0       0       0       0       0       
      +0       0       0       0       0
  1955 ;;Total ram usage:        0 bytes
  1956 ;; Hardware stack levels used: 1
  1957 ;; This function calls:
  1958 ;;		Nothing
  1959 ;; This function is called by:
  1960 ;;		_Interrupt_Manager
  1961 ;; This function uses a non-reentrant model
  1962 ;;
  1963                           
  1964                           	psect	text19
  1965   0014E8                     __ptext19:
  1966                           	callstack 0
  1967   0014E8                     _INT2_ISR:
  1968                           	callstack 26
  1969   0014E8                     
  1970                           ;MCAL_layer/Interrupt/external_interrupt.c: 709:     (INTCON3bits.INT2IF = 0);
  1971   0014E8  92F0               	bcf	240,1,c	;volatile
  1972   0014EA  0012               	return		;funcret
  1973   0014EC                     __end_of_INT2_ISR:
  1974                           	callstack 0
  1975                           
  1976 ;; *************** function _INT1_ISR *****************
  1977 ;; Defined at:
  1978 ;;		line 692 in file "MCAL_layer/Interrupt/external_interrupt.c"
  1979 ;; Parameters:    Size  Location     Type
  1980 ;;		None
  1981 ;; Auto vars:     Size  Location     Type
  1982 ;;		None
  1983 ;; Return value:  Size  Location     Type
  1984 ;;                  1    wreg      void 
  1985 ;; Registers used:
  1986 ;;		None
  1987 ;; Tracked objects:
  1988 ;;		On entry : 0/0
  1989 ;;		On exit  : 0/0
  1990 ;;		Unchanged: 0/0
  1991 ;; Data sizes:     COMRAM   BANK0   BANK1   BANK2   BANK3   BANK4   BANK5   BANK6   BANK7   BANK8   BANK9  BANK10  BANK1
      +1  BANK12  BANK13  BANK14  BANK15
  1992 ;;      Params:         0       0       0       0       0       0       0       0       0       0       0       0       
      +0       0       0       0       0
  1993 ;;      Locals:         0       0       0       0       0       0       0       0       0       0       0       0       
      +0       0       0       0       0
  1994 ;;      Temps:          0       0       0       0       0       0       0       0       0       0       0       0       
      +0       0       0       0       0
  1995 ;;      Totals:         0       0       0       0       0       0       0       0       0       0       0       0       
      +0       0       0       0       0
  1996 ;;Total ram usage:        0 bytes
  1997 ;; Hardware stack levels used: 1
  1998 ;; This function calls:
  1999 ;;		Nothing
  2000 ;; This function is called by:
  2001 ;;		_Interrupt_Manager
  2002 ;; This function uses a non-reentrant model
  2003 ;;
  2004                           
  2005                           	psect	text20
  2006   0014EC                     __ptext20:
  2007                           	callstack 0
  2008   0014EC                     _INT1_ISR:
  2009                           	callstack 26
  2010   0014EC                     
  2011                           ;MCAL_layer/Interrupt/external_interrupt.c: 695:     (INTCON3bits.INT1IF = 0);
  2012   0014EC  90F0               	bcf	240,0,c	;volatile
  2013   0014EE  0012               	return		;funcret
  2014   0014F0                     __end_of_INT1_ISR:
  2015                           	callstack 0
  2016                           
  2017 ;; *************** function _INT0_ISR *****************
  2018 ;; Defined at:
  2019 ;;		line 678 in file "MCAL_layer/Interrupt/external_interrupt.c"
  2020 ;; Parameters:    Size  Location     Type
  2021 ;;		None
  2022 ;; Auto vars:     Size  Location     Type
  2023 ;;		None
  2024 ;; Return value:  Size  Location     Type
  2025 ;;                  1    wreg      void 
  2026 ;; Registers used:
  2027 ;;		None
  2028 ;; Tracked objects:
  2029 ;;		On entry : 0/0
  2030 ;;		On exit  : 0/0
  2031 ;;		Unchanged: 0/0
  2032 ;; Data sizes:     COMRAM   BANK0   BANK1   BANK2   BANK3   BANK4   BANK5   BANK6   BANK7   BANK8   BANK9  BANK10  BANK1
      +1  BANK12  BANK13  BANK14  BANK15
  2033 ;;      Params:         0       0       0       0       0       0       0       0       0       0       0       0       
      +0       0       0       0       0
  2034 ;;      Locals:         0       0       0       0       0       0       0       0       0       0       0       0       
      +0       0       0       0       0
  2035 ;;      Temps:          0       0       0       0       0       0       0       0       0       0       0       0       
      +0       0       0       0       0
  2036 ;;      Totals:         0       0       0       0       0       0       0       0       0       0       0       0       
      +0       0       0       0       0
  2037 ;;Total ram usage:        0 bytes
  2038 ;; Hardware stack levels used: 1
  2039 ;; This function calls:
  2040 ;;		Nothing
  2041 ;; This function is called by:
  2042 ;;		_Interrupt_Manager
  2043 ;; This function uses a non-reentrant model
  2044 ;;
  2045                           
  2046                           	psect	text21
  2047   0014F0                     __ptext21:
  2048                           	callstack 0
  2049   0014F0                     _INT0_ISR:
  2050                           	callstack 26
  2051   0014F0                     
  2052                           ;MCAL_layer/Interrupt/external_interrupt.c: 681:     (INTCONbits.INT0IF = 0);
  2053   0014F0  92F2               	bcf	242,1,c	;volatile
  2054   0014F2  0012               	return		;funcret
  2055   0014F4                     __end_of_INT0_ISR:
  2056                           	callstack 0
  2057                           
  2058 ;; *************** function _ADC_ISR *****************
  2059 ;; Defined at:
  2060 ;;		line 309 in file "MCAL_layer/ADC/adc.c"
  2061 ;; Parameters:    Size  Location     Type
  2062 ;;		None
  2063 ;; Auto vars:     Size  Location     Type
  2064 ;;		None
  2065 ;; Return value:  Size  Location     Type
  2066 ;;                  1    wreg      void 
  2067 ;; Registers used:
  2068 ;;		None
  2069 ;; Tracked objects:
  2070 ;;		On entry : 0/0
  2071 ;;		On exit  : 0/0
  2072 ;;		Unchanged: 0/0
  2073 ;; Data sizes:     COMRAM   BANK0   BANK1   BANK2   BANK3   BANK4   BANK5   BANK6   BANK7   BANK8   BANK9  BANK10  BANK1
      +1  BANK12  BANK13  BANK14  BANK15
  2074 ;;      Params:         0       0       0       0       0       0       0       0       0       0       0       0       
      +0       0       0       0       0
  2075 ;;      Locals:         0       0       0       0       0       0       0       0       0       0       0       0       
      +0       0       0       0       0
  2076 ;;      Temps:          0       0       0       0       0       0       0       0       0       0       0       0       
      +0       0       0       0       0
  2077 ;;      Totals:         0       0       0       0       0       0       0       0       0       0       0       0       
      +0       0       0       0       0
  2078 ;;Total ram usage:        0 bytes
  2079 ;; Hardware stack levels used: 1
  2080 ;; This function calls:
  2081 ;;		Nothing
  2082 ;; This function is called by:
  2083 ;;		_Interrupt_Manager
  2084 ;; This function uses a non-reentrant model
  2085 ;;
  2086                           
  2087                           	psect	text22
  2088   0014F4                     __ptext22:
  2089                           	callstack 0
  2090   0014F4                     _ADC_ISR:
  2091                           	callstack 26
  2092   0014F4                     
  2093                           ;MCAL_layer/ADC/adc.c: 311:     (PIR1bits.ADIF = 0);
  2094   0014F4  9C9E               	bcf	158,6,c	;volatile
  2095   0014F6  0012               	return		;funcret
  2096   0014F8                     __end_of_ADC_ISR:
  2097                           	callstack 0
  2098                           
  2099                           	psect	rparam
  2100   000000                     
  2101                           	psect	temp
  2102   00007D                     btemp:
  2103                           	callstack 0
  2104   00007D                     	ds	1
  2105   000000                     int$flags	set	btemp
  2106   000000                     wtemp8	set	btemp+1
  2107   000000                     ttemp5	set	btemp+1
  2108   000000                     ttemp6	set	btemp+4
  2109   000000                     ttemp7	set	btemp+8
  2110                           
  2111                           	psect	config
  2112                           
  2113                           ; Padding undefined space
  2114   300000                     	org	3145728
  2115   300000  FF                 	db	255
  2116                           
  2117                           ;Config register CONFIG1H @ 0x300001
  2118                           ;	Oscillator Selection bits
  2119                           ;	OSC = HS, HS oscillator
  2120                           ;	Fail-Safe Clock Monitor Enable bit
  2121                           ;	FCMEN = OFF, Fail-Safe Clock Monitor disabled
  2122                           ;	Internal/External Oscillator Switchover bit
  2123                           ;	IESO = OFF, Oscillator Switchover mode disabled
  2124   300001                     	org	3145729
  2125   300001  02                 	db	2
  2126                           
  2127                           ;Config register CONFIG2L @ 0x300002
  2128                           ;	Power-up Timer Enable bit
  2129                           ;	PWRT = OFF, PWRT disabled
  2130                           ;	Brown-out Reset Enable bits
  2131                           ;	BOREN = SBORDIS, Brown-out Reset enabled in hardware only (SBOREN is disabled)
  2132                           ;	Brown Out Reset Voltage bits
  2133                           ;	BORV = 3, Minimum setting
  2134   300002                     	org	3145730
  2135   300002  1F                 	db	31
  2136                           
  2137                           ;Config register CONFIG2H @ 0x300003
  2138                           ;	Watchdog Timer Enable bit
  2139                           ;	WDT = OFF, WDT disabled (control is placed on the SWDTEN bit)
  2140                           ;	Watchdog Timer Postscale Select bits
  2141                           ;	WDTPS = 32768, 1:32768
  2142   300003                     	org	3145731
  2143   300003  1E                 	db	30
  2144                           
  2145                           ; Padding undefined space
  2146   300004                     	org	3145732
  2147   300004  FF                 	db	255
  2148                           
  2149                           ;Config register CONFIG3H @ 0x300005
  2150                           ;	CCP2 MUX bit
  2151                           ;	CCP2MX = PORTC, CCP2 input/output is multiplexed with RC1
  2152                           ;	PORTB A/D Enable bit
  2153                           ;	PBADEN = OFF, PORTB<4:0> pins are configured as digital I/O on Reset
  2154                           ;	Low-Power Timer1 Oscillator Enable bit
  2155                           ;	LPT1OSC = OFF, Timer1 configured for higher power operation
  2156                           ;	MCLR Pin Enable bit
  2157                           ;	MCLRE = ON, MCLR pin enabled; RE3 input pin disabled
  2158   300005                     	org	3145733
  2159   300005  81                 	db	129
  2160                           
  2161                           ;Config register CONFIG4L @ 0x300006
  2162                           ;	Stack Full/Underflow Reset Enable bit
  2163                           ;	STVREN = ON, Stack full/underflow will cause Reset
  2164                           ;	Single-Supply ICSP Enable bit
  2165                           ;	LVP = OFF, Single-Supply ICSP disabled
  2166                           ;	Extended Instruction Set Enable bit
  2167                           ;	XINST = OFF, Instruction set extension and Indexed Addressing mode disabled (Legacy mo
      +                          de)
  2168                           ;	Background Debugger Enable bit
  2169                           ;	DEBUG = 0x1, unprogrammed default
  2170   300006                     	org	3145734
  2171   300006  81                 	db	129
  2172                           
  2173                           ; Padding undefined space
  2174   300007                     	org	3145735
  2175   300007  FF                 	db	255
  2176                           
  2177                           ;Config register CONFIG5L @ 0x300008
  2178                           ;	Code Protection bit
  2179                           ;	CP0 = OFF, Block 0 (000800-003FFFh) not code-protected
  2180                           ;	Code Protection bit
  2181                           ;	CP1 = OFF, Block 1 (004000-007FFFh) not code-protected
  2182                           ;	Code Protection bit
  2183                           ;	CP2 = OFF, Block 2 (008000-00BFFFh) not code-protected
  2184                           ;	Code Protection bit
  2185                           ;	CP3 = OFF, Block 3 (00C000-00FFFFh) not code-protected
  2186   300008                     	org	3145736
  2187   300008  0F                 	db	15
  2188                           
  2189                           ;Config register CONFIG5H @ 0x300009
  2190                           ;	Boot Block Code Protection bit
  2191                           ;	CPB = OFF, Boot block (000000-0007FFh) not code-protected
  2192                           ;	Data EEPROM Code Protection bit
  2193                           ;	CPD = OFF, Data EEPROM not code-protected
  2194   300009                     	org	3145737
  2195   300009  C0                 	db	192
  2196                           
  2197                           ;Config register CONFIG6L @ 0x30000A
  2198                           ;	Write Protection bit
  2199                           ;	WRT0 = OFF, Block 0 (000800-003FFFh) not write-protected
  2200                           ;	Write Protection bit
  2201                           ;	WRT1 = OFF, Block 1 (004000-007FFFh) not write-protected
  2202                           ;	Write Protection bit
  2203                           ;	WRT2 = OFF, Block 2 (008000-00BFFFh) not write-protected
  2204                           ;	Write Protection bit
  2205                           ;	WRT3 = OFF, Block 3 (00C000-00FFFFh) not write-protected
  2206   30000A                     	org	3145738
  2207   30000A  0F                 	db	15
  2208                           
  2209                           ;Config register CONFIG6H @ 0x30000B
  2210                           ;	Configuration Register Write Protection bit
  2211                           ;	WRTC = OFF, Configuration registers (300000-3000FFh) not write-protected
  2212                           ;	Boot Block Write Protection bit
  2213                           ;	WRTB = OFF, Boot Block (000000-0007FFh) not write-protected
  2214                           ;	Data EEPROM Write Protection bit
  2215                           ;	WRTD = OFF, Data EEPROM not write-protected
  2216   30000B                     	org	3145739
  2217   30000B  E0                 	db	224
  2218                           
  2219                           ;Config register CONFIG7L @ 0x30000C
  2220                           ;	Table Read Protection bit
  2221                           ;	EBTR0 = OFF, Block 0 (000800-003FFFh) not protected from table reads executed in other
      +                           blocks
  2222                           ;	Table Read Protection bit
  2223                           ;	EBTR1 = OFF, Block 1 (004000-007FFFh) not protected from table reads executed in other
      +                           blocks
  2224                           ;	Table Read Protection bit
  2225                           ;	EBTR2 = OFF, Block 2 (008000-00BFFFh) not protected from table reads executed in other
      +                           blocks
  2226                           ;	Table Read Protection bit
  2227                           ;	EBTR3 = OFF, Block 3 (00C000-00FFFFh) not protected from table reads executed in other
      +                           blocks
  2228   30000C                     	org	3145740
  2229   30000C  0F                 	db	15
  2230                           
  2231                           ;Config register CONFIG7H @ 0x30000D
  2232                           ;	Boot Block Table Read Protection bit
  2233                           ;	EBTRB = OFF, Boot Block (000000-0007FFh) not protected from table reads executed in ot
      +                          her blocks
  2234   30000D                     	org	3145741
  2235   30000D  40                 	db	64
  2236                           tosu	equ	0xFFF
  2237                           tosh	equ	0xFFE
  2238                           tosl	equ	0xFFD
  2239                           stkptr	equ	0xFFC
  2240                           pclatu	equ	0xFFB
  2241                           pclath	equ	0xFFA
  2242                           pcl	equ	0xFF9
  2243                           tblptru	equ	0xFF8
  2244                           tblptrh	equ	0xFF7
  2245                           tblptrl	equ	0xFF6
  2246                           tablat	equ	0xFF5
  2247                           prodh	equ	0xFF4
  2248                           prodl	equ	0xFF3
  2249                           indf0	equ	0xFEF
  2250                           postinc0	equ	0xFEE
  2251                           postdec0	equ	0xFED
  2252                           preinc0	equ	0xFEC
  2253                           plusw0	equ	0xFEB
  2254                           fsr0h	equ	0xFEA
  2255                           fsr0l	equ	0xFE9
  2256                           wreg	equ	0xFE8
  2257                           indf1	equ	0xFE7
  2258                           postinc1	equ	0xFE6
  2259                           postdec1	equ	0xFE5
  2260                           preinc1	equ	0xFE4
  2261                           plusw1	equ	0xFE3
  2262                           fsr1h	equ	0xFE2
  2263                           fsr1l	equ	0xFE1
  2264                           bsr	equ	0xFE0
  2265                           indf2	equ	0xFDF
  2266                           postinc2	equ	0xFDE
  2267                           postdec2	equ	0xFDD
  2268                           preinc2	equ	0xFDC
  2269                           plusw2	equ	0xFDB
  2270                           fsr2h	equ	0xFDA
  2271                           fsr2l	equ	0xFD9
  2272                           status	equ	0xFD8

Data Sizes:
    Strings     3
    Constant    16
    Data        39
    BSS         118
    Persistent  1
    Stack       0

Auto Spaces:
    Space          Size  Autos    Used
    COMRAM          126      6     124
    BANK0           128      1      41
    BANK1           256      0       0
    BANK2           256      0       0
    BANK3           256      0       0
    BANK4           256      0       0
    BANK5           256      0       0
    BANK6           256      0       0
    BANK7           256      0       0
    BANK8           256      0       0
    BANK9           256      0       0
    BANK10          256      0       0
    BANK11          256      0       0
    BANK12          256      0       0
    BANK13          256      0       0
    BANK14          256      0       0
    BANK15          128      0       0

Pointer List with Targets:

    ADC_Get_Conversion_Result@adc_config$ADC_INTERRUPT_HANDLER	PTR FTN()void  size(2) Largest target is 0

    ADC_Init@adc_config$ADC_INTERRUPT_HANDLER	PTR FTN()void  size(2) Largest target is 0

    ADC_InterruptHandler	PTR FTN()void  size(2) Largest target is 1
		 -> NULL(), 

    ADC_Result_Format_Configuration@adc_config$ADC_INTERRUPT_HANDLER	PTR FTN()void  size(2) Largest target is 0

    ADC_Voltage_Reference_Configuration@adc_config$ADC_INTERRUPT_HANDLER	PTR FTN()void  size(2) Largest target is 0

    f$.$buffer	PTR unsigned char  size(2) Largest target is 0

    f$.$source	PTR const unsigned char  size(2) Largest target is 0

    INT0_InterruptHandler	PTR FTN()void  size(2) Largest target is 1
		 -> NULL(), 

    INT1_InterruptHandler	PTR FTN()void  size(2) Largest target is 1
		 -> NULL(), 

    INT2_InterruptHandler	PTR FTN()void  size(2) Largest target is 1
		 -> NULL(), 

    Interrupt_INTx_Clear_Flag@_interrupt_INTx$EXTERNAL_INTERRUPT_CALLBACK	PTR FTN()void  size(2) Largest target is 0

    Interrupt_INTx_Disable@_interrupt_INTx$EXTERNAL_INTERRUPT_CALLBACK	PTR FTN()void  size(2) Largest target is 0

    Interrupt_INTx_Edge_init@_interrupt_INTx$EXTERNAL_INTERRUPT_CALLBACK	PTR FTN()void  size(2) Largest target is 0

    Interrupt_INTx_Enable@_interrupt_INTx$EXTERNAL_INTERRUPT_CALLBACK	PTR FTN()void  size(2) Largest target is 0

    Interrupt_INTx_Pin_init@_interrupt_INTx$EXTERNAL_INTERRUPT_CALLBACK	PTR FTN()void  size(2) Largest target is 0

    Interrupt_INTx_Priority_init@_interrupt_INTx$EXTERNAL_INTERRUPT_CALLBACK	PTR FTN()void  size(2) Largest target is 0

    Interrupt_RBx_Pin_init@_interrupt_RBx$EXTERNAL_INTERRUPT_CALLBACK	PTR FTN()void  size(2) Largest target is 0

    INTx_Set_Interrupt_Handler@_interrupt_INTx$EXTERNAL_INTERRUPT_CALLBACK	PTR FTN()void  size(2) Largest target is 0

    lat_registers	PTR volatile unsigned char [5] size(2) Largest target is 1
		 -> LATA(BITBIGSFRlllll[1]), LATB(BITBIGSFRllllh[1]), LATC(BITBIGSFRllllh[1]), LATD(BITBIGSFRllllh[1]), 
		 -> LATE(BITBIGSFRllllh[1]), 

    port_registers	PTR volatile unsigned char [5] size(2) Largest target is 1
		 -> PORTA(BITBIGSFRlllll[1]), PORTB(BITBIGSFRlllll[1]), PORTC(BITBIGSFRlllll[1]), PORTD(BITBIGSFRlllll[1]), 
		 -> PORTE(BITBIGSFRlllll[1]), 

    RB4_InterruptHandler	PTR FTN()void  size(2) Largest target is 1
		 -> NULL(), 

    RB5_InterruptHandler	PTR FTN()void  size(2) Largest target is 1
		 -> NULL(), 

    RB6_InterruptHandler	PTR FTN()void  size(2) Largest target is 1
		 -> NULL(), 

    RB7_InterruptHandler	PTR FTN()void  size(2) Largest target is 1
		 -> NULL(), 

    S1549$EXTERNAL_INTERRUPT_CALLBACK	PTR FTN()void  size(2) Largest target is 0

    S1591$EXTERNAL_INTERRUPT_CALLBACK	PTR FTN()void  size(2) Largest target is 0

    S2210$Timer0_Interrupt_Handlar	PTR FTN()void  size(2) Largest target is 0

    S2430$Timer1_Interrupt_Handlar	PTR FTN()void  size(2) Largest target is 0

    S2731$Timer2_Interrupt_Handlar	PTR FTN()void  size(2) Largest target is 0

    S2917$Timer3_Interrupt_Handlar	PTR FTN()void  size(2) Largest target is 1
		 -> Timer3_Interrupt_function(), 

    S3672$buffer	PTR unsigned char  size(2) Largest target is 0

    S3672$source	PTR const unsigned char  size(2) Largest target is 0

    S910$ADC_INTERRUPT_HANDLER	PTR FTN()void  size(2) Largest target is 0

    sp__memset	PTR void  size(2) Largest target is 0

    Timer0_Init@timer0_confg$Timer0_Interrupt_Handlar	PTR FTN()void  size(2) Largest target is 0

    Timer0_Mode@timer0_confg$Timer0_Interrupt_Handlar	PTR FTN()void  size(2) Largest target is 0

    Timer0_preloaded_value@timer0_confg$Timer0_Interrupt_Handlar	PTR FTN()void  size(2) Largest target is 0

    Timer0_Prescaler_config@timer0_confg$Timer0_Interrupt_Handlar	PTR FTN()void  size(2) Largest target is 0

    Timer0_Register_Size@timer0_confg$Timer0_Interrupt_Handlar	PTR FTN()void  size(2) Largest target is 0

    Timer0_Select_Edge@timer0_confg$Timer0_Interrupt_Handlar	PTR FTN()void  size(2) Largest target is 0

    Timer1_Clock_Synchronous_Status@timer1_confg$Timer1_Interrupt_Handlar	PTR FTN()void  size(2) Largest target is 0

    Timer1_Init@timer1_confg$Timer1_Interrupt_Handlar	PTR FTN()void  size(2) Largest target is 0

    Timer1_Mode@timer1_confg$Timer1_Interrupt_Handlar	PTR FTN()void  size(2) Largest target is 0

    Timer1_OSC_Status@timer1_confg$Timer1_Interrupt_Handlar	PTR FTN()void  size(2) Largest target is 0

    Timer1_preloaded_value@timer1_confg$Timer1_Interrupt_Handlar	PTR FTN()void  size(2) Largest target is 0

    Timer1_Prescaler_config@timer1_confg$Timer1_Interrupt_Handlar	PTR FTN()void  size(2) Largest target is 0

    Timer1_Register_Size@timer1_confg$Timer1_Interrupt_Handlar	PTR FTN()void  size(2) Largest target is 0

    Timer2_Init@timer2_confg$Timer2_Interrupt_Handlar	PTR FTN()void  size(2) Largest target is 0

    Timer2_Postscaler_config@timer2_confg$Timer2_Interrupt_Handlar	PTR FTN()void  size(2) Largest target is 0

    Timer2_preloaded_value@timer2_confg$Timer2_Interrupt_Handlar	PTR FTN()void  size(2) Largest target is 0

    Timer2_Prescaler_config@timer2_confg$Timer2_Interrupt_Handlar	PTR FTN()void  size(2) Largest target is 0

    timer3$Timer3_Interrupt_Handlar	PTR FTN()void  size(2) Largest target is 1
		 -> Timer3_Interrupt_function(), 

    Timer3_Clock_Synchronous_Status@timer3_confg	PTR const struct . size(1) Largest target is 9
		 -> timer3(BANK0[9]), 

    Timer3_Clock_Synchronous_Status@timer3_confg$Timer3_Interrupt_Handlar	PTR FTN()void  size(2) Largest target is 1
		 -> Timer3_Interrupt_function(), 

    Timer3_Init@timer3_confg	PTR const struct . size(1) Largest target is 9
		 -> timer3(BANK0[9]), 

    Timer3_Init@timer3_confg$Timer3_Interrupt_Handlar	PTR FTN()void  size(2) Largest target is 1
		 -> Timer3_Interrupt_function(), 

    Timer3_Interrupt_init@timer3_confg	PTR const struct . size(1) Largest target is 9
		 -> timer3(BANK0[9]), 

    Timer3_Mode@timer3_confg	PTR const struct . size(1) Largest target is 9
		 -> timer3(BANK0[9]), 

    Timer3_Mode@timer3_confg$Timer3_Interrupt_Handlar	PTR FTN()void  size(2) Largest target is 1
		 -> Timer3_Interrupt_function(), 

    Timer3_preloaded_value@timer3_confg	PTR const struct . size(1) Largest target is 9
		 -> timer3(BANK0[9]), 

    Timer3_preloaded_value@timer3_confg$Timer3_Interrupt_Handlar	PTR FTN()void  size(2) Largest target is 1
		 -> Timer3_Interrupt_function(), 

    Timer3_Prescaler_config@timer3_confg	PTR const struct . size(1) Largest target is 9
		 -> timer3(BANK0[9]), 

    Timer3_Prescaler_config@timer3_confg$Timer3_Interrupt_Handlar	PTR FTN()void  size(2) Largest target is 1
		 -> Timer3_Interrupt_function(), 

    Timer3_Register_Size@timer3_confg	PTR const struct . size(1) Largest target is 9
		 -> timer3(BANK0[9]), 

    Timer3_Register_Size@timer3_confg$Timer3_Interrupt_Handlar	PTR FTN()void  size(2) Largest target is 1
		 -> Timer3_Interrupt_function(), 

    TMR1_Interrupt_Handler	PTR FTN()void  size(2) Largest target is 1
		 -> NULL(), 

    TMR2_Interrupt_Handler	PTR FTN()void  size(2) Largest target is 1
		 -> NULL(), 

    TMR3_Interrupt_Handler	PTR FTN()void  size(2) Largest target is 1
		 -> Timer3_Interrupt_function(), NULL(), 

    TMR_Interrupt_Handler	PTR FTN()void  size(2) Largest target is 1
		 -> NULL(), 

    tris_registers	PTR volatile unsigned char [5] size(2) Largest target is 1
		 -> TRISA(BITBIGSFRlllll[1]), TRISB(ABS[1]), TRISC(ABS[1]), TRISD(ABS[1]), 
		 -> TRISE(ABS[1]), 

    vfprintf$0	PTR struct _IO_FILE size(1) Largest target is 12
		 -> sprintf@f(COMRAM[12]), 

    vfprintf$1	PTR const unsigned char  size(1) Largest target is 3
		 -> STR_1(CODE[3]), STR_2(CODE[3]), STR_3(CODE[3]), 

    vfprintf$2	PTR PTR void  size(1) Largest target is 1
		 -> sprintf@ap(COMRAM[1]), 


Critical Paths under _main in COMRAM

    _application_initializ->_Timer3_Init
    _Timer3_Init->_Timer3_Clock_Synchronous_Status
    _Timer3_Init->_Timer3_Mode
    _Timer3_Init->_Timer3_Register_Size
    _Timer3_Init->_Timer3_preloaded_value

Critical Paths under _Interrupt_Manager in COMRAM

    None.

Critical Paths under _main in BANK0

    _application_initializ->_Timer3_Init

Critical Paths under _Interrupt_Manager in BANK0

    None.

Critical Paths under _main in BANK1

    None.

Critical Paths under _Interrupt_Manager in BANK1

    None.

Critical Paths under _main in BANK2

    None.

Critical Paths under _Interrupt_Manager in BANK2

    None.

Critical Paths under _main in BANK3

    None.

Critical Paths under _Interrupt_Manager in BANK3

    None.

Critical Paths under _main in BANK4

    None.

Critical Paths under _Interrupt_Manager in BANK4

    None.

Critical Paths under _main in BANK5

    None.

Critical Paths under _Interrupt_Manager in BANK5

    None.

Critical Paths under _main in BANK6

    None.

Critical Paths under _Interrupt_Manager in BANK6

    None.

Critical Paths under _main in BANK7

    None.

Critical Paths under _Interrupt_Manager in BANK7

    None.

Critical Paths under _main in BANK8

    None.

Critical Paths under _Interrupt_Manager in BANK8

    None.

Critical Paths under _main in BANK9

    None.

Critical Paths under _Interrupt_Manager in BANK9

    None.

Critical Paths under _main in BANK10

    None.

Critical Paths under _Interrupt_Manager in BANK10

    None.

Critical Paths under _main in BANK11

    None.

Critical Paths under _Interrupt_Manager in BANK11

    None.

Critical Paths under _main in BANK12

    None.

Critical Paths under _Interrupt_Manager in BANK12

    None.

Critical Paths under _main in BANK13

    None.

Critical Paths under _Interrupt_Manager in BANK13

    None.

Critical Paths under _main in BANK14

    None.

Critical Paths under _Interrupt_Manager in BANK14

    None.

Critical Paths under _main in BANK15

    None.

Critical Paths under _Interrupt_Manager in BANK15

    None.

Call Graph Tables:

 ---------------------------------------------------------------------------------
 (Depth) Function   	        Calls       Base Space   Used Autos Params    Refs
 ---------------------------------------------------------------------------------
 (0) _main                                                 0     0      0    1132
              _application_initializ
 ---------------------------------------------------------------------------------
 (1) _application_initializ                                0     0      0    1132
                        _Timer3_Init
 ---------------------------------------------------------------------------------
 (2) _Timer3_Init                                          2     1      1    1132
                                              5 COMRAM     1     0      1
                                              0 BANK0      1     1      0
    _Timer3_Clock_Synchronous_Status
              _Timer3_Interrupt_init
                        _Timer3_Mode
            _Timer3_Prescaler_config
               _Timer3_Register_Size
             _Timer3_preloaded_value
 ---------------------------------------------------------------------------------
 (3) _Timer3_preloaded_value                               3     2      1     183
                                              2 COMRAM     3     2      1
 ---------------------------------------------------------------------------------
 (3) _Timer3_Register_Size                                 3     2      1     121
                                              2 COMRAM     3     2      1
 ---------------------------------------------------------------------------------
 (3) _Timer3_Prescaler_config                              2     1      1     121
                                              2 COMRAM     2     1      1
 ---------------------------------------------------------------------------------
 (3) _Timer3_Mode                                          3     2      1     121
                                              2 COMRAM     3     2      1
 ---------------------------------------------------------------------------------
 (3) _Timer3_Interrupt_init                                1     0      1      90
                                              2 COMRAM     1     0      1
 ---------------------------------------------------------------------------------
 (3) _Timer3_Clock_Synchronous_Status                      3     2      1     121
                                              2 COMRAM     3     2      1
 ---------------------------------------------------------------------------------
 Estimated maximum stack depth 3
 ---------------------------------------------------------------------------------
 (Depth) Function   	        Calls       Base Space   Used Autos Params    Refs
 ---------------------------------------------------------------------------------
 (4) _Interrupt_Manager                                    2     2      0       0
                                              0 COMRAM     2     2      0
                            _ADC_ISR
                           _INT0_ISR
                           _INT1_ISR
                           _INT2_ISR
                            _RB4_ISR
                            _RB5_ISR
                            _RB6_ISR
                            _RB7_ISR
                           _TMR0_ISR
                           _TMR1_ISR
                           _TMR2_ISR
                           _TMR3_ISR
 ---------------------------------------------------------------------------------
 (5) _TMR3_ISR                                             0     0      0       0
                                NULL *
          _Timer3_Interrupt_function *
 ---------------------------------------------------------------------------------
 (6) _Timer3_Interrupt_function                            0     0      0       0
 ---------------------------------------------------------------------------------
 (6) NULL(Fake)                                            0     0      0       0
 ---------------------------------------------------------------------------------
 (5) _TMR2_ISR                                             0     0      0       0
 ---------------------------------------------------------------------------------
 (5) _TMR1_ISR                                             0     0      0       0
 ---------------------------------------------------------------------------------
 (5) _TMR0_ISR                                             0     0      0       0
 ---------------------------------------------------------------------------------
 (5) _RB7_ISR                                              0     0      0       0
 ---------------------------------------------------------------------------------
 (5) _RB6_ISR                                              0     0      0       0
 ---------------------------------------------------------------------------------
 (5) _RB5_ISR                                              0     0      0       0
 ---------------------------------------------------------------------------------
 (5) _RB4_ISR                                              0     0      0       0
 ---------------------------------------------------------------------------------
 (5) _INT2_ISR                                             0     0      0       0
 ---------------------------------------------------------------------------------
 (5) _INT1_ISR                                             0     0      0       0
 ---------------------------------------------------------------------------------
 (5) _INT0_ISR                                             0     0      0       0
 ---------------------------------------------------------------------------------
 (5) _ADC_ISR                                              0     0      0       0
 ---------------------------------------------------------------------------------
 Estimated maximum stack depth 6
 ---------------------------------------------------------------------------------

 Call Graph Graphs:

 _main (ROOT)
   _application_initializ
     _Timer3_Init
       _Timer3_Clock_Synchronous_Status
       _Timer3_Interrupt_init
       _Timer3_Mode
       _Timer3_Prescaler_config
       _Timer3_Register_Size
       _Timer3_preloaded_value

 _Interrupt_Manager (ROOT)
   _ADC_ISR
   _INT0_ISR
   _INT1_ISR
   _INT2_ISR
   _RB4_ISR
   _RB5_ISR
   _RB6_ISR
   _RB7_ISR
   _TMR0_ISR
   _TMR1_ISR
   _TMR2_ISR
   _TMR3_ISR
     NULL(Fake) *
     _Timer3_Interrupt_function *

 Address spaces:
Name               Size   Autos  Total    Cost      Usage
BIGRAM             F7F      0       0      49        0.0%
EEDATA             400      0       0       0        0.0%
BITBANK14          100      0       0      33        0.0%
BANK14             100      0       0      34        0.0%
BITBANK13          100      0       0      31        0.0%
BANK13             100      0       0      32        0.0%
BITBANK12          100      0       0      29        0.0%
BANK12             100      0       0      30        0.0%
BITBANK11          100      0       0      27        0.0%
BANK11             100      0       0      28        0.0%
BITBANK10          100      0       0      25        0.0%
BANK10             100      0       0      26        0.0%
BITBANK9           100      0       0      23        0.0%
BANK9              100      0       0      24        0.0%
BITBANK8           100      0       0      21        0.0%
BANK8              100      0       0      22        0.0%
BITBANK7           100      0       0      19        0.0%
BANK7              100      0       0      20        0.0%
BITBANK6           100      0       0      17        0.0%
BANK6              100      0       0      18        0.0%
BITBANK5           100      0       0      15        0.0%
BANK5              100      0       0      16        0.0%
BITBANK4           100      0       0      13        0.0%
BANK4              100      0       0      14        0.0%
BITBANK3           100      0       0      10        0.0%
BANK3              100      0       0      11        0.0%
BITBANK2           100      0       0       8        0.0%
BANK2              100      0       0       9        0.0%
BITBANK1           100      0       0       6        0.0%
BANK1              100      0       0       7        0.0%
BITBANK15           80      0       0      35        0.0%
BANK15              80      0       0      36        0.0%
BITBANK0            80      0       0       4        0.0%
BANK0               80      1      29       5       32.0%
BITCOMRAM           7E      0       0       0        0.0%
COMRAM              7E      6      7C       1       98.4%
BITBIGSFRhhllhh     18      0       0      38        0.0%
BITBIGSFRhhh         D      0       0      37        0.0%
BITBIGSFRllhhhh      C      0       0      42        0.0%
BITBIGSFRllhhl       6      0       0      43        0.0%
BITBIGSFRlllhh       6      0       0      46        0.0%
BITBIGSFRhhlllh      5      0       0      39        0.0%
BITBIGSFRhhllll      5      0       0      41        0.0%
BITBIGSFRllhllh      4      0       0      44        0.0%
BITBIGSFRllllh       4      0       0      47        0.0%
BITBIGSFRlllll       4      0       0      48        0.0%
BITBIGSFRhhllll      1      0       0      40        0.0%
BITBIGSFRllhlll      1      0       0      45        0.0%
BIGSFR               0      0       0     200        0.0%
BITSFR               0      0       0     200        0.0%
SFR                  0      0       0     200        0.0%
STACK                0      0       0       2        0.0%
NULL                 0      0       0       0        0.0%
ABS                  0      0      A5      12        0.0%
DATA                 0      0      A5       3        0.0%
CODE                 0      0       0       0        0.0%


Microchip Technology PIC18 Macro Assembler V2.46 build 20240104201356 
Symbol Table                                                                                   Sat Aug 31 23:34:41 2024

                        ??_Interrupt_Manager 0076                      Timer3_Mode@timer3_confg 0078  
                            __end_of_ADC_ISR 14F8                                          _ret 007C  
                                        tosl 0FFD                                          wreg 0FE8  
                            __end_of_RB4_ISR 14E8                              __end_of_RB5_ISR 14E4  
                            __end_of_RB6_ISR 14E0                              __end_of_RB7_ISR 14DC  
                                       l1220 14A6                                         l1310 13D6  
                                       l1302 1414                                         l1214 1494  
                                       l1215 1494                                         l1306 1390  
                                       l1308 1396                                         l1309 139C  
                                       l1254 124A                                         l1255 128C  
                                       l1280 1466                                         l1256 1290  
                                       l1284 1344                                         l1292 12F8  
                                       l1286 134A                                         l1294 12FE  
                                       l1287 1350                                         l1295 1304  
                                       l1288 138A                                         l1296 133E  
                                       l1299 14C8                                         l4331 1356  
                                       l4325 144C                                         l4341 130A  
                                       l4351 13A2                                         l4327 1340  
                                       l4441 1374                                         l4337 12F4  
                                       l4361 122C                                         l4443 13C0  
                                       l4347 138C                                         l4371 128A  
                                       l4363 1242                                         l4357 13D8  
                                       l4365 124C                                         l4359 14C0  
                                       l4439 1328                                         l4367 1274  
                                       l4375 149C                      ??_application_initializ 007C  
                                       l4369 127C                                         l4377 1490  
                                       STR_1 1011                                         _LATA 0F89  
                                       _LATB 0F8A                                         _LATC 0F8B  
                                       _LATD 0F8C                                         _LATE 0F8D  
                                       u2340 1242                                         u2341 123E  
                                       _TMR2 0FCC                    __end_of_Interrupt_Manager 122C  
                                       _main 1490                                         fsr2h 0FDA  
                                       indf2 0FDF                                         fsr1l 0FE1  
                                       fsr2l 0FD9                                         btemp 007D  
                                       start 000E                         _RB7_InterruptHandler 0051  
                               ___param_bank 0000                             __end_of_INT0_ISR 14F4  
                           __end_of_INT1_ISR 14F0                             __end_of_INT2_ISR 14EC  
                                      ?_main 0076                                        _EEADR 0FA9  
                                      i2l512 14F6                                        i2l871 14EE  
                                      i2l954 1220                                        i2l867 14F2  
                                      i2l875 14EA                                        i2l883 14E2  
                                      i2l891 14DA                                        i2l879 14E6  
                                      i2l887 14DE                  ecu_dc_motor_initializ@F3064 003D  
                ecu_dc_motor_initializ@F3066 0039                                        _TMR0H 0FD7  
                                      _TMR1H 0FCF                                        _TMR0L 0FD6  
                                      _TMR1L 0FCE                                        _TMR3H 0FB3  
                                      _TMR3L 0FB2                                        _PORTA 0F80  
                                      _PORTB 0F81                                        _PORTC 0F82  
                                      _PORTD 0F83                                        _PORTE 0F84  
                                      _TRISA 0F92                                        _TRISB 0F93  
                                      _TRISC 0F94                                        _TRISD 0F95  
                                      _TRISE 0F96                             __end_of_TMR0_ISR 14C0  
                           __end_of_TMR1_ISR 14B4                             __end_of_TMR2_ISR 14D2  
                           __end_of_TMR3_ISR 144C                __end_of_Timer3_Interrupt_init 14CA  
                                      pclath 0FFA                                        pclatu 0FFB  
                                      tablat 0FF5                                        ttemp5 007E  
                                      ttemp6 0081                                        ttemp7 0085  
                                      status 0FD8                                        wtemp8 007E  
                            __initialization 1292                                 __end_of_main 149C  
                        ecu_led_toggle@F3076 0011                                    ??_ADC_ISR 0076  
                              _lat_registers 0062                     ?_Timer3_Prescaler_config 0078  
                                     ??_main 007C                 __end_of_Timer3_Register_Size 1340  
                              __activetblptr 0003                        _TMR_Interrupt_Handler 004F  
                                  ??_RB4_ISR 0076                                    ??_RB5_ISR 0076  
                                  ??_RB6_ISR 0076                                    ??_RB7_ISR 0076  
                    ?_Timer3_preloaded_value 0078                                _counter_value 0045  
                                     _ADRESH 0FC4                                       _EEADRH 0FAA  
                                     _ADRESL 0FC3                                       _EEDATA 0FA8  
                                     _EECON2 0FA7                                       i2l1004 14BE  
                                     i2l1223 14D6                                       i2l2301 14F4  
                                     i2l1185 14D0                                       i2l1098 14B2  
                                     i2l2139 14D2                                       i2l2341 14F0  
                                     i2l1277 144A                                       i2l2345 14EC  
                                     i2l2353 14E4                                       i2l2361 14DC  
                                     i2l2371 14B6                                       i2l2349 14E8  
                                     i2l2357 14E0                                       i2l2365 14D8  
                                     i2l2373 14BA                                       i2l2381 14AE  
                                     i2l2391 1418                                       i2l2369 14B4  
                                     i2l2377 14A8                                       i2l2385 14CA  
                                     i2l2393 141C                                       i2l2379 14AA  
                                     i2l2395 1420                                       i2l2397 1432  
                                     i2l2389 1416                                       i2l3701 109C  
                                     i2l3711 10CE                                       i2l3703 10AA  
                                     i2l3713 10DC                                       i2l3721 1100  
                                     i2l3705 10AE                                       i2l3731 113C  
                                     i2l3723 110E                                       i2l3715 10EA  
                                     i2l3707 10BC                                       i2l3741 116E  
                                     i2l3725 111C                                       i2l3733 1140  
                                     i2l3717 10EE                                       i2l3709 10C0  
                                     i2l3751 11A0                                       i2l3743 117C  
                                     i2l3735 114E                                       i2l3727 112A  
                                     i2l3719 10FC                                       i2l3761 11DC  
                                     i2l3753 11AE                                       i2l3745 1180  
                                     i2l3737 115C                                       i2l3729 112E  
                                     i2l3681 102E                                       i2l3771 120E  
                                     i2l3763 11E0                                       i2l3755 11BC  
                                     i2l3747 118E                                       i2l3739 1160  
                                     i2l3691 106A                                       i2l3683 103C  
                                     i2l3773 121C                                       i2l3765 11EE  
                                     i2l3757 11C0                                       i2l3749 119C  
                                     i2l3693 106E                                       i2l3685 1040  
                                     i2l3767 11FC                                       i2l3759 11CE  
                                     i2l3695 107C                                       i2l3687 104E  
                                     i2l3679 1020                                       i2l3769 1200  
                                     i2l3689 105C                                       i2l3697 1080  
                                     i2l3699 108E           Timer3_preloaded_value@timer3_confg 0078  
                              ??_Timer3_Init 007C                                ??_Timer3_Mode 0079  
                                     clear_0 12D8                                       clear_1 12E4  
                                     _timer3 009F                                       isa$std 0001  
             __end_of_Timer3_preloaded_value 1416                                 __pdataCOMRAM 0062  
                               __mediumconst 0000                                       tblptrh 0FF7  
                                     tblptrl 0FF6                                       tblptru 0FF8  
                                 __accesstop 0080                      __end_of__initialization 12EA  
                                  ?_INT0_ISR 0076                                    ?_INT1_ISR 0076  
                                  ?_INT2_ISR 0076                                ___rparam_used 0001  
                             __pcstackCOMRAM 0076                                 __pidataBANK0 147C  
            __end_of_Timer3_Prescaler_config 1468                                    ?_TMR0_ISR 0076  
                                  ?_TMR1_ISR 0076                                    ?_TMR2_ISR 0076  
                                  ?_TMR3_ISR 0076                              _preloaded_value 004D  
                        __end_of_Timer3_Init 1292                          __end_of_Timer3_Mode 138C  
               ecu_dc_motor_move_right@F3071 0035                 ecu_dc_motor_move_right@F3073 0031  
                                 __pbssBANK0 0080                __end_of_application_initializ 14A8  
                      _INT0_InterruptHandler 005D                                   ??_INT0_ISR 0076  
                                 ??_INT1_ISR 0076                                   ??_INT2_ISR 0076  
                                 __pnvCOMRAM 007C                         _Timer3_Register_Size 12F4  
                 ?_Timer3_Interrupt_function 0076                       _TMR3_Interrupt_Handler 0043  
                                 ??_TMR0_ISR 0076                                   ??_TMR1_ISR 0076  
                                 ??_TMR2_ISR 0076                                   ??_TMR3_ISR 0076  
                                    _ADC_ISR 14F4                                      _RB4_ISR 14E4  
                                    _RB5_ISR 14E0                                      _RB6_ISR 14DC  
                                    _RB7_ISR 14D8                                      i2u33_40 1432  
                                    i2u33_41 142E                                      i2u34_48 1438  
                                    i2u34_49 144A                               _tris_registers 006C  
                      ?_Timer3_Register_Size 0078                         _ADC_InterruptHandler 005F  
                                    __Hparam 0000                                      __Lparam 0000  
                                _Timer3_Init 122C                                  _Timer3_Mode 1340  
          __end_of_Timer3_Interrupt_function 14D8                                 __psmallconst 1000  
                                    __pcinit 1292                                      __ramtop 1000  
                                    __ptext0 1490                                      __ptext1 149C  
                                    __ptext2 122C                                      __ptext3 13D8  
                                    __ptext4 12F4                                      __ptext5 144C  
                                    __ptext6 1340                                      __ptext7 14C0  
                                    __ptext8 138C                                    _T0CONbits 0FD5  
                                  _T1CONbits 0FCD                                    _T2CONbits 0FCA  
                                  _T3CONbits 0FB1                               __pintcode_body 1016  
                       end_of_initialization 12EA                        _Timer3_Interrupt_init 14C0  
                                    int_func 1016  Timer3_Clock_Synchronous_Status@timer3_confg 0078  
                                    postdec1 0FE5                                      postdec2 0FDD  
                                    postinc0 0FEE                                      postinc2 0FDE  
                      _INT1_InterruptHandler 005B                                    _PORTBbits 0F81  
          Timer3_Interrupt_init@timer3_confg 0078                       ??_Timer3_Register_Size 0079  
           Timer3_Register_Size@timer3_confg 0078                      Timer3_Init@timer3_confg 007B  
                      ecu_led_turn_off@F3071 0015                convert_uint32_to_string@F3242 0080  
              convert_uint16_to_string@F3235 008B                                __pidataCOMRAM 1468  
                   ecu_relay_initializ@F3061 000D                          start_initialization 1292  
                ecu_dc_motor_move_left@F3080 0029                  ecu_dc_motor_move_left@F3078 002D  
                       _RB4_InterruptHandler 0057                       ?_Timer3_Interrupt_init 0078  
                ??_Timer3_Interrupt_function 0076                                  __pdataBANK0 0095  
               convert_uint8_to_string@F3228 0091                                     ?_ADC_ISR 0076  
    __end_of_Timer3_Clock_Synchronous_Status 13D8            ??_Timer3_Clock_Synchronous_Status 0079  
           ?_Timer3_Clock_Synchronous_Status 0078              _Timer3_Clock_Synchronous_Status 138C  
                                   ?_RB4_ISR 0076                                     ?_RB5_ISR 0076  
                                   ?_RB6_ISR 0076                                     ?_RB7_ISR 0076  
                                __pbssCOMRAM 0001                                __pcstackBANK0 00A8  
                    _Timer3_Prescaler_config 144C                        _INT2_InterruptHandler 0059  
                      _application_initializ 149C                                 ?_Timer3_Init 007B  
                               ?_Timer3_Mode 0078                       _TMR1_Interrupt_Handler 004B  
                                  __pintcode 0008                 _preloaded_value@Timer1$F2596 0049  
               _preloaded_value@Timer2$F2847 0061                     ??_Timer3_preloaded_value 0079  
               _preloaded_value@Timer3$F3139 0041          Timer3_Prescaler_config@timer3_confg 0078  
                                __smallconst 1000                    _Timer3_Interrupt_function 14D2  
                                   _INT0_ISR 14F0                                     _INT1_ISR 14EC  
                                   _INT2_ISR 14E8                                     _PIE1bits 0F9D  
                                   _PIE2bits 0FA0                               _keypad_sampels 1001  
                      ecu_relay_toggle@F3076 0001                                     i2u160_40 10AA  
                                   i2u152_40 102E                                     i2u160_41 10A6  
                                   i2u152_41 102A                                     i2u161_40 10BC  
                                   i2u153_40 103C                                     i2u161_41 10B8  
                                   i2u153_41 1038                                     i2u170_40 114E  
                                   i2u162_40 10CE                                     i2u154_40 104E  
                                   i2u170_41 114A                                     i2u162_41 10CA  
                                   i2u154_41 104A                                     i2u171_40 115C  
                                   i2u163_40 10DC                                     i2u155_40 105C  
                                   i2u171_41 1158                                     i2u163_41 10D8  
                                   i2u155_41 1058                                     i2u180_40 11EE  
                                   i2u172_40 116E                                     i2u164_40 10EA  
                                   i2u156_40 106A                                     i2u180_41 11EA  
                                   i2u172_41 116A                                     i2u164_41 10E6  
                                   i2u156_41 1066                                     i2u181_40 11FC  
                                   i2u173_40 117C                                     i2u165_40 10FC  
                                   i2u157_40 107C                                     i2u181_41 11F8  
                                   i2u173_41 1178                                     i2u165_41 10F8  
                                   i2u157_41 1078                                     i2u182_40 120E  
                                   i2u174_40 118E                                     i2u166_40 110E  
                                   i2u158_40 108E                                     i2u182_41 120A  
                                   i2u174_41 118A                                     i2u166_41 110A  
                                   i2u158_41 108A                                     i2u183_40 121C  
                                   i2u175_40 119C                                     i2u167_40 111C  
                                   i2u159_40 109C                                     i2u183_41 1218  
                                   i2u175_41 1198                                     i2u167_41 1118  
                                   i2u159_41 1098                                     i2u176_40 11AE  
                                   i2u168_40 112A                                     i2u176_41 11AA  
                                   i2u168_41 1126                                     i2u177_40 11BC  
                                   i2u169_40 113C                                     i2u177_41 11B8  
                                   i2u169_41 1138                                     _PIR1bits 0F9E  
                                   i2u178_40 11CE                                     i2u178_41 11CA  
                                   i2u179_40 11DC                                     i2u179_41 11D8  
                                   _PIR2bits 0FA1                         _RB5_InterruptHandler 0055  
                                   _TMR0_ISR 14B4                                     _TMR1_ISR 14A8  
                                   _TMR2_ISR 14CA                                     _TMR3_ISR 1416  
                                 _ADCON0bits 0FC2                                   _ADCON1bits 0FC1  
                                 _ADCON2bits 0FC0                         ecu_led_turn_on@F3066 0019  
                  ??_Timer3_Prescaler_config 0079                                  _INTCON2bits 0FF1  
                                _INTCON3bits 0FF0                                    copy_data0 12A6  
                                  copy_data1 12C6                       __end_of_keypad_sampels 1011  
                     ?_application_initializ 0076                                   _EECON1bits 0FA6  
                                   __Hrparam 0000                                     __Lrparam 0000  
                    ??_Timer3_Interrupt_init 0079                                     __ptext10 1416  
                                   __ptext11 14D2                                     __ptext20 14EC  
                                   __ptext12 14CA                                     __ptext21 14F0  
                                   __ptext13 14A8                                     __ptext22 14F4  
                                   __ptext14 14B4                                     __ptext15 14D8  
                                   __ptext16 14DC                                     __ptext17 14E0  
                                   __ptext18 14E4                                     __ptext19 14E8  
                     ecu_dc_motor_stop@F3085 0025                       ecu_dc_motor_stop@F3087 0021  
                    ecu_relay_turn_off@F3071 0005                                     isa$xinst 0000  
                                   int$flags 007D                       ecu_led_initializ@F3061 001D  
                                 _INTCONbits 0FF2                         _RB6_InterruptHandler 0053  
                     _Timer3_preloaded_value 13D8                                     intlevel2 0000  
                             Timer3_Init@ret 00A8                       ecu_relay_turn_on@F3066 0009  
                             _port_registers 0095                            _Interrupt_Manager 0008  
                     _TMR2_Interrupt_Handler 0047                           ?_Interrupt_Manager 0076  
