

Microchip MPLAB XC8 Assembler V2.46 build 20240104201356 
                                                                                               Wed Jul 31 07:10:46 2024

Microchip MPLAB XC8 C Compiler v2.46 (Free license) build 20240104201356 Og1 
     1                           	processor	18F4620
     2                           	fnconf	rparam,??,?,0
     3                           	pagewidth 120
     4                           	opt	flic
     5                           	psect	idataCOMRAM,global,class=CODE,delta=1,noexec
     6                           	psect	smallconst,global,reloc=2,class=SMALLCONST,delta=1,noexec
     7                           	psect	nvCOMRAM,global,class=COMRAM,space=1,delta=1,lowdata,noexec
     8                           	psect	cinit,global,reloc=2,class=CODE,delta=1
     9                           	psect	bssCOMRAM,global,class=COMRAM,space=1,delta=1,lowdata,noexec
    10                           	psect	dataCOMRAM,global,class=COMRAM,space=1,delta=1,lowdata,noexec
    11                           	psect	cstackBANK0,global,class=BANK0,space=1,delta=1,lowdata,noexec
    12                           	psect	cstackCOMRAM,global,class=COMRAM,space=1,delta=1,lowdata,noexec
    13                           	psect	text0,global,reloc=2,class=CODE,delta=1
    14                           	psect	text1,global,reloc=2,class=CODE,delta=1
    15                           	psect	text2,global,reloc=2,class=CODE,delta=1
    16                           	psect	text3,global,reloc=2,class=CODE,delta=1
    17                           	psect	text4,global,reloc=2,class=CODE,delta=1
    18                           	psect	text5,global,reloc=2,class=CODE,delta=1
    19                           	psect	text6,global,reloc=2,class=CODE,delta=1
    20                           	psect	text7,global,reloc=2,class=CODE,delta=1
    21                           	psect	text8,global,reloc=2,class=CODE,delta=1
    22                           	psect	text9,global,reloc=2,class=CODE,delta=1
    23                           	psect	text10,global,reloc=2,class=CODE,delta=1
    24                           	psect	text11,global,reloc=2,class=CODE,delta=1
    25                           	psect	text12,global,reloc=2,class=CODE,delta=1
    26                           	psect	text13,global,reloc=2,class=CODE,delta=1
    27                           	psect	text14,global,reloc=2,class=CODE,delta=1
    28                           	psect	text15,global,reloc=2,class=CODE,delta=1
    29                           	psect	intcodelo,global,reloc=2,class=CODE,delta=1
    30                           	psect	text17,global,reloc=2,class=CODE,delta=1
    31                           	psect	text18,global,reloc=2,class=CODE,delta=1
    32                           	psect	text19,global,reloc=2,class=CODE,delta=1
    33                           	psect	text20,global,reloc=2,class=CODE,delta=1
    34                           	psect	text21,global,reloc=2,class=CODE,delta=1
    35                           	psect	intcode,global,reloc=2,class=CODE,delta=1
    36                           	psect	intcode_body,global,reloc=2,class=CODE,delta=1
    37                           	psect	text23,global,reloc=2,class=CODE,delta=1
    38                           	psect	text24,global,reloc=2,class=CODE,delta=1
    39                           	psect	text25,global,reloc=2,class=CODE,delta=1
    40                           	psect	text26,global,reloc=2,class=CODE,delta=1
    41                           	psect	text27,global,reloc=2,class=CODE,delta=1
    42                           	psect	text28,global,reloc=2,class=CODE,delta=1
    43                           	psect	intsave_regs,global,class=BIGRAM,space=1,delta=1,noexec
    44                           	psect	rparam,global,class=COMRAM,space=1,delta=1,noexec
    45                           	psect	temp,global,ovrld,common,class=COMRAM,space=1,delta=1,lowdata
    46                           	psect	config,global,abs,ovrld,class=CONFIG,space=4,delta=1,noexec
    47   000000                     
    48                           ; Generated 17/10/2023 GMT
    49                           ; 
    50                           ; Copyright © 2023, Microchip Technology Inc. and its subsidiaries ("Microchip")
    51                           ; All rights reserved.
    52                           ; 
    53                           ; This software is developed by Microchip Technology Inc. and its subsidiaries ("Microch
      +                          ip").
    54                           ; 
    55                           ; Redistribution and use in source and binary forms, with or without modification, are
    56                           ; permitted provided that the following conditions are met:
    57                           ; 
    58                           ;     1. Redistributions of source code must retain the above copyright notice, this lis
      +                          t of
    59                           ;        conditions and the following disclaimer.
    60                           ; 
    61                           ;     2. Redistributions in binary form must reproduce the above copyright notice, this 
      +                          list
    62                           ;        of conditions and the following disclaimer in the documentation and/or other
    63                           ;        materials provided with the distribution. Publication is not required when
    64                           ;        this file is used in an embedded application.
    65                           ; 
    66                           ;     3. Microchip's name may not be used to endorse or promote products derived from th
      +                          is
    67                           ;        software without specific prior written permission.
    68                           ; 
    69                           ; THIS SOFTWARE IS PROVIDED BY MICROCHIP "AS IS" AND ANY EXPRESS OR IMPLIED WARRANTIES,
    70                           ; INCLUDING, BUT NOT LIMITED TO, THE IMPLIED WARRANTIES OF MERCHANTABILITY AND FITNESS F
      +                          OR
    71                           ; PURPOSE ARE DISCLAIMED.  IN NO EVENT SHALL MICROCHIP BE LIABLE FOR ANY DIRECT, INDIREC
      +                          T,
    72                           ; INCIDENTAL, SPECIAL, EXEMPLARY, OR CONSEQUENTIAL DAMAGES (INCLUDING BUT NOT LIMITED TO
    73                           ; PROCUREMENT OF SUBSTITUTE GOODS OR SERVICES; LOSS OF USE, DATA OR PROFITS; OR BUSINESS
    74                           ; INTERRUPTION) HOWSOEVER CAUSED AND ON ANY THEORY OF LIABILITY, WHETHER IN CONTRACT, ST
      +                          RICT
    75                           ; LIABILITY, OR TORT (INCLUDING NEGLIGENCE OR OTHERWISE) ARISING IN ANY WAY OUT OF THE U
      +                          SE OF
    76                           ; THIS SOFTWARE, EVEN IF ADVISED OF THE POSSIBILITY OF SUCH DAMAGE.
    77                           ; 
    78                           ; 
    79                           ; Code-generator required, PIC18F4620 Definitions
    80                           ; 
    81                           ; SFR Addresses
    82   000000                     
    83                           	psect	idataCOMRAM
    84   0019AA                     __pidataCOMRAM:
    85                           	callstack 0
    86                           
    87                           ;initializer for _port_registers
    88   0019AA  80                 	db	128
    89   0019AB  0F                 	db	15
    90   0019AC  81                 	db	129
    91   0019AD  0F                 	db	15
    92   0019AE  82                 	db	130
    93   0019AF  0F                 	db	15
    94   0019B0  83                 	db	131
    95   0019B1  0F                 	db	15
    96   0019B2  84                 	db	132
    97   0019B3  0F                 	db	15
    98                           
    99                           ;initializer for _lat_registers
   100   0019B4  89                 	db	137
   101   0019B5  0F                 	db	15
   102   0019B6  8A                 	db	138
   103   0019B7  0F                 	db	15
   104   0019B8  8B                 	db	139
   105   0019B9  0F                 	db	15
   106   0019BA  8C                 	db	140
   107   0019BB  0F                 	db	15
   108   0019BC  8D                 	db	141
   109   0019BD  0F                 	db	15
   110                           
   111                           ;initializer for _tris_registers
   112   0019BE  92                 	db	146
   113   0019BF  0F                 	db	15
   114   0019C0  93                 	db	147
   115   0019C1  0F                 	db	15
   116   0019C2  94                 	db	148
   117   0019C3  0F                 	db	15
   118   0019C4  95                 	db	149
   119   0019C5  0F                 	db	15
   120   0019C6  96                 	db	150
   121   0019C7  0F                 	db	15
   122                           
   123                           ;initializer for _int2_obj
   124   0019C8  70                 	db	low _ISR_2
   125   0019C9  1B                 	db	high _ISR_2
   126   0019CA  51                 	db	81
   127   0019CB  02                 	db	2
   128   0019CC  01                 	db	1
   129   0019CD  01                 	db	1
   130                           
   131                           ;initializer for _int1_obj
   132   0019CE  18                 	db	low _ISR_1
   133   0019CF  1B                 	db	high _ISR_1
   134   0019D0  49                 	db	73
   135   0019D1  01                 	db	1
   136   0019D2  01                 	db	1
   137   0019D3  00                 	db	0
   138                           
   139                           ;initializer for _into_obj
   140   0019D4  44                 	db	low _ISR_0
   141   0019D5  1B                 	db	high _ISR_0
   142   0019D6  41                 	db	65
   143   0019D7  00                 	db	0
   144   0019D8  01                 	db	1
   145   0019D9  00                 	db	0
   146                           
   147                           ;initializer for _led3
   148   0019DA  12                 	db	18
   149                           
   150                           ;initializer for _led2
   151   0019DB  0A                 	db	10
   152                           
   153                           ;initializer for _led1
   154   0019DC  02                 	db	2
   155                           
   156                           	psect	smallconst
   157   001000                     __psmallconst:
   158                           	callstack 0
   159   001000  00                 	db	0
   160   001001                     _keypad_sampels:
   161                           	callstack 0
   162   001001  37                 	db	55
   163   001002  38                 	db	56
   164   001003  39                 	db	57
   165   001004  2F                 	db	47
   166   001005  34                 	db	52
   167   001006  35                 	db	53
   168   001007  36                 	db	54
   169   001008  2A                 	db	42
   170   001009  31                 	db	49
   171   00100A  32                 	db	50
   172   00100B  33                 	db	51
   173   00100C  2D                 	db	45
   174   00100D  23                 	db	35
   175   00100E  30                 	db	48
   176   00100F  3D                 	db	61
   177   001010  2B                 	db	43
   178   001011                     __end_of_keypad_sampels:
   179                           	callstack 0
   180   000000                     _INTCON2bits	set	4081
   181   001011                     STR_1:
   182   001011  25                 	db	37
   183   001012  69                 	db	105	;'i'
   184   001013  00                 	db	0
   185   001014  00                 	db	0	; dummy byte at the end
   186   000000                     
   187                           	psect	nvCOMRAM
   188   000069                     __pnvCOMRAM:
   189                           	callstack 0
   190   000069                     _ret:
   191                           	callstack 0
   192   000069                     	ds	1
   193   000000                     _PORTE	set	3972
   194   000000                     _PORTD	set	3971
   195   000000                     _PORTC	set	3970
   196   000000                     _PORTB	set	3969
   197   000000                     _PORTA	set	3968
   198   000000                     _LATA	set	3977
   199   000000                     _TRISA	set	3986
   200   000000                     _RCONbits	set	4048
   201   000000                     _TRISE	set	3990
   202   000000                     _TRISD	set	3989
   203   000000                     _TRISC	set	3988
   204   000000                     _TRISB	set	3987
   205   000000                     _LATE	set	3981
   206   000000                     _LATD	set	3980
   207   000000                     _LATC	set	3979
   208   000000                     _LATB	set	3978
   209   000000                     _INTCON3bits	set	4080
   210   000000                     _INTCONbits	set	4082
   211                           
   212                           ; #config settings
   213                           
   214                           	psect	cinit
   215   001974                     __pcinit:
   216                           	callstack 0
   217   001974                     start_initialization:
   218                           	callstack 0
   219   001974                     __initialization:
   220                           	callstack 0
   221                           
   222                           ; Initialize objects allocated to COMRAM (51 bytes)
   223                           ; load TBLPTR registers with __pidataCOMRAM
   224   001974  0EAA               	movlw	low __pidataCOMRAM
   225   001976  6EF6               	movwf	tblptrl,c
   226   001978  0E19               	movlw	high __pidataCOMRAM
   227   00197A  6EF7               	movwf	tblptrh,c
   228   00197C  0E00               	movlw	low (__pidataCOMRAM shr (0+16))
   229   00197E  6EF8               	movwf	tblptru,c
   230   001980  EE00  F001         	lfsr	0,__pdataCOMRAM
   231   001984  EE10 F033          	lfsr	1,51
   232   001988                     copy_data0:
   233   001988  0009               	tblrd		*+
   234   00198A  CFF5 FFEE          	movff	tablat,postinc0
   235   00198E  50E5               	movf	postdec1,w,c
   236   001990  50E1               	movf	fsr1l,w,c
   237   001992  E1FA               	bnz	copy_data0
   238                           
   239                           ; Clear objects allocated to COMRAM (22 bytes)
   240   001994  EE00  F053         	lfsr	0,__pbssCOMRAM
   241   001998  0E16               	movlw	22
   242   00199A                     clear_0:
   243   00199A  6AEE               	clrf	postinc0,c
   244   00199C  06E8               	decf	wreg,f,c
   245   00199E  E1FD               	bnz	clear_0
   246   0019A0                     end_of_initialization:
   247                           	callstack 0
   248   0019A0                     __end_of__initialization:
   249                           	callstack 0
   250   0019A0  906A               	bcf	int$flags,0,c	;clear compiler interrupt flag (level 1)
   251   0019A2  926A               	bcf	int$flags,1,c	;clear compiler interrupt flag (level 2)
   252   0019A4  0100               	movlb	0
   253   0019A6  EF01  F00E         	goto	_main	;jump to C main() function
   254                           
   255                           	psect	bssCOMRAM
   256   000053                     __pbssCOMRAM:
   257                           	callstack 0
   258   000053                     _INT2_InterruptHandler:
   259                           	callstack 0
   260   000053                     	ds	2
   261   000055                     _INT1_InterruptHandler:
   262                           	callstack 0
   263   000055                     	ds	2
   264   000057                     _INT0_InterruptHandler:
   265                           	callstack 0
   266   000057                     	ds	2
   267   000059                     ecu_relay_toggle@F3076:
   268                           	callstack 0
   269   000059                     	ds	1
   270   00005A                     ecu_relay_turn_off@F3071:
   271                           	callstack 0
   272   00005A                     	ds	1
   273   00005B                     ecu_relay_turn_on@F3066:
   274                           	callstack 0
   275   00005B                     	ds	1
   276   00005C                     ecu_relay_initializ@F3061:
   277                           	callstack 0
   278   00005C                     	ds	1
   279   00005D                     ecu_led_toggle@F3076:
   280                           	callstack 0
   281   00005D                     	ds	1
   282   00005E                     ecu_led_turn_off@F3071:
   283                           	callstack 0
   284   00005E                     	ds	1
   285   00005F                     ecu_led_turn_on@F3066:
   286                           	callstack 0
   287   00005F                     	ds	1
   288   000060                     ecu_led_initializ@F3061:
   289                           	callstack 0
   290   000060                     	ds	1
   291   000061                     ecu_dc_motor_stop@F3087:
   292                           	callstack 0
   293   000061                     	ds	1
   294   000062                     ecu_dc_motor_stop@F3085:
   295                           	callstack 0
   296   000062                     	ds	1
   297   000063                     ecu_dc_motor_move_left@F3080:
   298                           	callstack 0
   299   000063                     	ds	1
   300   000064                     ecu_dc_motor_move_left@F3078:
   301                           	callstack 0
   302   000064                     	ds	1
   303   000065                     ecu_dc_motor_move_right@F3073:
   304                           	callstack 0
   305   000065                     	ds	1
   306   000066                     ecu_dc_motor_move_right@F3071:
   307                           	callstack 0
   308   000066                     	ds	1
   309   000067                     ecu_dc_motor_initializ@F3066:
   310                           	callstack 0
   311   000067                     	ds	1
   312   000068                     ecu_dc_motor_initializ@F3064:
   313                           	callstack 0
   314   000068                     	ds	1
   315                           
   316                           	psect	dataCOMRAM
   317   000001                     __pdataCOMRAM:
   318                           	callstack 0
   319   000001                     _port_registers:
   320                           	callstack 0
   321   000001                     	ds	10
   322   00000B                     _lat_registers:
   323                           	callstack 0
   324   00000B                     	ds	10
   325   000015                     _tris_registers:
   326                           	callstack 0
   327   000015                     	ds	10
   328   00001F                     _int2_obj:
   329                           	callstack 0
   330   00001F                     	ds	6
   331   000025                     _int1_obj:
   332                           	callstack 0
   333   000025                     	ds	6
   334   00002B                     _into_obj:
   335                           	callstack 0
   336   00002B                     	ds	6
   337   000031                     _led3:
   338                           	callstack 0
   339   000031                     	ds	1
   340   000032                     _led2:
   341                           	callstack 0
   342   000032                     	ds	1
   343   000033                     _led1:
   344                           	callstack 0
   345   000033                     	ds	1
   346                           
   347                           	psect	cstackBANK0
   348   000080                     __pcstackBANK0:
   349                           	callstack 0
   350   000080                     gpio_pin_direction_init@_pin_config:
   351                           	callstack 0
   352   000080                     gpio_pin_write_logic@_pin_config:
   353                           	callstack 0
   354   000080                     Interrupt_INTx_Enable@_interrupt_INTx:
   355                           	callstack 0
   356   000080                     Interrupt_INTx_Disable@_interrupt_INTx:
   357                           	callstack 0
   358   000080                     Interrupt_INTx_Priority_init@_interrupt_INTx:
   359                           	callstack 0
   360   000080                     Interrupt_INTx_Edge_init@_interrupt_INTx:
   361                           	callstack 0
   362   000080                     Interrupt_INTx_Clear_Flag@_interrupt_INTx:
   363                           	callstack 0
   364   000080                     INT0_Interrupt_Handler@Interrupt_Handler:
   365                           	callstack 0
   366   000080                     INT1_Interrupt_Handler@Interrupt_Handler:
   367                           	callstack 0
   368   000080                     INT2_Interrupt_Handler@Interrupt_Handler:
   369                           	callstack 0
   370                           
   371                           ; 2 bytes @ 0x0
   372   000080                     	ds	1
   373   000081                     ??_gpio_pin_direction_init:
   374   000081                     ??_Interrupt_INTx_Disable:
   375   000081                     ??_Interrupt_INTx_Clear_Flag:
   376   000081                     ??_Interrupt_INTx_Edge_init:
   377   000081                     ??_Interrupt_INTx_Priority_init:
   378   000081                     ??_Interrupt_INTx_Enable:
   379   000081                     gpio_pin_write_logic@logic:
   380                           	callstack 0
   381                           
   382                           ; 1 bytes @ 0x1
   383   000081                     	ds	1
   384   000082                     ??_gpio_pin_write_logic:
   385   000082                     INT0_Interrupt_Handler@ret:
   386                           	callstack 0
   387   000082                     INT1_Interrupt_Handler@ret:
   388                           	callstack 0
   389   000082                     INT2_Interrupt_Handler@ret:
   390                           	callstack 0
   391                           
   392                           ; 1 bytes @ 0x2
   393   000082                     	ds	1
   394   000083                     Interrupt_INTx_Enable@ret:
   395                           	callstack 0
   396   000083                     Interrupt_INTx_Disable@ret:
   397                           	callstack 0
   398   000083                     Interrupt_INTx_Priority_init@ret:
   399                           	callstack 0
   400   000083                     Interrupt_INTx_Edge_init@ret:
   401                           	callstack 0
   402   000083                     Interrupt_INTx_Clear_Flag@ret:
   403                           	callstack 0
   404   000083                     INTx_Set_Interrupt_Handler@_interrupt_INTx:
   405                           	callstack 0
   406                           
   407                           ; 1 bytes @ 0x3
   408   000083                     	ds	1
   409   000084                     ??_INTx_Set_Interrupt_Handler:
   410                           
   411                           ; 1 bytes @ 0x4
   412   000084                     	ds	2
   413   000086                     gpio_pin_direction_init@ret:
   414                           	callstack 0
   415   000086                     INTx_Set_Interrupt_Handler@ret:
   416                           	callstack 0
   417                           
   418                           ; 1 bytes @ 0x6
   419   000086                     	ds	1
   420   000087                     gpio_pin_write_logic@ret:
   421                           	callstack 0
   422   000087                     Interrupt_INTx_Pin_init@_interrupt_INTx:
   423                           	callstack 0
   424                           
   425                           ; 1 bytes @ 0x7
   426   000087                     	ds	1
   427   000088                     gpio_pin_Initialization@_pin_config:
   428                           	callstack 0
   429   000088                     Interrupt_INTx_Pin_init@ret:
   430                           	callstack 0
   431                           
   432                           ; 1 bytes @ 0x8
   433   000088                     	ds	1
   434   000089                     ??_gpio_pin_Initialization:
   435   000089                     Interrupt_INTx_init@_interrupt_INTx:
   436                           	callstack 0
   437                           
   438                           ; 1 bytes @ 0x9
   439   000089                     	ds	1
   440   00008A                     gpio_pin_Initialization@ret:
   441                           	callstack 0
   442   00008A                     Interrupt_INTx_init@ret:
   443                           	callstack 0
   444                           
   445                           ; 1 bytes @ 0xA
   446   00008A                     	ds	1
   447   00008B                     
   448                           ; 1 bytes @ 0xB
   449                           
   450                           	psect	cstackCOMRAM
   451   000034                     __pcstackCOMRAM:
   452                           	callstack 0
   453   000034                     i2gpio_pin_toggle_logic@_pin_config:
   454                           	callstack 0
   455                           
   456                           ; 1 bytes @ 0x0
   457   000034                     	ds	1
   458   000035                     ??i2_gpio_pin_toggle_logic:
   459                           
   460                           ; 1 bytes @ 0x1
   461   000035                     	ds	4
   462   000039                     i2gpio_pin_toggle_logic@ret:
   463                           	callstack 0
   464                           
   465                           ; 1 bytes @ 0x5
   466   000039                     	ds	1
   467   00003A                     ??i2_ISR_0:
   468   00003A                     ??i2_ISR_1:
   469   00003A                     ??i2_ISR_2:
   470                           
   471                           ; 1 bytes @ 0x6
   472   00003A                     	ds	2
   473   00003C                     ??_Interrupt_Manager_High:
   474                           
   475                           ; 1 bytes @ 0x8
   476   00003C                     	ds	6
   477   000042                     gpio_pin_toggle_logic@_pin_config:
   478                           	callstack 0
   479                           
   480                           ; 1 bytes @ 0xE
   481   000042                     	ds	1
   482   000043                     ??_gpio_pin_toggle_logic:
   483                           
   484                           ; 1 bytes @ 0xF
   485   000043                     	ds	4
   486   000047                     gpio_pin_toggle_logic@ret:
   487                           	callstack 0
   488                           
   489                           ; 1 bytes @ 0x13
   490   000047                     	ds	1
   491   000048                     ??_ISR_0:
   492   000048                     ??_ISR_1:
   493   000048                     ??_ISR_2:
   494                           
   495                           ; 1 bytes @ 0x14
   496   000048                     	ds	2
   497   00004A                     ??_Interrupt_Manager_Low:
   498                           
   499                           ; 1 bytes @ 0x16
   500   00004A                     	ds	9
   501                           
   502 ;;
   503 ;;Main: autosize = 0, tempsize = 0, incstack = 0, save=0
   504 ;;
   505 ;; *************** function _main *****************
   506 ;; Defined at:
   507 ;;		line 50 in file "application.c"
   508 ;; Parameters:    Size  Location     Type
   509 ;;		None
   510 ;; Auto vars:     Size  Location     Type
   511 ;;		None
   512 ;; Return value:  Size  Location     Type
   513 ;;                  2  737[None  ] int 
   514 ;; Registers used:
   515 ;;		wreg, fsr2l, fsr2h, status,2, status,0, prodl, prodh, cstack
   516 ;; Tracked objects:
   517 ;;		On entry : 0/0
   518 ;;		On exit  : 0/0
   519 ;;		Unchanged: 0/0
   520 ;; Data sizes:     COMRAM   BANK0   BANK1   BANK2   BANK3   BANK4   BANK5   BANK6   BANK7   BANK8   BANK9  BANK10  BANK1
      +1  BANK12  BANK13  BANK14  BANK15
   521 ;;      Params:         0       0       0       0       0       0       0       0       0       0       0       0       
      +0       0       0       0       0
   522 ;;      Locals:         0       0       0       0       0       0       0       0       0       0       0       0       
      +0       0       0       0       0
   523 ;;      Temps:          0       0       0       0       0       0       0       0       0       0       0       0       
      +0       0       0       0       0
   524 ;;      Totals:         0       0       0       0       0       0       0       0       0       0       0       0       
      +0       0       0       0       0
   525 ;;Total ram usage:        0 bytes
   526 ;; Hardware stack levels required when called: 12
   527 ;; This function calls:
   528 ;;		_application_initializ
   529 ;; This function is called by:
   530 ;;		Startup code after reset
   531 ;; This function uses a non-reentrant model
   532 ;;
   533                           
   534                           	psect	text0
   535   001C02                     __ptext0:
   536                           	callstack 0
   537   001C02                     _main:
   538                           	callstack 19
   539   001C02                     
   540                           ;application.c: 52:     application_initializ();
   541   001C02  EC95  F00C         	call	_application_initializ	;wreg free
   542   001C06                     l738:
   543   001C06  EF03  F00E         	goto	l738
   544   001C0A  EF43  F000         	goto	start
   545   001C0E                     __end_of_main:
   546                           	callstack 0
   547                           
   548 ;; *************** function _application_initializ *****************
   549 ;; Defined at:
   550 ;;		line 63 in file "application.c"
   551 ;; Parameters:    Size  Location     Type
   552 ;;		None
   553 ;; Auto vars:     Size  Location     Type
   554 ;;		None
   555 ;; Return value:  Size  Location     Type
   556 ;;                  1    wreg      void 
   557 ;; Registers used:
   558 ;;		wreg, fsr2l, fsr2h, status,2, status,0, prodl, prodh, cstack
   559 ;; Tracked objects:
   560 ;;		On entry : 0/0
   561 ;;		On exit  : 0/0
   562 ;;		Unchanged: 0/0
   563 ;; Data sizes:     COMRAM   BANK0   BANK1   BANK2   BANK3   BANK4   BANK5   BANK6   BANK7   BANK8   BANK9  BANK10  BANK1
      +1  BANK12  BANK13  BANK14  BANK15
   564 ;;      Params:         0       0       0       0       0       0       0       0       0       0       0       0       
      +0       0       0       0       0
   565 ;;      Locals:         0       0       0       0       0       0       0       0       0       0       0       0       
      +0       0       0       0       0
   566 ;;      Temps:          0       0       0       0       0       0       0       0       0       0       0       0       
      +0       0       0       0       0
   567 ;;      Totals:         0       0       0       0       0       0       0       0       0       0       0       0       
      +0       0       0       0       0
   568 ;;Total ram usage:        0 bytes
   569 ;; Hardware stack levels used: 1
   570 ;; Hardware stack levels required when called: 11
   571 ;; This function calls:
   572 ;;		_Interrupt_INTx_init
   573 ;;		_gpio_pin_Initialization
   574 ;; This function is called by:
   575 ;;		_main
   576 ;; This function uses a non-reentrant model
   577 ;;
   578                           
   579                           	psect	text1
   580   00192A                     __ptext1:
   581                           	callstack 0
   582   00192A                     _application_initializ:
   583                           	callstack 19
   584   00192A                     
   585                           ;application.c: 65:     ret = Interrupt_INTx_init(&into_obj);
   586   00192A  0E2B               	movlw	low _into_obj
   587   00192C  0100               	movlb	0	; () banked
   588   00192E  6F89               	movwf	Interrupt_INTx_init@_interrupt_INTx& (0+255),b
   589   001930  EC2E  F00C         	call	_Interrupt_INTx_init	;wreg free
   590   001934  6E69               	movwf	_ret^0,c
   591                           
   592                           ;application.c: 66:     ret = Interrupt_INTx_init(&int1_obj);
   593   001936  0E25               	movlw	low _int1_obj
   594   001938  0100               	movlb	0	; () banked
   595   00193A  6F89               	movwf	Interrupt_INTx_init@_interrupt_INTx& (0+255),b
   596   00193C  EC2E  F00C         	call	_Interrupt_INTx_init	;wreg free
   597   001940  6E69               	movwf	_ret^0,c
   598                           
   599                           ;application.c: 67:     ret = Interrupt_INTx_init(&int2_obj);
   600   001942  0E1F               	movlw	low _int2_obj
   601   001944  0100               	movlb	0	; () banked
   602   001946  6F89               	movwf	Interrupt_INTx_init@_interrupt_INTx& (0+255),b
   603   001948  EC2E  F00C         	call	_Interrupt_INTx_init	;wreg free
   604   00194C  6E69               	movwf	_ret^0,c
   605                           
   606                           ;application.c: 69:     ret = gpio_pin_Initialization(&led1);
   607   00194E  0E33               	movlw	low _led1
   608   001950  0100               	movlb	0	; () banked
   609   001952  6F88               	movwf	gpio_pin_Initialization@_pin_config& (0+255),b
   610   001954  EC63  F00C         	call	_gpio_pin_Initialization	;wreg free
   611   001958  6E69               	movwf	_ret^0,c
   612                           
   613                           ;application.c: 70:     ret = gpio_pin_Initialization(&led2);
   614   00195A  0E32               	movlw	low _led2
   615   00195C  0100               	movlb	0	; () banked
   616   00195E  6F88               	movwf	gpio_pin_Initialization@_pin_config& (0+255),b
   617   001960  EC63  F00C         	call	_gpio_pin_Initialization	;wreg free
   618   001964  6E69               	movwf	_ret^0,c
   619                           
   620                           ;application.c: 71:     ret = gpio_pin_Initialization(&led3);
   621   001966  0E31               	movlw	low _led3
   622   001968  0100               	movlb	0	; () banked
   623   00196A  6F88               	movwf	gpio_pin_Initialization@_pin_config& (0+255),b
   624   00196C  EC63  F00C         	call	_gpio_pin_Initialization	;wreg free
   625   001970  6E69               	movwf	_ret^0,c
   626   001972  0012               	return		;funcret
   627   001974                     __end_of_application_initializ:
   628                           	callstack 0
   629                           
   630 ;; *************** function _gpio_pin_Initialization *****************
   631 ;; Defined at:
   632 ;;		line 148 in file "MCAL_layer/GPIO/gpio.c"
   633 ;; Parameters:    Size  Location     Type
   634 ;;  _pin_config     1    8[BANK0 ] PTR const struct .
   635 ;;		 -> led3(1), led2(1), led1(1), ecu_relay_initializ@relay_init(1), 
   636 ;;		 -> ecu_led_initializ@_pin_config(1), ecu_dc_motor_initializ@dc_motor_pin_2(1), ecu_dc_motor_initializ@dc_motor_pin_
      +1(1), 
   637 ;; Auto vars:     Size  Location     Type
   638 ;;  ret             1   10[BANK0 ] unsigned char 
   639 ;; Return value:  Size  Location     Type
   640 ;;                  1    wreg      unsigned char 
   641 ;; Registers used:
   642 ;;		wreg, fsr2l, fsr2h, status,2, status,0, prodl, prodh, cstack
   643 ;; Tracked objects:
   644 ;;		On entry : 0/0
   645 ;;		On exit  : 0/0
   646 ;;		Unchanged: 0/0
   647 ;; Data sizes:     COMRAM   BANK0   BANK1   BANK2   BANK3   BANK4   BANK5   BANK6   BANK7   BANK8   BANK9  BANK10  BANK1
      +1  BANK12  BANK13  BANK14  BANK15
   648 ;;      Params:         0       1       0       0       0       0       0       0       0       0       0       0       
      +0       0       0       0       0
   649 ;;      Locals:         0       1       0       0       0       0       0       0       0       0       0       0       
      +0       0       0       0       0
   650 ;;      Temps:          0       1       0       0       0       0       0       0       0       0       0       0       
      +0       0       0       0       0
   651 ;;      Totals:         0       3       0       0       0       0       0       0       0       0       0       0       
      +0       0       0       0       0
   652 ;;Total ram usage:        3 bytes
   653 ;; Hardware stack levels used: 1
   654 ;; Hardware stack levels required when called: 9
   655 ;; This function calls:
   656 ;;		_gpio_pin_direction_init
   657 ;;		_gpio_pin_write_logic
   658 ;; This function is called by:
   659 ;;		_application_initializ
   660 ;;		_seg_initialization
   661 ;;		_ecu_dc_motor_initializ
   662 ;;		_keypad_initialize
   663 ;;		_lcd_4bit_init
   664 ;;		_lcd_8bit_init
   665 ;;		_ecu_led_initializ
   666 ;;		_ecu_relay_initializ
   667 ;; This function uses a non-reentrant model
   668 ;;
   669                           
   670                           	psect	text2
   671   0018C6                     __ptext2:
   672                           	callstack 0
   673   0018C6                     _gpio_pin_Initialization:
   674                           	callstack 20
   675   0018C6                     
   676                           ;MCAL_layer/GPIO/gpio.c: 151:     if(((void*)0) == _pin_config || _pin_config->pin > 8 -
      +                          1)
   677   0018C6  0100               	movlb	0	; () banked
   678   0018C8  5188               	movf	gpio_pin_Initialization@_pin_config& (0+255),w,b
   679   0018CA  B4D8               	btfsc	status,2,c
   680   0018CC  EF6A  F00C         	goto	u2991
   681   0018D0  EF6C  F00C         	goto	u2990
   682   0018D4                     u2991:
   683   0018D4  EF7C  F00C         	goto	l4306
   684   0018D8                     u2990:
   685   0018D8                     
   686                           ; BSR set to: 0
   687   0018D8  5188               	movf	gpio_pin_Initialization@_pin_config& (0+255),w,b
   688   0018DA  6ED9               	movwf	fsr2l,c
   689   0018DC  6ADA               	clrf	fsr2h,c
   690   0018DE  30DF               	rrcf	223,w,c
   691   0018E0  32E8               	rrcf	wreg,f,c
   692   0018E2  32E8               	rrcf	wreg,f,c
   693   0018E4  0B07               	andlw	7
   694   0018E6  6F89               	movwf	??_gpio_pin_Initialization& (0+255),b
   695   0018E8  0E07               	movlw	7
   696   0018EA  6589               	cpfsgt	??_gpio_pin_Initialization& (0+255),b
   697   0018EC  EF7A  F00C         	goto	u3001
   698   0018F0  EF7C  F00C         	goto	u3000
   699   0018F4                     u3001:
   700   0018F4  EF80  F00C         	goto	l4308
   701   0018F8                     u3000:
   702   0018F8                     l4306:
   703                           
   704                           ; BSR set to: 0
   705                           ;MCAL_layer/GPIO/gpio.c: 152:     {;MCAL_layer/GPIO/gpio.c: 153:         ret = (STD_Retu
      +                          rnType)0x00;
   706   0018F8  0E00               	movlw	0
   707   0018FA  6F8A               	movwf	gpio_pin_Initialization@ret& (0+255),b
   708                           
   709                           ;MCAL_layer/GPIO/gpio.c: 154:     }
   710   0018FC  EF93  F00C         	goto	l4310
   711   001900                     l4308:
   712                           
   713                           ; BSR set to: 0
   714                           ;MCAL_layer/GPIO/gpio.c: 156:     {;MCAL_layer/GPIO/gpio.c: 157:         ret = gpio_pin_
      +                          direction_init(_pin_config);
   715   001900  C088  F080         	movff	gpio_pin_Initialization@_pin_config,gpio_pin_direction_init@_pin_config
   716   001904  EC9A  F008         	call	_gpio_pin_direction_init	;wreg free
   717   001908  0100               	movlb	0	; () banked
   718   00190A  6F8A               	movwf	gpio_pin_Initialization@ret& (0+255),b
   719                           
   720                           ;MCAL_layer/GPIO/gpio.c: 158:         ret = gpio_pin_write_logic(_pin_config , _pin_conf
      +                          ig->logic);
   721   00190C  C088  F080         	movff	gpio_pin_Initialization@_pin_config,gpio_pin_write_logic@_pin_config
   722   001910  5188               	movf	gpio_pin_Initialization@_pin_config& (0+255),w,b
   723   001912  6ED9               	movwf	fsr2l,c
   724   001914  6ADA               	clrf	fsr2h,c
   725   001916  0E00               	movlw	0
   726   001918  BEDF               	btfsc	indf2,7,c
   727   00191A  0E01               	movlw	1
   728   00191C  6F81               	movwf	gpio_pin_write_logic@logic& (0+255),b
   729   00191E  EC26  F009         	call	_gpio_pin_write_logic	;wreg free
   730   001922  0100               	movlb	0	; () banked
   731   001924  6F8A               	movwf	gpio_pin_Initialization@ret& (0+255),b
   732   001926                     l4310:
   733                           
   734                           ; BSR set to: 0
   735                           ;MCAL_layer/GPIO/gpio.c: 161:     return ret;
   736   001926  518A               	movf	gpio_pin_Initialization@ret& (0+255),w,b
   737   001928                     
   738                           ; BSR set to: 0
   739   001928  0012               	return		;funcret
   740   00192A                     __end_of_gpio_pin_Initialization:
   741                           	callstack 0
   742                           
   743 ;; *************** function _gpio_pin_write_logic *****************
   744 ;; Defined at:
   745 ;;		line 76 in file "MCAL_layer/GPIO/gpio.c"
   746 ;; Parameters:    Size  Location     Type
   747 ;;  _pin_config     1    0[BANK0 ] PTR const struct .
   748 ;;		 -> led3(1), led2(1), led1(1), ecu_relay_turn_off@relay_init(1), 
   749 ;;		 -> ecu_relay_turn_on@relay_init(1), ecu_relay_initializ@relay_init(1), ecu_led_turn_off@_pin_config(1), ecu_led_tur
      +n_on@_pin_config(1), 
   750 ;;		 -> ecu_led_initializ@_pin_config(1), ecu_dc_motor_stop@dc_motor_pin_2(1), ecu_dc_motor_stop@dc_motor_pin_1(1), ecu_
      +dc_motor_move_left@dc_motor_pin_2(1), 
   751 ;;		 -> ecu_dc_motor_move_left@dc_motor_pin_1(1), ecu_dc_motor_move_right@dc_motor_pin_2(1), ecu_dc_motor_move_right@dc_
      +motor_pin_1(1), ecu_dc_motor_initializ@dc_motor_pin_2(1), 
   752 ;;		 -> ecu_dc_motor_initializ@dc_motor_pin_1(1), 
   753 ;;  logic           1    1[BANK0 ] enum E2981
   754 ;; Auto vars:     Size  Location     Type
   755 ;;  ret             1    7[BANK0 ] unsigned char 
   756 ;; Return value:  Size  Location     Type
   757 ;;                  1    wreg      unsigned char 
   758 ;; Registers used:
   759 ;;		wreg, fsr2l, fsr2h, status,2, status,0, prodl, prodh
   760 ;; Tracked objects:
   761 ;;		On entry : 0/0
   762 ;;		On exit  : 0/0
   763 ;;		Unchanged: 0/0
   764 ;; Data sizes:     COMRAM   BANK0   BANK1   BANK2   BANK3   BANK4   BANK5   BANK6   BANK7   BANK8   BANK9  BANK10  BANK1
      +1  BANK12  BANK13  BANK14  BANK15
   765 ;;      Params:         0       2       0       0       0       0       0       0       0       0       0       0       
      +0       0       0       0       0
   766 ;;      Locals:         0       1       0       0       0       0       0       0       0       0       0       0       
      +0       0       0       0       0
   767 ;;      Temps:          0       5       0       0       0       0       0       0       0       0       0       0       
      +0       0       0       0       0
   768 ;;      Totals:         0       8       0       0       0       0       0       0       0       0       0       0       
      +0       0       0       0       0
   769 ;;Total ram usage:        8 bytes
   770 ;; Hardware stack levels used: 1
   771 ;; Hardware stack levels required when called: 8
   772 ;; This function calls:
   773 ;;		Nothing
   774 ;; This function is called by:
   775 ;;		_gpio_pin_Initialization
   776 ;;		_seg_write_number
   777 ;;		_ecu_dc_motor_move_right
   778 ;;		_ecu_dc_motor_move_left
   779 ;;		_ecu_dc_motor_stop
   780 ;;		_keypad_get_value
   781 ;;		_lcd_4bit_send_command
   782 ;;		_lcd_4bit_send_data
   783 ;;		_lcd_send_4bits
   784 ;;		_lcd_send_4bit_enable_signal
   785 ;;		_lcd_8bit_send_command
   786 ;;		_lcd_8bit_send_data
   787 ;;		_lcd_send_8bit_enable_signal
   788 ;;		_ecu_led_turn_on
   789 ;;		_ecu_led_turn_off
   790 ;;		_ecu_relay_turn_on
   791 ;;		_ecu_relay_turn_off
   792 ;; This function uses a non-reentrant model
   793 ;;
   794                           
   795                           	psect	text3
   796   00124C                     __ptext3:
   797                           	callstack 0
   798   00124C                     _gpio_pin_write_logic:
   799                           	callstack 20
   800   00124C                     
   801                           ;MCAL_layer/GPIO/gpio.c: 76: STD_ReturnType gpio_pin_write_logic(const pin_config *_pin_
      +                          config, logic_t logic);MCAL_layer/GPIO/gpio.c: 77: {;MCAL_layer/GPIO/gpio.c: 78:     STD
      +                          _ReturnType ret = (STD_ReturnType)0x01;
   802   00124C  0E01               	movlw	1
   803   00124E  0100               	movlb	0	; () banked
   804   001250  6F87               	movwf	gpio_pin_write_logic@ret& (0+255),b
   805                           
   806                           ;MCAL_layer/GPIO/gpio.c: 79:     if(((void*)0) == _pin_config || _pin_config->pin > 8 -1
      +                          )
   807   001252  5180               	movf	gpio_pin_write_logic@_pin_config& (0+255),w,b
   808   001254  B4D8               	btfsc	status,2,c
   809   001256  EF2F  F009         	goto	u2871
   810   00125A  EF31  F009         	goto	u2870
   811   00125E                     u2871:
   812   00125E  EF41  F009         	goto	l4084
   813   001262                     u2870:
   814   001262                     
   815                           ; BSR set to: 0
   816   001262  5180               	movf	gpio_pin_write_logic@_pin_config& (0+255),w,b
   817   001264  6ED9               	movwf	fsr2l,c
   818   001266  6ADA               	clrf	fsr2h,c
   819   001268  30DF               	rrcf	223,w,c
   820   00126A  32E8               	rrcf	wreg,f,c
   821   00126C  32E8               	rrcf	wreg,f,c
   822   00126E  0B07               	andlw	7
   823   001270  6F82               	movwf	??_gpio_pin_write_logic& (0+255),b
   824   001272  0E07               	movlw	7
   825   001274  6582               	cpfsgt	??_gpio_pin_write_logic& (0+255),b
   826   001276  EF3F  F009         	goto	u2881
   827   00127A  EF41  F009         	goto	u2880
   828   00127E                     u2881:
   829   00127E  EF9A  F009         	goto	l4092
   830   001282                     u2880:
   831   001282                     l4084:
   832                           
   833                           ; BSR set to: 0
   834                           ;MCAL_layer/GPIO/gpio.c: 80:     {;MCAL_layer/GPIO/gpio.c: 81:         ret = (STD_Return
      +                          Type)0x00;
   835   001282  0E00               	movlw	0
   836   001284  6F87               	movwf	gpio_pin_write_logic@ret& (0+255),b
   837                           
   838                           ;MCAL_layer/GPIO/gpio.c: 82:     }
   839   001286  EFAF  F009         	goto	l4094
   840   00128A                     l4086:
   841                           
   842                           ; BSR set to: 0
   843                           ;MCAL_layer/GPIO/gpio.c: 88:                 (*lat_registers[_pin_config->port] &= ~((ui
      +                          nt8)1 << _pin_config->pin));
   844   00128A  5180               	movf	gpio_pin_write_logic@_pin_config& (0+255),w,b
   845   00128C  6ED9               	movwf	fsr2l,c
   846   00128E  6ADA               	clrf	fsr2h,c
   847   001290  30DF               	rrcf	223,w,c
   848   001292  32E8               	rrcf	wreg,f,c
   849   001294  32E8               	rrcf	wreg,f,c
   850   001296  0B07               	andlw	7
   851   001298  6F82               	movwf	??_gpio_pin_write_logic& (0+255),b
   852   00129A  0E01               	movlw	1
   853   00129C  6F83               	movwf	(??_gpio_pin_write_logic+1)& (0+255),b
   854   00129E  2B82               	incf	??_gpio_pin_write_logic& (0+255),f,b
   855   0012A0  EF54  F009         	goto	u2894
   856   0012A4                     u2895:
   857   0012A4  90D8               	bcf	status,0,c
   858   0012A6  3783               	rlcf	(??_gpio_pin_write_logic+1)& (0+255),f,b
   859   0012A8                     u2894:
   860   0012A8  2F82               	decfsz	??_gpio_pin_write_logic& (0+255),f,b
   861   0012AA  EF52  F009         	goto	u2895
   862   0012AE  0100               	movlb	0	; () banked
   863   0012B0  5183               	movf	(??_gpio_pin_write_logic+1)& (0+255),w,b
   864   0012B2  0AFF               	xorlw	255
   865   0012B4  6F84               	movwf	(??_gpio_pin_write_logic+2)& (0+255),b
   866   0012B6  5180               	movf	gpio_pin_write_logic@_pin_config& (0+255),w,b
   867   0012B8  6ED9               	movwf	fsr2l,c
   868   0012BA  6ADA               	clrf	fsr2h,c
   869   0012BC  50DF               	movf	223,w,c
   870   0012BE  0B07               	andlw	7
   871   0012C0  0D02               	mullw	2
   872   0012C2  50F3               	movf	243,w,c
   873   0012C4  0F0B               	addlw	low _lat_registers
   874   0012C6  6ED9               	movwf	fsr2l,c
   875   0012C8  6ADA               	clrf	fsr2h,c
   876   0012CA  CFDE F085          	movff	postinc2,??_gpio_pin_write_logic+3
   877   0012CE  CFDD F086          	movff	postdec2,??_gpio_pin_write_logic+4
   878   0012D2  C085  FFD9         	movff	??_gpio_pin_write_logic+3,fsr2l
   879   0012D6  C086  FFDA         	movff	??_gpio_pin_write_logic+4,fsr2h
   880   0012DA  5184               	movf	(??_gpio_pin_write_logic+2)& (0+255),w,b
   881   0012DC  16DF               	andwf	indf2,f,c
   882                           
   883                           ;MCAL_layer/GPIO/gpio.c: 89:                 break;
   884   0012DE  EFAF  F009         	goto	l4094
   885   0012E2                     l4088:
   886                           
   887                           ; BSR set to: 0
   888                           ;MCAL_layer/GPIO/gpio.c: 91:                 (*lat_registers[_pin_config->port] |= ((uin
      +                          t8)1 << _pin_config->pin));
   889   0012E2  5180               	movf	gpio_pin_write_logic@_pin_config& (0+255),w,b
   890   0012E4  6ED9               	movwf	fsr2l,c
   891   0012E6  6ADA               	clrf	fsr2h,c
   892   0012E8  30DF               	rrcf	223,w,c
   893   0012EA  32E8               	rrcf	wreg,f,c
   894   0012EC  32E8               	rrcf	wreg,f,c
   895   0012EE  0B07               	andlw	7
   896   0012F0  6F82               	movwf	??_gpio_pin_write_logic& (0+255),b
   897   0012F2  0E01               	movlw	1
   898   0012F4  6F83               	movwf	(??_gpio_pin_write_logic+1)& (0+255),b
   899   0012F6  2B82               	incf	??_gpio_pin_write_logic& (0+255),f,b
   900   0012F8  EF80  F009         	goto	u2904
   901   0012FC                     u2905:
   902   0012FC  90D8               	bcf	status,0,c
   903   0012FE  3783               	rlcf	(??_gpio_pin_write_logic+1)& (0+255),f,b
   904   001300                     u2904:
   905   001300  2F82               	decfsz	??_gpio_pin_write_logic& (0+255),f,b
   906   001302  EF7E  F009         	goto	u2905
   907   001306  0100               	movlb	0	; () banked
   908   001308  5180               	movf	gpio_pin_write_logic@_pin_config& (0+255),w,b
   909   00130A  6ED9               	movwf	fsr2l,c
   910   00130C  6ADA               	clrf	fsr2h,c
   911   00130E  50DF               	movf	223,w,c
   912   001310  0B07               	andlw	7
   913   001312  0D02               	mullw	2
   914   001314  50F3               	movf	243,w,c
   915   001316  0F0B               	addlw	low _lat_registers
   916   001318  6ED9               	movwf	fsr2l,c
   917   00131A  6ADA               	clrf	fsr2h,c
   918   00131C  CFDE F084          	movff	postinc2,??_gpio_pin_write_logic+2
   919   001320  CFDD F085          	movff	postdec2,??_gpio_pin_write_logic+3
   920   001324  C084  FFD9         	movff	??_gpio_pin_write_logic+2,fsr2l
   921   001328  C085  FFDA         	movff	??_gpio_pin_write_logic+3,fsr2h
   922   00132C  5183               	movf	(??_gpio_pin_write_logic+1)& (0+255),w,b
   923   00132E  12DF               	iorwf	indf2,f,c
   924                           
   925                           ;MCAL_layer/GPIO/gpio.c: 92:                 break;
   926   001330  EFAF  F009         	goto	l4094
   927   001334                     l4092:
   928                           
   929                           ; BSR set to: 0
   930   001334  5181               	movf	gpio_pin_write_logic@logic& (0+255),w,b
   931   001336  6F82               	movwf	??_gpio_pin_write_logic& (0+255),b
   932   001338  6B83               	clrf	(??_gpio_pin_write_logic+1)& (0+255),b
   933                           
   934                           ; Switch on 2 bytes has been partitioned into a top level switch of size 1, and 1 sub-sw
      +                          itches
   935                           ; Switch size 1, requested type "simple"
   936                           ; Number of cases is 1, Range of values is 0 to 0
   937                           ; switch strategies available:
   938                           ; Name         Instructions Cycles
   939                           ; simple_byte            4     3 (average)
   940                           ;	Chosen strategy is simple_byte
   941   00133A  5183               	movf	(??_gpio_pin_write_logic+1)& (0+255),w,b
   942   00133C  0A00               	xorlw	0	; case 0
   943   00133E  B4D8               	btfsc	status,2,c
   944   001340  EFA4  F009         	goto	l5478
   945   001344  EF41  F009         	goto	l4084
   946   001348                     l5478:
   947                           
   948                           ; BSR set to: 0
   949                           ; Switch size 1, requested type "simple"
   950                           ; Number of cases is 2, Range of values is 0 to 1
   951                           ; switch strategies available:
   952                           ; Name         Instructions Cycles
   953                           ; simple_byte            7     4 (average)
   954                           ;	Chosen strategy is simple_byte
   955   001348  5182               	movf	??_gpio_pin_write_logic& (0+255),w,b
   956   00134A  0A00               	xorlw	0	; case 0
   957   00134C  B4D8               	btfsc	status,2,c
   958   00134E  EF45  F009         	goto	l4086
   959   001352  0A01               	xorlw	1	; case 1
   960   001354  B4D8               	btfsc	status,2,c
   961   001356  EF71  F009         	goto	l4088
   962   00135A  EF41  F009         	goto	l4084
   963   00135E                     l4094:
   964                           
   965                           ; BSR set to: 0
   966                           ;MCAL_layer/GPIO/gpio.c: 98:     return ret;
   967   00135E  5187               	movf	gpio_pin_write_logic@ret& (0+255),w,b
   968   001360                     
   969                           ; BSR set to: 0
   970   001360  0012               	return		;funcret
   971   001362                     __end_of_gpio_pin_write_logic:
   972                           	callstack 0
   973                           
   974 ;; *************** function _Interrupt_INTx_init *****************
   975 ;; Defined at:
   976 ;;		line 41 in file "MCAL_layer/Interrupt/external_interrupt.c"
   977 ;; Parameters:    Size  Location     Type
   978 ;;  _interrupt_I    1    9[BANK0 ] PTR const struct .
   979 ;;		 -> int2_obj(6), int1_obj(6), into_obj(6), 
   980 ;; Auto vars:     Size  Location     Type
   981 ;;  ret             1   10[BANK0 ] unsigned char 
   982 ;; Return value:  Size  Location     Type
   983 ;;                  1    wreg      unsigned char 
   984 ;; Registers used:
   985 ;;		wreg, fsr2l, fsr2h, status,2, status,0, prodl, prodh, cstack
   986 ;; Tracked objects:
   987 ;;		On entry : 0/0
   988 ;;		On exit  : 0/0
   989 ;;		Unchanged: 0/0
   990 ;; Data sizes:     COMRAM   BANK0   BANK1   BANK2   BANK3   BANK4   BANK5   BANK6   BANK7   BANK8   BANK9  BANK10  BANK1
      +1  BANK12  BANK13  BANK14  BANK15
   991 ;;      Params:         0       1       0       0       0       0       0       0       0       0       0       0       
      +0       0       0       0       0
   992 ;;      Locals:         0       1       0       0       0       0       0       0       0       0       0       0       
      +0       0       0       0       0
   993 ;;      Temps:          0       0       0       0       0       0       0       0       0       0       0       0       
      +0       0       0       0       0
   994 ;;      Totals:         0       2       0       0       0       0       0       0       0       0       0       0       
      +0       0       0       0       0
   995 ;;Total ram usage:        2 bytes
   996 ;; Hardware stack levels used: 1
   997 ;; Hardware stack levels required when called: 10
   998 ;; This function calls:
   999 ;;		_INTx_Set_Interrupt_Handler
  1000 ;;		_Interrupt_INTx_Clear_Flag
  1001 ;;		_Interrupt_INTx_Disable
  1002 ;;		_Interrupt_INTx_Edge_init
  1003 ;;		_Interrupt_INTx_Enable
  1004 ;;		_Interrupt_INTx_Pin_init
  1005 ;;		_Interrupt_INTx_Priority_init
  1006 ;; This function is called by:
  1007 ;;		_application_initializ
  1008 ;; This function uses a non-reentrant model
  1009 ;;
  1010                           
  1011                           	psect	text4
  1012   00185C                     __ptext4:
  1013                           	callstack 0
  1014   00185C                     _Interrupt_INTx_init:
  1015                           	callstack 19
  1016   00185C                     
  1017                           ;MCAL_layer/Interrupt/external_interrupt.c: 45:     if(((void*)0) == _interrupt_INTx)
  1018   00185C  0100               	movlb	0	; () banked
  1019   00185E  5189               	movf	Interrupt_INTx_init@_interrupt_INTx& (0+255),w,b
  1020   001860  A4D8               	btfss	status,2,c
  1021   001862  EF35  F00C         	goto	u3101
  1022   001866  EF37  F00C         	goto	u3100
  1023   00186A                     u3101:
  1024   00186A  EF3B  F00C         	goto	l4408
  1025   00186E                     u3100:
  1026   00186E                     
  1027                           ; BSR set to: 0
  1028                           ;MCAL_layer/Interrupt/external_interrupt.c: 46:     {;MCAL_layer/Interrupt/external_inte
      +                          rrupt.c: 47:         ret = (STD_ReturnType)0x00;
  1029   00186E  0E00               	movlw	0
  1030   001870  6F8A               	movwf	Interrupt_INTx_init@ret& (0+255),b
  1031                           
  1032                           ;MCAL_layer/Interrupt/external_interrupt.c: 48:     }
  1033   001872  EF61  F00C         	goto	l4416
  1034   001876                     l4408:
  1035                           
  1036                           ; BSR set to: 0
  1037                           ;MCAL_layer/Interrupt/external_interrupt.c: 50:     {;MCAL_layer/Interrupt/external_inte
      +                          rrupt.c: 52:         ret = Interrupt_INTx_Disable(_interrupt_INTx);
  1038   001876  C089  F080         	movff	Interrupt_INTx_init@_interrupt_INTx,Interrupt_INTx_Disable@_interrupt_INTx
  1039   00187A  ECBE  F00B         	call	_Interrupt_INTx_Disable	;wreg free
  1040   00187E  0100               	movlb	0	; () banked
  1041   001880  6F8A               	movwf	Interrupt_INTx_init@ret& (0+255),b
  1042                           
  1043                           ;MCAL_layer/Interrupt/external_interrupt.c: 55:         ret = Interrupt_INTx_Clear_Flag(
      +                          _interrupt_INTx);
  1044   001882  C089  F080         	movff	Interrupt_INTx_init@_interrupt_INTx,Interrupt_INTx_Clear_Flag@_interrupt_INTx
  1045   001886  ECF6  F00B         	call	_Interrupt_INTx_Clear_Flag	;wreg free
  1046   00188A  0100               	movlb	0	; () banked
  1047   00188C  6F8A               	movwf	Interrupt_INTx_init@ret& (0+255),b
  1048                           
  1049                           ;MCAL_layer/Interrupt/external_interrupt.c: 58:         ret = Interrupt_INTx_Edge_init(_
      +                          interrupt_INTx);
  1050   00188E  C089  F080         	movff	Interrupt_INTx_init@_interrupt_INTx,Interrupt_INTx_Edge_init@_interrupt_INTx
  1051   001892  EC0B  F008         	call	_Interrupt_INTx_Edge_init	;wreg free
  1052   001896  0100               	movlb	0	; () banked
  1053   001898  6F8A               	movwf	Interrupt_INTx_init@ret& (0+255),b
  1054                           
  1055                           ;MCAL_layer/Interrupt/external_interrupt.c: 61:         ret = Interrupt_INTx_Priority_in
      +                          it(_interrupt_INTx);
  1056   00189A  C089  F080         	movff	Interrupt_INTx_init@_interrupt_INTx,Interrupt_INTx_Priority_init@_interrupt_INTx
  1057   00189E  EC2D  F00A         	call	_Interrupt_INTx_Priority_init	;wreg free
  1058   0018A2  0100               	movlb	0	; () banked
  1059   0018A4  6F8A               	movwf	Interrupt_INTx_init@ret& (0+255),b
  1060   0018A6                     
  1061                           ; BSR set to: 0
  1062   0018A6  C089  F087         	movff	Interrupt_INTx_init@_interrupt_INTx,Interrupt_INTx_Pin_init@_interrupt_INTx
  1063   0018AA  EC34  F00D         	call	_Interrupt_INTx_Pin_init	;wreg free
  1064   0018AE  C089  F083         	movff	Interrupt_INTx_init@_interrupt_INTx,INTx_Set_Interrupt_Handler@_interrupt_INTx
  1065   0018B2  ECA3  F00A         	call	_INTx_Set_Interrupt_Handler	;wreg free
  1066   0018B6                     
  1067                           ;MCAL_layer/Interrupt/external_interrupt.c: 70:         ret = Interrupt_INTx_Enable(_int
      +                          errupt_INTx);
  1068   0018B6  C089  F080         	movff	Interrupt_INTx_init@_interrupt_INTx,Interrupt_INTx_Enable@_interrupt_INTx
  1069   0018BA  ECB1  F009         	call	_Interrupt_INTx_Enable	;wreg free
  1070   0018BE  0100               	movlb	0	; () banked
  1071   0018C0  6F8A               	movwf	Interrupt_INTx_init@ret& (0+255),b
  1072   0018C2                     l4416:
  1073                           
  1074                           ; BSR set to: 0
  1075                           ;MCAL_layer/Interrupt/external_interrupt.c: 72:     return ret;
  1076   0018C2  518A               	movf	Interrupt_INTx_init@ret& (0+255),w,b
  1077   0018C4                     
  1078                           ; BSR set to: 0
  1079   0018C4  0012               	return		;funcret
  1080   0018C6                     __end_of_Interrupt_INTx_init:
  1081                           	callstack 0
  1082                           
  1083 ;; *************** function _Interrupt_INTx_Priority_init *****************
  1084 ;; Defined at:
  1085 ;;		line 254 in file "MCAL_layer/Interrupt/external_interrupt.c"
  1086 ;; Parameters:    Size  Location     Type
  1087 ;;  _interrupt_I    1    0[BANK0 ] PTR const struct .
  1088 ;;		 -> int2_obj(6), int1_obj(6), into_obj(6), 
  1089 ;; Auto vars:     Size  Location     Type
  1090 ;;  ret             1    3[BANK0 ] unsigned char 
  1091 ;; Return value:  Size  Location     Type
  1092 ;;                  1    wreg      unsigned char 
  1093 ;; Registers used:
  1094 ;;		wreg, fsr2l, fsr2h, status,2, status,0
  1095 ;; Tracked objects:
  1096 ;;		On entry : 0/0
  1097 ;;		On exit  : 0/0
  1098 ;;		Unchanged: 0/0
  1099 ;; Data sizes:     COMRAM   BANK0   BANK1   BANK2   BANK3   BANK4   BANK5   BANK6   BANK7   BANK8   BANK9  BANK10  BANK1
      +1  BANK12  BANK13  BANK14  BANK15
  1100 ;;      Params:         0       1       0       0       0       0       0       0       0       0       0       0       
      +0       0       0       0       0
  1101 ;;      Locals:         0       1       0       0       0       0       0       0       0       0       0       0       
      +0       0       0       0       0
  1102 ;;      Temps:          0       2       0       0       0       0       0       0       0       0       0       0       
      +0       0       0       0       0
  1103 ;;      Totals:         0       4       0       0       0       0       0       0       0       0       0       0       
      +0       0       0       0       0
  1104 ;;Total ram usage:        4 bytes
  1105 ;; Hardware stack levels used: 1
  1106 ;; Hardware stack levels required when called: 8
  1107 ;; This function calls:
  1108 ;;		Nothing
  1109 ;; This function is called by:
  1110 ;;		_Interrupt_INTx_init
  1111 ;; This function uses a non-reentrant model
  1112 ;;
  1113                           
  1114                           	psect	text5
  1115   00145A                     __ptext5:
  1116                           	callstack 0
  1117   00145A                     _Interrupt_INTx_Priority_init:
  1118                           	callstack 20
  1119   00145A                     
  1120                           ;MCAL_layer/Interrupt/external_interrupt.c: 254: static STD_ReturnType Interrupt_INTx_Pr
      +                          iority_init(const interrupt_INTx *_interrupt_INTx);MCAL_layer/Interrupt/external_interru
      +                          pt.c: 255: {;MCAL_layer/Interrupt/external_interrupt.c: 256:     STD_ReturnType ret = (S
      +                          TD_ReturnType)0x01;
  1121   00145A  0E01               	movlw	1
  1122   00145C  0100               	movlb	0	; () banked
  1123   00145E  6F83               	movwf	Interrupt_INTx_Priority_init@ret& (0+255),b
  1124                           
  1125                           ;MCAL_layer/Interrupt/external_interrupt.c: 258:     if((((void*)0) == _interrupt_INTx) 
      +                          || (INTCONbits.GIE == 0))
  1126   001460  5180               	movf	Interrupt_INTx_Priority_init@_interrupt_INTx& (0+255),w,b
  1127   001462  B4D8               	btfsc	status,2,c
  1128   001464  EF36  F00A         	goto	u2941
  1129   001468  EF38  F00A         	goto	u2940
  1130   00146C                     u2941:
  1131   00146C  EF3F  F00A         	goto	l4190
  1132   001470                     u2940:
  1133   001470                     
  1134                           ; BSR set to: 0
  1135   001470  BEF2               	btfsc	242,7,c	;volatile
  1136   001472  EF3D  F00A         	goto	u2951
  1137   001476  EF3F  F00A         	goto	u2950
  1138   00147A                     u2951:
  1139   00147A  EF83  F00A         	goto	l4202
  1140   00147E                     u2950:
  1141   00147E                     l4190:
  1142                           
  1143                           ; BSR set to: 0
  1144                           ;MCAL_layer/Interrupt/external_interrupt.c: 259:     {;MCAL_layer/Interrupt/external_int
      +                          errupt.c: 260:         ret = (STD_ReturnType)0x00;
  1145   00147E  0E00               	movlw	0
  1146   001480  6F83               	movwf	Interrupt_INTx_Priority_init@ret& (0+255),b
  1147                           
  1148                           ;MCAL_layer/Interrupt/external_interrupt.c: 261:     }
  1149   001482  EFA1  F00A         	goto	l4204
  1150   001486                     l574:
  1151                           
  1152                           ; BSR set to: 0
  1153                           ;MCAL_layer/Interrupt/external_interrupt.c: 272:                         (INTCON3bits.IN
      +                          T1IP = 0);
  1154   001486  9CF0               	bcf	240,6,c	;volatile
  1155                           
  1156                           ;MCAL_layer/Interrupt/external_interrupt.c: 273:                         break;
  1157   001488  EFA1  F00A         	goto	l4204
  1158   00148C                     l576:
  1159                           
  1160                           ; BSR set to: 0
  1161                           ;MCAL_layer/Interrupt/external_interrupt.c: 275:                         (INTCON3bits.IN
      +                          T1IP = 1);
  1162   00148C  8CF0               	bsf	240,6,c	;volatile
  1163                           
  1164                           ;MCAL_layer/Interrupt/external_interrupt.c: 276:                         break;
  1165   00148E  EFA1  F00A         	goto	l4204
  1166   001492                     l4194:
  1167                           
  1168                           ; BSR set to: 0
  1169   001492  5180               	movf	Interrupt_INTx_Priority_init@_interrupt_INTx& (0+255),w,b
  1170   001494  6ED9               	movwf	fsr2l,c
  1171   001496  6ADA               	clrf	fsr2h,c
  1172   001498  0E05               	movlw	5
  1173   00149A  26D9               	addwf	fsr2l,f,c
  1174   00149C  50DF               	movf	indf2,w,c
  1175   00149E  6F81               	movwf	??_Interrupt_INTx_Priority_init& (0+255),b
  1176   0014A0  6B82               	clrf	(??_Interrupt_INTx_Priority_init+1)& (0+255),b
  1177                           
  1178                           ; Switch on 2 bytes has been partitioned into a top level switch of size 1, and 1 sub-sw
      +                          itches
  1179                           ; Switch size 1, requested type "simple"
  1180                           ; Number of cases is 1, Range of values is 0 to 0
  1181                           ; switch strategies available:
  1182                           ; Name         Instructions Cycles
  1183                           ; simple_byte            4     3 (average)
  1184                           ;	Chosen strategy is simple_byte
  1185   0014A2  5182               	movf	(??_Interrupt_INTx_Priority_init+1)& (0+255),w,b
  1186   0014A4  0A00               	xorlw	0	; case 0
  1187   0014A6  B4D8               	btfsc	status,2,c
  1188   0014A8  EF58  F00A         	goto	l5480
  1189   0014AC  EFA1  F00A         	goto	l4204
  1190   0014B0                     l5480:
  1191                           
  1192                           ; BSR set to: 0
  1193                           ; Switch size 1, requested type "simple"
  1194                           ; Number of cases is 2, Range of values is 0 to 1
  1195                           ; switch strategies available:
  1196                           ; Name         Instructions Cycles
  1197                           ; simple_byte            7     4 (average)
  1198                           ;	Chosen strategy is simple_byte
  1199   0014B0  5181               	movf	??_Interrupt_INTx_Priority_init& (0+255),w,b
  1200   0014B2  0A00               	xorlw	0	; case 0
  1201   0014B4  B4D8               	btfsc	status,2,c
  1202   0014B6  EF43  F00A         	goto	l574
  1203   0014BA  0A01               	xorlw	1	; case 1
  1204   0014BC  B4D8               	btfsc	status,2,c
  1205   0014BE  EF46  F00A         	goto	l576
  1206   0014C2  EFA1  F00A         	goto	l4204
  1207   0014C6                     l579:
  1208                           
  1209                           ; BSR set to: 0
  1210                           ;MCAL_layer/Interrupt/external_interrupt.c: 284:                         (INTCON3bits.IN
      +                          T2IP = 0);
  1211   0014C6  9EF0               	bcf	240,7,c	;volatile
  1212                           
  1213                           ;MCAL_layer/Interrupt/external_interrupt.c: 285:                         break;
  1214   0014C8  EFA1  F00A         	goto	l4204
  1215   0014CC                     l581:
  1216                           
  1217                           ; BSR set to: 0
  1218                           ;MCAL_layer/Interrupt/external_interrupt.c: 287:                         (INTCON3bits.IN
      +                          T2IP = 1);
  1219   0014CC  8EF0               	bsf	240,7,c	;volatile
  1220                           
  1221                           ;MCAL_layer/Interrupt/external_interrupt.c: 288:                         break;
  1222   0014CE  EFA1  F00A         	goto	l4204
  1223   0014D2                     l4198:
  1224                           
  1225                           ; BSR set to: 0
  1226   0014D2  5180               	movf	Interrupt_INTx_Priority_init@_interrupt_INTx& (0+255),w,b
  1227   0014D4  6ED9               	movwf	fsr2l,c
  1228   0014D6  6ADA               	clrf	fsr2h,c
  1229   0014D8  0E04               	movlw	4
  1230   0014DA  26D9               	addwf	fsr2l,f,c
  1231   0014DC  50DF               	movf	indf2,w,c
  1232   0014DE  6F81               	movwf	??_Interrupt_INTx_Priority_init& (0+255),b
  1233   0014E0  6B82               	clrf	(??_Interrupt_INTx_Priority_init+1)& (0+255),b
  1234                           
  1235                           ; Switch on 2 bytes has been partitioned into a top level switch of size 1, and 1 sub-sw
      +                          itches
  1236                           ; Switch size 1, requested type "simple"
  1237                           ; Number of cases is 1, Range of values is 0 to 0
  1238                           ; switch strategies available:
  1239                           ; Name         Instructions Cycles
  1240                           ; simple_byte            4     3 (average)
  1241                           ;	Chosen strategy is simple_byte
  1242   0014E2  5182               	movf	(??_Interrupt_INTx_Priority_init+1)& (0+255),w,b
  1243   0014E4  0A00               	xorlw	0	; case 0
  1244   0014E6  B4D8               	btfsc	status,2,c
  1245   0014E8  EF78  F00A         	goto	l5482
  1246   0014EC  EFA1  F00A         	goto	l4204
  1247   0014F0                     l5482:
  1248                           
  1249                           ; BSR set to: 0
  1250                           ; Switch size 1, requested type "simple"
  1251                           ; Number of cases is 2, Range of values is 0 to 1
  1252                           ; switch strategies available:
  1253                           ; Name         Instructions Cycles
  1254                           ; simple_byte            7     4 (average)
  1255                           ;	Chosen strategy is simple_byte
  1256   0014F0  5181               	movf	??_Interrupt_INTx_Priority_init& (0+255),w,b
  1257   0014F2  0A00               	xorlw	0	; case 0
  1258   0014F4  B4D8               	btfsc	status,2,c
  1259   0014F6  EF63  F00A         	goto	l579
  1260   0014FA  0A01               	xorlw	1	; case 1
  1261   0014FC  B4D8               	btfsc	status,2,c
  1262   0014FE  EF66  F00A         	goto	l581
  1263   001502  EFA1  F00A         	goto	l4204
  1264   001506                     l4202:
  1265                           
  1266                           ; BSR set to: 0
  1267   001506  5180               	movf	Interrupt_INTx_Priority_init@_interrupt_INTx& (0+255),w,b
  1268   001508  6ED9               	movwf	fsr2l,c
  1269   00150A  6ADA               	clrf	fsr2h,c
  1270   00150C  0E03               	movlw	3
  1271   00150E  26D9               	addwf	fsr2l,f,c
  1272   001510  50DF               	movf	indf2,w,c
  1273   001512  6F81               	movwf	??_Interrupt_INTx_Priority_init& (0+255),b
  1274   001514  6B82               	clrf	(??_Interrupt_INTx_Priority_init+1)& (0+255),b
  1275                           
  1276                           ; Switch on 2 bytes has been partitioned into a top level switch of size 1, and 1 sub-sw
      +                          itches
  1277                           ; Switch size 1, requested type "simple"
  1278                           ; Number of cases is 1, Range of values is 0 to 0
  1279                           ; switch strategies available:
  1280                           ; Name         Instructions Cycles
  1281                           ; simple_byte            4     3 (average)
  1282                           ;	Chosen strategy is simple_byte
  1283   001516  5182               	movf	(??_Interrupt_INTx_Priority_init+1)& (0+255),w,b
  1284   001518  0A00               	xorlw	0	; case 0
  1285   00151A  B4D8               	btfsc	status,2,c
  1286   00151C  EF92  F00A         	goto	l5484
  1287   001520  EF3F  F00A         	goto	l4190
  1288   001524                     l5484:
  1289                           
  1290                           ; BSR set to: 0
  1291                           ; Switch size 1, requested type "simple"
  1292                           ; Number of cases is 3, Range of values is 0 to 2
  1293                           ; switch strategies available:
  1294                           ; Name         Instructions Cycles
  1295                           ; simple_byte           10     6 (average)
  1296                           ;	Chosen strategy is simple_byte
  1297   001524  5181               	movf	??_Interrupt_INTx_Priority_init& (0+255),w,b
  1298   001526  0A00               	xorlw	0	; case 0
  1299   001528  B4D8               	btfsc	status,2,c
  1300   00152A  EFA1  F00A         	goto	l4204
  1301   00152E  0A01               	xorlw	1	; case 1
  1302   001530  B4D8               	btfsc	status,2,c
  1303   001532  EF49  F00A         	goto	l4194
  1304   001536  0A03               	xorlw	3	; case 2
  1305   001538  B4D8               	btfsc	status,2,c
  1306   00153A  EF69  F00A         	goto	l4198
  1307   00153E  EF3F  F00A         	goto	l4190
  1308   001542                     l4204:
  1309                           
  1310                           ; BSR set to: 0
  1311                           ;MCAL_layer/Interrupt/external_interrupt.c: 296:     return ret;
  1312   001542  5183               	movf	Interrupt_INTx_Priority_init@ret& (0+255),w,b
  1313   001544                     
  1314                           ; BSR set to: 0
  1315   001544  0012               	return		;funcret
  1316   001546                     __end_of_Interrupt_INTx_Priority_init:
  1317                           	callstack 0
  1318                           
  1319 ;; *************** function _Interrupt_INTx_Pin_init *****************
  1320 ;; Defined at:
  1321 ;;		line 364 in file "MCAL_layer/Interrupt/external_interrupt.c"
  1322 ;; Parameters:    Size  Location     Type
  1323 ;;  _interrupt_I    1    7[BANK0 ] PTR const struct .
  1324 ;;		 -> int2_obj(6), int1_obj(6), into_obj(6), 
  1325 ;; Auto vars:     Size  Location     Type
  1326 ;;  ret             1    8[BANK0 ] unsigned char 
  1327 ;; Return value:  Size  Location     Type
  1328 ;;                  1    wreg      unsigned char 
  1329 ;; Registers used:
  1330 ;;		wreg, fsr2l, fsr2h, status,2, status,0, prodl, prodh, cstack
  1331 ;; Tracked objects:
  1332 ;;		On entry : 0/0
  1333 ;;		On exit  : 0/0
  1334 ;;		Unchanged: 0/0
  1335 ;; Data sizes:     COMRAM   BANK0   BANK1   BANK2   BANK3   BANK4   BANK5   BANK6   BANK7   BANK8   BANK9  BANK10  BANK1
      +1  BANK12  BANK13  BANK14  BANK15
  1336 ;;      Params:         0       1       0       0       0       0       0       0       0       0       0       0       
      +0       0       0       0       0
  1337 ;;      Locals:         0       1       0       0       0       0       0       0       0       0       0       0       
      +0       0       0       0       0
  1338 ;;      Temps:          0       0       0       0       0       0       0       0       0       0       0       0       
      +0       0       0       0       0
  1339 ;;      Totals:         0       2       0       0       0       0       0       0       0       0       0       0       
      +0       0       0       0       0
  1340 ;;Total ram usage:        2 bytes
  1341 ;; Hardware stack levels used: 1
  1342 ;; Hardware stack levels required when called: 9
  1343 ;; This function calls:
  1344 ;;		_gpio_pin_direction_init
  1345 ;; This function is called by:
  1346 ;;		_Interrupt_INTx_init
  1347 ;; This function uses a non-reentrant model
  1348 ;;
  1349                           
  1350                           	psect	text6
  1351   001A68                     __ptext6:
  1352                           	callstack 0
  1353   001A68                     _Interrupt_INTx_Pin_init:
  1354                           	callstack 19
  1355   001A68                     
  1356                           ;MCAL_layer/Interrupt/external_interrupt.c: 368:     if(((void*)0) == _interrupt_INTx)
  1357   001A68  0100               	movlb	0	; () banked
  1358   001A6A  5187               	movf	Interrupt_INTx_Pin_init@_interrupt_INTx& (0+255),w,b
  1359   001A6C  A4D8               	btfss	status,2,c
  1360   001A6E  EF3B  F00D         	goto	u2961
  1361   001A72  EF3D  F00D         	goto	u2960
  1362   001A76                     u2961:
  1363   001A76  EF41  F00D         	goto	l4230
  1364   001A7A                     u2960:
  1365   001A7A                     
  1366                           ; BSR set to: 0
  1367                           ;MCAL_layer/Interrupt/external_interrupt.c: 369:     {;MCAL_layer/Interrupt/external_int
      +                          errupt.c: 370:         ret = (STD_ReturnType)0x00;
  1368   001A7A  0E00               	movlw	0
  1369   001A7C  6F88               	movwf	Interrupt_INTx_Pin_init@ret& (0+255),b
  1370                           
  1371                           ;MCAL_layer/Interrupt/external_interrupt.c: 371:     }
  1372   001A7E  EF48  F00D         	goto	l4232
  1373   001A82                     l4230:
  1374                           
  1375                           ; BSR set to: 0
  1376                           ;MCAL_layer/Interrupt/external_interrupt.c: 373:     {;MCAL_layer/Interrupt/external_int
      +                          errupt.c: 374:         ret = gpio_pin_direction_init(&(_interrupt_INTx->interrupt_pin));
  1377   001A82  5187               	movf	Interrupt_INTx_Pin_init@_interrupt_INTx& (0+255),w,b
  1378   001A84  0F02               	addlw	2
  1379   001A86  6F80               	movwf	gpio_pin_direction_init@_pin_config& (0+255),b
  1380   001A88  EC9A  F008         	call	_gpio_pin_direction_init	;wreg free
  1381   001A8C  0100               	movlb	0	; () banked
  1382   001A8E  6F88               	movwf	Interrupt_INTx_Pin_init@ret& (0+255),b
  1383   001A90                     l4232:
  1384                           
  1385                           ; BSR set to: 0
  1386                           ;MCAL_layer/Interrupt/external_interrupt.c: 376:     return ret;
  1387   001A90  5188               	movf	Interrupt_INTx_Pin_init@ret& (0+255),w,b
  1388   001A92                     
  1389                           ; BSR set to: 0
  1390   001A92  0012               	return		;funcret
  1391   001A94                     __end_of_Interrupt_INTx_Pin_init:
  1392                           	callstack 0
  1393                           
  1394 ;; *************** function _gpio_pin_direction_init *****************
  1395 ;; Defined at:
  1396 ;;		line 21 in file "MCAL_layer/GPIO/gpio.c"
  1397 ;; Parameters:    Size  Location     Type
  1398 ;;  _pin_config     1    0[BANK0 ] PTR const struct .
  1399 ;;		 -> led3(1), led2(1), led1(1), int2_obj(6), 
  1400 ;;		 -> int1_obj(6), into_obj(6), ecu_relay_initializ@relay_init(1), ecu_led_initializ@_pin_config(1), 
  1401 ;;		 -> ecu_dc_motor_initializ@dc_motor_pin_2(1), ecu_dc_motor_initializ@dc_motor_pin_1(1), 
  1402 ;; Auto vars:     Size  Location     Type
  1403 ;;  ret             1    6[BANK0 ] unsigned char 
  1404 ;; Return value:  Size  Location     Type
  1405 ;;                  1    wreg      unsigned char 
  1406 ;; Registers used:
  1407 ;;		wreg, fsr2l, fsr2h, status,2, status,0, prodl, prodh
  1408 ;; Tracked objects:
  1409 ;;		On entry : 0/0
  1410 ;;		On exit  : 0/0
  1411 ;;		Unchanged: 0/0
  1412 ;; Data sizes:     COMRAM   BANK0   BANK1   BANK2   BANK3   BANK4   BANK5   BANK6   BANK7   BANK8   BANK9  BANK10  BANK1
      +1  BANK12  BANK13  BANK14  BANK15
  1413 ;;      Params:         0       1       0       0       0       0       0       0       0       0       0       0       
      +0       0       0       0       0
  1414 ;;      Locals:         0       1       0       0       0       0       0       0       0       0       0       0       
      +0       0       0       0       0
  1415 ;;      Temps:          0       5       0       0       0       0       0       0       0       0       0       0       
      +0       0       0       0       0
  1416 ;;      Totals:         0       7       0       0       0       0       0       0       0       0       0       0       
      +0       0       0       0       0
  1417 ;;Total ram usage:        7 bytes
  1418 ;; Hardware stack levels used: 1
  1419 ;; Hardware stack levels required when called: 8
  1420 ;; This function calls:
  1421 ;;		Nothing
  1422 ;; This function is called by:
  1423 ;;		_gpio_pin_Initialization
  1424 ;;		_Interrupt_INTx_Pin_init
  1425 ;;		_ecu_button_init
  1426 ;; This function uses a non-reentrant model
  1427 ;;
  1428                           
  1429                           	psect	text7
  1430   001134                     __ptext7:
  1431                           	callstack 0
  1432   001134                     _gpio_pin_direction_init:
  1433                           	callstack 20
  1434   001134                     
  1435                           ;MCAL_layer/GPIO/gpio.c: 21: STD_ReturnType gpio_pin_direction_init(const pin_config *_p
      +                          in_config);MCAL_layer/GPIO/gpio.c: 22: {;MCAL_layer/GPIO/gpio.c: 23:     STD_ReturnType 
      +                          ret = (STD_ReturnType)0x01;
  1436   001134  0E01               	movlw	1
  1437   001136  0100               	movlb	0	; () banked
  1438   001138  6F86               	movwf	gpio_pin_direction_init@ret& (0+255),b
  1439                           
  1440                           ;MCAL_layer/GPIO/gpio.c: 25:     if(((void*)0) == _pin_config || _pin_config->pin > 8 -1
      +                          )
  1441   00113A  5180               	movf	gpio_pin_direction_init@_pin_config& (0+255),w,b
  1442   00113C  B4D8               	btfsc	status,2,c
  1443   00113E  EFA3  F008         	goto	u2791
  1444   001142  EFA5  F008         	goto	u2790
  1445   001146                     u2791:
  1446   001146  EFB5  F008         	goto	l4030
  1447   00114A                     u2790:
  1448   00114A                     
  1449                           ; BSR set to: 0
  1450   00114A  5180               	movf	gpio_pin_direction_init@_pin_config& (0+255),w,b
  1451   00114C  6ED9               	movwf	fsr2l,c
  1452   00114E  6ADA               	clrf	fsr2h,c
  1453   001150  30DF               	rrcf	223,w,c
  1454   001152  32E8               	rrcf	wreg,f,c
  1455   001154  32E8               	rrcf	wreg,f,c
  1456   001156  0B07               	andlw	7
  1457   001158  6F81               	movwf	??_gpio_pin_direction_init& (0+255),b
  1458   00115A  0E07               	movlw	7
  1459   00115C  6581               	cpfsgt	??_gpio_pin_direction_init& (0+255),b
  1460   00115E  EFB3  F008         	goto	u2801
  1461   001162  EFB5  F008         	goto	u2800
  1462   001166                     u2801:
  1463   001166  EF0E  F009         	goto	l4038
  1464   00116A                     u2800:
  1465   00116A                     l4030:
  1466                           
  1467                           ; BSR set to: 0
  1468                           ;MCAL_layer/GPIO/gpio.c: 26:     {;MCAL_layer/GPIO/gpio.c: 27:         ret = (STD_Return
      +                          Type)0x00;
  1469   00116A  0E00               	movlw	0
  1470   00116C  6F86               	movwf	gpio_pin_direction_init@ret& (0+255),b
  1471                           
  1472                           ;MCAL_layer/GPIO/gpio.c: 28:     }
  1473   00116E  EF24  F009         	goto	l4040
  1474   001172                     l4032:
  1475                           
  1476                           ; BSR set to: 0
  1477                           ;MCAL_layer/GPIO/gpio.c: 33:                 (*tris_registers[_pin_config->port] &= ~((u
      +                          int8)1 << _pin_config->pin));
  1478   001172  5180               	movf	gpio_pin_direction_init@_pin_config& (0+255),w,b
  1479   001174  6ED9               	movwf	fsr2l,c
  1480   001176  6ADA               	clrf	fsr2h,c
  1481   001178  30DF               	rrcf	223,w,c
  1482   00117A  32E8               	rrcf	wreg,f,c
  1483   00117C  32E8               	rrcf	wreg,f,c
  1484   00117E  0B07               	andlw	7
  1485   001180  6F81               	movwf	??_gpio_pin_direction_init& (0+255),b
  1486   001182  0E01               	movlw	1
  1487   001184  6F82               	movwf	(??_gpio_pin_direction_init+1)& (0+255),b
  1488   001186  2B81               	incf	??_gpio_pin_direction_init& (0+255),f,b
  1489   001188  EFC8  F008         	goto	u2814
  1490   00118C                     u2815:
  1491   00118C  90D8               	bcf	status,0,c
  1492   00118E  3782               	rlcf	(??_gpio_pin_direction_init+1)& (0+255),f,b
  1493   001190                     u2814:
  1494   001190  2F81               	decfsz	??_gpio_pin_direction_init& (0+255),f,b
  1495   001192  EFC6  F008         	goto	u2815
  1496   001196  0100               	movlb	0	; () banked
  1497   001198  5182               	movf	(??_gpio_pin_direction_init+1)& (0+255),w,b
  1498   00119A  0AFF               	xorlw	255
  1499   00119C  6F83               	movwf	(??_gpio_pin_direction_init+2)& (0+255),b
  1500   00119E  5180               	movf	gpio_pin_direction_init@_pin_config& (0+255),w,b
  1501   0011A0  6ED9               	movwf	fsr2l,c
  1502   0011A2  6ADA               	clrf	fsr2h,c
  1503   0011A4  50DF               	movf	223,w,c
  1504   0011A6  0B07               	andlw	7
  1505   0011A8  0D02               	mullw	2
  1506   0011AA  50F3               	movf	243,w,c
  1507   0011AC  0F15               	addlw	low _tris_registers
  1508   0011AE  6ED9               	movwf	fsr2l,c
  1509   0011B0  6ADA               	clrf	fsr2h,c
  1510   0011B2  CFDE F084          	movff	postinc2,??_gpio_pin_direction_init+3
  1511   0011B6  CFDD F085          	movff	postdec2,??_gpio_pin_direction_init+4
  1512   0011BA  C084  FFD9         	movff	??_gpio_pin_direction_init+3,fsr2l
  1513   0011BE  C085  FFDA         	movff	??_gpio_pin_direction_init+4,fsr2h
  1514   0011C2  5183               	movf	(??_gpio_pin_direction_init+2)& (0+255),w,b
  1515   0011C4  16DF               	andwf	indf2,f,c
  1516                           
  1517                           ;MCAL_layer/GPIO/gpio.c: 34:                 break;
  1518   0011C6  EF24  F009         	goto	l4040
  1519   0011CA                     l4034:
  1520                           
  1521                           ; BSR set to: 0
  1522                           ;MCAL_layer/GPIO/gpio.c: 36:                 (*tris_registers[_pin_config->port] |= ((ui
      +                          nt8)1 << _pin_config->pin));
  1523   0011CA  5180               	movf	gpio_pin_direction_init@_pin_config& (0+255),w,b
  1524   0011CC  6ED9               	movwf	fsr2l,c
  1525   0011CE  6ADA               	clrf	fsr2h,c
  1526   0011D0  30DF               	rrcf	223,w,c
  1527   0011D2  32E8               	rrcf	wreg,f,c
  1528   0011D4  32E8               	rrcf	wreg,f,c
  1529   0011D6  0B07               	andlw	7
  1530   0011D8  6F81               	movwf	??_gpio_pin_direction_init& (0+255),b
  1531   0011DA  0E01               	movlw	1
  1532   0011DC  6F82               	movwf	(??_gpio_pin_direction_init+1)& (0+255),b
  1533   0011DE  2B81               	incf	??_gpio_pin_direction_init& (0+255),f,b
  1534   0011E0  EFF4  F008         	goto	u2824
  1535   0011E4                     u2825:
  1536   0011E4  90D8               	bcf	status,0,c
  1537   0011E6  3782               	rlcf	(??_gpio_pin_direction_init+1)& (0+255),f,b
  1538   0011E8                     u2824:
  1539   0011E8  2F81               	decfsz	??_gpio_pin_direction_init& (0+255),f,b
  1540   0011EA  EFF2  F008         	goto	u2825
  1541   0011EE  0100               	movlb	0	; () banked
  1542   0011F0  5180               	movf	gpio_pin_direction_init@_pin_config& (0+255),w,b
  1543   0011F2  6ED9               	movwf	fsr2l,c
  1544   0011F4  6ADA               	clrf	fsr2h,c
  1545   0011F6  50DF               	movf	223,w,c
  1546   0011F8  0B07               	andlw	7
  1547   0011FA  0D02               	mullw	2
  1548   0011FC  50F3               	movf	243,w,c
  1549   0011FE  0F15               	addlw	low _tris_registers
  1550   001200  6ED9               	movwf	fsr2l,c
  1551   001202  6ADA               	clrf	fsr2h,c
  1552   001204  CFDE F083          	movff	postinc2,??_gpio_pin_direction_init+2
  1553   001208  CFDD F084          	movff	postdec2,??_gpio_pin_direction_init+3
  1554   00120C  C083  FFD9         	movff	??_gpio_pin_direction_init+2,fsr2l
  1555   001210  C084  FFDA         	movff	??_gpio_pin_direction_init+3,fsr2h
  1556   001214  5182               	movf	(??_gpio_pin_direction_init+1)& (0+255),w,b
  1557   001216  12DF               	iorwf	indf2,f,c
  1558                           
  1559                           ;MCAL_layer/GPIO/gpio.c: 37:                 break;
  1560   001218  EF24  F009         	goto	l4040
  1561   00121C                     l4038:
  1562                           
  1563                           ; BSR set to: 0
  1564   00121C  5180               	movf	gpio_pin_direction_init@_pin_config& (0+255),w,b
  1565   00121E  6ED9               	movwf	fsr2l,c
  1566   001220  6ADA               	clrf	fsr2h,c
  1567   001222  BCDF               	btfsc	indf2,6,c
  1568   001224  EF16  F009         	goto	u2831
  1569   001228  EF19  F009         	goto	u2830
  1570   00122C                     u2831:
  1571   00122C  0E01               	movlw	1
  1572   00122E  EF1A  F009         	goto	u2836
  1573   001232                     u2830:
  1574   001232  0E00               	movlw	0
  1575   001234                     u2836:
  1576                           
  1577                           ; Switch size 1, requested type "simple"
  1578                           ; Number of cases is 2, Range of values is 0 to 1
  1579                           ; switch strategies available:
  1580                           ; Name         Instructions Cycles
  1581                           ; simple_byte            7     4 (average)
  1582                           ;	Chosen strategy is simple_byte
  1583   001234  0A00               	xorlw	0	; case 0
  1584   001236  B4D8               	btfsc	status,2,c
  1585   001238  EFB9  F008         	goto	l4032
  1586   00123C  0A01               	xorlw	1	; case 1
  1587   00123E  B4D8               	btfsc	status,2,c
  1588   001240  EFE5  F008         	goto	l4034
  1589   001244  EFB5  F008         	goto	l4030
  1590   001248                     l4040:
  1591                           
  1592                           ; BSR set to: 0
  1593                           ;MCAL_layer/GPIO/gpio.c: 42:     return ret;
  1594   001248  5186               	movf	gpio_pin_direction_init@ret& (0+255),w,b
  1595   00124A                     
  1596                           ; BSR set to: 0
  1597   00124A  0012               	return		;funcret
  1598   00124C                     __end_of_gpio_pin_direction_init:
  1599                           	callstack 0
  1600                           
  1601 ;; *************** function _Interrupt_INTx_Enable *****************
  1602 ;; Defined at:
  1603 ;;		line 142 in file "MCAL_layer/Interrupt/external_interrupt.c"
  1604 ;; Parameters:    Size  Location     Type
  1605 ;;  _interrupt_I    1    0[BANK0 ] PTR const struct .
  1606 ;;		 -> int2_obj(6), int1_obj(6), into_obj(6), 
  1607 ;; Auto vars:     Size  Location     Type
  1608 ;;  ret             1    3[BANK0 ] unsigned char 
  1609 ;; Return value:  Size  Location     Type
  1610 ;;                  1    wreg      unsigned char 
  1611 ;; Registers used:
  1612 ;;		wreg, fsr2l, fsr2h, status,2, status,0
  1613 ;; Tracked objects:
  1614 ;;		On entry : 0/0
  1615 ;;		On exit  : 0/0
  1616 ;;		Unchanged: 0/0
  1617 ;; Data sizes:     COMRAM   BANK0   BANK1   BANK2   BANK3   BANK4   BANK5   BANK6   BANK7   BANK8   BANK9  BANK10  BANK1
      +1  BANK12  BANK13  BANK14  BANK15
  1618 ;;      Params:         0       1       0       0       0       0       0       0       0       0       0       0       
      +0       0       0       0       0
  1619 ;;      Locals:         0       1       0       0       0       0       0       0       0       0       0       0       
      +0       0       0       0       0
  1620 ;;      Temps:          0       2       0       0       0       0       0       0       0       0       0       0       
      +0       0       0       0       0
  1621 ;;      Totals:         0       4       0       0       0       0       0       0       0       0       0       0       
      +0       0       0       0       0
  1622 ;;Total ram usage:        4 bytes
  1623 ;; Hardware stack levels used: 1
  1624 ;; Hardware stack levels required when called: 8
  1625 ;; This function calls:
  1626 ;;		Nothing
  1627 ;; This function is called by:
  1628 ;;		_Interrupt_INTx_init
  1629 ;; This function uses a non-reentrant model
  1630 ;;
  1631                           
  1632                           	psect	text8
  1633   001362                     __ptext8:
  1634                           	callstack 0
  1635   001362                     _Interrupt_INTx_Enable:
  1636                           	callstack 20
  1637   001362                     
  1638                           ;MCAL_layer/Interrupt/external_interrupt.c: 142: static STD_ReturnType Interrupt_INTx_En
      +                          able(const interrupt_INTx *_interrupt_INTx);MCAL_layer/Interrupt/external_interrupt.c: 1
      +                          43: {;MCAL_layer/Interrupt/external_interrupt.c: 144:     STD_ReturnType ret = (STD_Retu
      +                          rnType)0x01;
  1639   001362  0E01               	movlw	1
  1640   001364  0100               	movlb	0	; () banked
  1641   001366  6F83               	movwf	Interrupt_INTx_Enable@ret& (0+255),b
  1642                           
  1643                           ;MCAL_layer/Interrupt/external_interrupt.c: 146:     if (((void*)0) == _interrupt_INTx)
  1644   001368  5180               	movf	Interrupt_INTx_Enable@_interrupt_INTx& (0+255),w,b
  1645   00136A  A4D8               	btfss	status,2,c
  1646   00136C  EFBA  F009         	goto	u2981
  1647   001370  EFBC  F009         	goto	u2980
  1648   001374                     u2981:
  1649   001374  EF0D  F00A         	goto	l4278
  1650   001378                     u2980:
  1651   001378                     l4260:
  1652                           
  1653                           ; BSR set to: 0
  1654                           ;MCAL_layer/Interrupt/external_interrupt.c: 147:     {;MCAL_layer/Interrupt/external_int
      +                          errupt.c: 148:         ret = (STD_ReturnType)0x00;
  1655   001378  0E00               	movlw	0
  1656   00137A  6F83               	movwf	Interrupt_INTx_Enable@ret& (0+255),b
  1657                           
  1658                           ;MCAL_layer/Interrupt/external_interrupt.c: 149:     }
  1659   00137C  EF2B  F00A         	goto	l4280
  1660   001380                     l538:
  1661                           
  1662                           ; BSR set to: 0
  1663                           ;MCAL_layer/Interrupt/external_interrupt.c: 156:                 (RCONbits.IPEN = 1);
  1664   001380  8ED0               	bsf	208,7,c	;volatile
  1665                           
  1666                           ;MCAL_layer/Interrupt/external_interrupt.c: 157:                 (INTCONbits.GIEH = 1);
  1667   001382  8EF2               	bsf	242,7,c	;volatile
  1668                           
  1669                           ;MCAL_layer/Interrupt/external_interrupt.c: 158:                 (INTCONbits.INT0IE = 1)
      +                          ;
  1670   001384  88F2               	bsf	242,4,c	;volatile
  1671                           
  1672                           ;MCAL_layer/Interrupt/external_interrupt.c: 163:                 break;
  1673   001386  EF2B  F00A         	goto	l4280
  1674   00138A                     l540:
  1675                           
  1676                           ; BSR set to: 0
  1677                           ;MCAL_layer/Interrupt/external_interrupt.c: 167:                 (RCONbits.IPEN = 1);
  1678   00138A  8ED0               	bsf	208,7,c	;volatile
  1679                           
  1680                           ;MCAL_layer/Interrupt/external_interrupt.c: 168:                 (INTCON3bits.INT1IE = 1
      +                          );
  1681   00138C  86F0               	bsf	240,3,c	;volatile
  1682                           
  1683                           ;MCAL_layer/Interrupt/external_interrupt.c: 169:                 switch (_interrupt_INTx
      +                          ->priority)
  1684   00138E  EFCF  F009         	goto	l4264
  1685   001392                     l542:
  1686                           
  1687                           ; BSR set to: 0
  1688                           ;MCAL_layer/Interrupt/external_interrupt.c: 172:                         (INTCONbits.GIE
      +                          L = 1);
  1689   001392  8CF2               	bsf	242,6,c	;volatile
  1690                           
  1691                           ;MCAL_layer/Interrupt/external_interrupt.c: 173:                         break;
  1692   001394  EF2B  F00A         	goto	l4280
  1693   001398                     l544:
  1694                           
  1695                           ; BSR set to: 0
  1696                           ;MCAL_layer/Interrupt/external_interrupt.c: 175:                         (INTCONbits.GIE
      +                          H = 1);
  1697   001398  8EF2               	bsf	242,7,c	;volatile
  1698                           
  1699                           ;MCAL_layer/Interrupt/external_interrupt.c: 176:                         break;
  1700   00139A  EF2B  F00A         	goto	l4280
  1701   00139E                     l4264:
  1702                           
  1703                           ; BSR set to: 0
  1704   00139E  5180               	movf	Interrupt_INTx_Enable@_interrupt_INTx& (0+255),w,b
  1705   0013A0  6ED9               	movwf	fsr2l,c
  1706   0013A2  6ADA               	clrf	fsr2h,c
  1707   0013A4  0E05               	movlw	5
  1708   0013A6  26D9               	addwf	fsr2l,f,c
  1709   0013A8  50DF               	movf	indf2,w,c
  1710   0013AA  6F81               	movwf	??_Interrupt_INTx_Enable& (0+255),b
  1711   0013AC  6B82               	clrf	(??_Interrupt_INTx_Enable+1)& (0+255),b
  1712                           
  1713                           ; Switch on 2 bytes has been partitioned into a top level switch of size 1, and 1 sub-sw
      +                          itches
  1714                           ; Switch size 1, requested type "simple"
  1715                           ; Number of cases is 1, Range of values is 0 to 0
  1716                           ; switch strategies available:
  1717                           ; Name         Instructions Cycles
  1718                           ; simple_byte            4     3 (average)
  1719                           ;	Chosen strategy is simple_byte
  1720   0013AE  5182               	movf	(??_Interrupt_INTx_Enable+1)& (0+255),w,b
  1721   0013B0  0A00               	xorlw	0	; case 0
  1722   0013B2  B4D8               	btfsc	status,2,c
  1723   0013B4  EFDE  F009         	goto	l5486
  1724   0013B8  EF2B  F00A         	goto	l4280
  1725   0013BC                     l5486:
  1726                           
  1727                           ; BSR set to: 0
  1728                           ; Switch size 1, requested type "simple"
  1729                           ; Number of cases is 2, Range of values is 0 to 1
  1730                           ; switch strategies available:
  1731                           ; Name         Instructions Cycles
  1732                           ; simple_byte            7     4 (average)
  1733                           ;	Chosen strategy is simple_byte
  1734   0013BC  5181               	movf	??_Interrupt_INTx_Enable& (0+255),w,b
  1735   0013BE  0A00               	xorlw	0	; case 0
  1736   0013C0  B4D8               	btfsc	status,2,c
  1737   0013C2  EFC9  F009         	goto	l542
  1738   0013C6  0A01               	xorlw	1	; case 1
  1739   0013C8  B4D8               	btfsc	status,2,c
  1740   0013CA  EFCC  F009         	goto	l544
  1741   0013CE  EF2B  F00A         	goto	l4280
  1742   0013D2                     l545:
  1743                           
  1744                           ; BSR set to: 0
  1745                           ;MCAL_layer/Interrupt/external_interrupt.c: 187:                 (RCONbits.IPEN = 1);
  1746   0013D2  8ED0               	bsf	208,7,c	;volatile
  1747                           
  1748                           ;MCAL_layer/Interrupt/external_interrupt.c: 188:                 (INTCON3bits.INT2IE = 1
      +                          );
  1749   0013D4  88F0               	bsf	240,4,c	;volatile
  1750                           
  1751                           ;MCAL_layer/Interrupt/external_interrupt.c: 189:                 switch (_interrupt_INTx
      +                          ->priority)
  1752   0013D6  EFF3  F009         	goto	l4270
  1753   0013DA                     l547:
  1754                           
  1755                           ; BSR set to: 0
  1756                           ;MCAL_layer/Interrupt/external_interrupt.c: 192:                         (INTCONbits.GIE
      +                          L = 1);
  1757   0013DA  8CF2               	bsf	242,6,c	;volatile
  1758                           
  1759                           ;MCAL_layer/Interrupt/external_interrupt.c: 193:                         break;
  1760   0013DC  EF2B  F00A         	goto	l4280
  1761   0013E0                     l549:
  1762                           
  1763                           ; BSR set to: 0
  1764                           ;MCAL_layer/Interrupt/external_interrupt.c: 195:                         (INTCONbits.GIE
      +                          H = 1);
  1765   0013E0  8EF2               	bsf	242,7,c	;volatile
  1766                           
  1767                           ;MCAL_layer/Interrupt/external_interrupt.c: 196:                         break;
  1768   0013E2  EF2B  F00A         	goto	l4280
  1769   0013E6                     l4270:
  1770                           
  1771                           ; BSR set to: 0
  1772   0013E6  5180               	movf	Interrupt_INTx_Enable@_interrupt_INTx& (0+255),w,b
  1773   0013E8  6ED9               	movwf	fsr2l,c
  1774   0013EA  6ADA               	clrf	fsr2h,c
  1775   0013EC  0E05               	movlw	5
  1776   0013EE  26D9               	addwf	fsr2l,f,c
  1777   0013F0  50DF               	movf	indf2,w,c
  1778   0013F2  6F81               	movwf	??_Interrupt_INTx_Enable& (0+255),b
  1779   0013F4  6B82               	clrf	(??_Interrupt_INTx_Enable+1)& (0+255),b
  1780                           
  1781                           ; Switch on 2 bytes has been partitioned into a top level switch of size 1, and 1 sub-sw
      +                          itches
  1782                           ; Switch size 1, requested type "simple"
  1783                           ; Number of cases is 1, Range of values is 0 to 0
  1784                           ; switch strategies available:
  1785                           ; Name         Instructions Cycles
  1786                           ; simple_byte            4     3 (average)
  1787                           ;	Chosen strategy is simple_byte
  1788   0013F6  5182               	movf	(??_Interrupt_INTx_Enable+1)& (0+255),w,b
  1789   0013F8  0A00               	xorlw	0	; case 0
  1790   0013FA  B4D8               	btfsc	status,2,c
  1791   0013FC  EF02  F00A         	goto	l5488
  1792   001400  EF2B  F00A         	goto	l4280
  1793   001404                     l5488:
  1794                           
  1795                           ; BSR set to: 0
  1796                           ; Switch size 1, requested type "simple"
  1797                           ; Number of cases is 2, Range of values is 0 to 1
  1798                           ; switch strategies available:
  1799                           ; Name         Instructions Cycles
  1800                           ; simple_byte            7     4 (average)
  1801                           ;	Chosen strategy is simple_byte
  1802   001404  5181               	movf	??_Interrupt_INTx_Enable& (0+255),w,b
  1803   001406  0A00               	xorlw	0	; case 0
  1804   001408  B4D8               	btfsc	status,2,c
  1805   00140A  EFED  F009         	goto	l547
  1806   00140E  0A01               	xorlw	1	; case 1
  1807   001410  B4D8               	btfsc	status,2,c
  1808   001412  EFF0  F009         	goto	l549
  1809   001416  EF2B  F00A         	goto	l4280
  1810   00141A                     l4278:
  1811                           
  1812                           ; BSR set to: 0
  1813   00141A  5180               	movf	Interrupt_INTx_Enable@_interrupt_INTx& (0+255),w,b
  1814   00141C  6ED9               	movwf	fsr2l,c
  1815   00141E  6ADA               	clrf	fsr2h,c
  1816   001420  0E03               	movlw	3
  1817   001422  26D9               	addwf	fsr2l,f,c
  1818   001424  50DF               	movf	indf2,w,c
  1819   001426  6F81               	movwf	??_Interrupt_INTx_Enable& (0+255),b
  1820   001428  6B82               	clrf	(??_Interrupt_INTx_Enable+1)& (0+255),b
  1821                           
  1822                           ; Switch on 2 bytes has been partitioned into a top level switch of size 1, and 1 sub-sw
      +                          itches
  1823                           ; Switch size 1, requested type "simple"
  1824                           ; Number of cases is 1, Range of values is 0 to 0
  1825                           ; switch strategies available:
  1826                           ; Name         Instructions Cycles
  1827                           ; simple_byte            4     3 (average)
  1828                           ;	Chosen strategy is simple_byte
  1829   00142A  5182               	movf	(??_Interrupt_INTx_Enable+1)& (0+255),w,b
  1830   00142C  0A00               	xorlw	0	; case 0
  1831   00142E  B4D8               	btfsc	status,2,c
  1832   001430  EF1C  F00A         	goto	l5490
  1833   001434  EFBC  F009         	goto	l4260
  1834   001438                     l5490:
  1835                           
  1836                           ; BSR set to: 0
  1837                           ; Switch size 1, requested type "simple"
  1838                           ; Number of cases is 3, Range of values is 0 to 2
  1839                           ; switch strategies available:
  1840                           ; Name         Instructions Cycles
  1841                           ; simple_byte           10     6 (average)
  1842                           ;	Chosen strategy is simple_byte
  1843   001438  5181               	movf	??_Interrupt_INTx_Enable& (0+255),w,b
  1844   00143A  0A00               	xorlw	0	; case 0
  1845   00143C  B4D8               	btfsc	status,2,c
  1846   00143E  EFC0  F009         	goto	l538
  1847   001442  0A01               	xorlw	1	; case 1
  1848   001444  B4D8               	btfsc	status,2,c
  1849   001446  EFC5  F009         	goto	l540
  1850   00144A  0A03               	xorlw	3	; case 2
  1851   00144C  B4D8               	btfsc	status,2,c
  1852   00144E  EFE9  F009         	goto	l545
  1853   001452  EFBC  F009         	goto	l4260
  1854   001456                     l4280:
  1855                           
  1856                           ; BSR set to: 0
  1857                           ;MCAL_layer/Interrupt/external_interrupt.c: 211:     return ret;
  1858   001456  5183               	movf	Interrupt_INTx_Enable@ret& (0+255),w,b
  1859   001458                     
  1860                           ; BSR set to: 0
  1861   001458  0012               	return		;funcret
  1862   00145A                     __end_of_Interrupt_INTx_Enable:
  1863                           	callstack 0
  1864                           
  1865 ;; *************** function _Interrupt_INTx_Edge_init *****************
  1866 ;; Defined at:
  1867 ;;		line 305 in file "MCAL_layer/Interrupt/external_interrupt.c"
  1868 ;; Parameters:    Size  Location     Type
  1869 ;;  _interrupt_I    1    0[BANK0 ] PTR const struct .
  1870 ;;		 -> int2_obj(6), int1_obj(6), into_obj(6), 
  1871 ;; Auto vars:     Size  Location     Type
  1872 ;;  ret             1    3[BANK0 ] unsigned char 
  1873 ;; Return value:  Size  Location     Type
  1874 ;;                  1    wreg      unsigned char 
  1875 ;; Registers used:
  1876 ;;		wreg, fsr2l, fsr2h, status,2, status,0
  1877 ;; Tracked objects:
  1878 ;;		On entry : 0/0
  1879 ;;		On exit  : 0/0
  1880 ;;		Unchanged: 0/0
  1881 ;; Data sizes:     COMRAM   BANK0   BANK1   BANK2   BANK3   BANK4   BANK5   BANK6   BANK7   BANK8   BANK9  BANK10  BANK1
      +1  BANK12  BANK13  BANK14  BANK15
  1882 ;;      Params:         0       1       0       0       0       0       0       0       0       0       0       0       
      +0       0       0       0       0
  1883 ;;      Locals:         0       1       0       0       0       0       0       0       0       0       0       0       
      +0       0       0       0       0
  1884 ;;      Temps:          0       2       0       0       0       0       0       0       0       0       0       0       
      +0       0       0       0       0
  1885 ;;      Totals:         0       4       0       0       0       0       0       0       0       0       0       0       
      +0       0       0       0       0
  1886 ;;Total ram usage:        4 bytes
  1887 ;; Hardware stack levels used: 1
  1888 ;; Hardware stack levels required when called: 8
  1889 ;; This function calls:
  1890 ;;		Nothing
  1891 ;; This function is called by:
  1892 ;;		_Interrupt_INTx_init
  1893 ;; This function uses a non-reentrant model
  1894 ;;
  1895                           
  1896                           	psect	text9
  1897   001016                     __ptext9:
  1898                           	callstack 0
  1899   001016                     _Interrupt_INTx_Edge_init:
  1900                           	callstack 20
  1901   001016                     
  1902                           ;MCAL_layer/Interrupt/external_interrupt.c: 305: static STD_ReturnType Interrupt_INTx_Ed
      +                          ge_init(const interrupt_INTx *_interrupt_INTx);MCAL_layer/Interrupt/external_interrupt.c
      +                          : 306: {;MCAL_layer/Interrupt/external_interrupt.c: 307:     STD_ReturnType ret = (STD_R
      +                          eturnType)0x01;
  1903   001016  0E01               	movlw	1
  1904   001018  0100               	movlb	0	; () banked
  1905   00101A  6F83               	movwf	Interrupt_INTx_Edge_init@ret& (0+255),b
  1906                           
  1907                           ;MCAL_layer/Interrupt/external_interrupt.c: 309:     if(((void*)0) == _interrupt_INTx)
  1908   00101C  5180               	movf	Interrupt_INTx_Edge_init@_interrupt_INTx& (0+255),w,b
  1909   00101E  A4D8               	btfss	status,2,c
  1910   001020  EF14  F008         	goto	u2931
  1911   001024  EF16  F008         	goto	u2930
  1912   001028                     u2931:
  1913   001028  EF7A  F008         	goto	l4156
  1914   00102C                     u2930:
  1915   00102C                     l4140:
  1916                           
  1917                           ; BSR set to: 0
  1918                           ;MCAL_layer/Interrupt/external_interrupt.c: 310:     {;MCAL_layer/Interrupt/external_int
      +                          errupt.c: 311:         ret = (STD_ReturnType)0x00;
  1919   00102C  0E00               	movlw	0
  1920   00102E  6F83               	movwf	Interrupt_INTx_Edge_init@ret& (0+255),b
  1921                           
  1922                           ;MCAL_layer/Interrupt/external_interrupt.c: 312:     }
  1923   001030  EF98  F008         	goto	l4158
  1924   001034                     l591:
  1925                           
  1926                           ; BSR set to: 0
  1927                           ;MCAL_layer/Interrupt/external_interrupt.c: 321:                         (INTCON2bits.IN
      +                          TEDG0 = 0);
  1928   001034  9CF1               	bcf	241,6,c	;volatile
  1929                           
  1930                           ;MCAL_layer/Interrupt/external_interrupt.c: 322:                         break;
  1931   001036  EF98  F008         	goto	l4158
  1932   00103A                     l593:
  1933                           
  1934                           ; BSR set to: 0
  1935                           ;MCAL_layer/Interrupt/external_interrupt.c: 324:                         (INTCON2bits.IN
      +                          TEDG0 = 1);
  1936   00103A  8CF1               	bsf	241,6,c	;volatile
  1937                           
  1938                           ;MCAL_layer/Interrupt/external_interrupt.c: 325:                         break;
  1939   00103C  EF98  F008         	goto	l4158
  1940   001040                     l4144:
  1941                           
  1942                           ; BSR set to: 0
  1943   001040  5180               	movf	Interrupt_INTx_Edge_init@_interrupt_INTx& (0+255),w,b
  1944   001042  6ED9               	movwf	fsr2l,c
  1945   001044  6ADA               	clrf	fsr2h,c
  1946   001046  0E04               	movlw	4
  1947   001048  26D9               	addwf	fsr2l,f,c
  1948   00104A  50DF               	movf	indf2,w,c
  1949   00104C  6F81               	movwf	??_Interrupt_INTx_Edge_init& (0+255),b
  1950   00104E  6B82               	clrf	(??_Interrupt_INTx_Edge_init+1)& (0+255),b
  1951                           
  1952                           ; Switch on 2 bytes has been partitioned into a top level switch of size 1, and 1 sub-sw
      +                          itches
  1953                           ; Switch size 1, requested type "simple"
  1954                           ; Number of cases is 1, Range of values is 0 to 0
  1955                           ; switch strategies available:
  1956                           ; Name         Instructions Cycles
  1957                           ; simple_byte            4     3 (average)
  1958                           ;	Chosen strategy is simple_byte
  1959   001050  5182               	movf	(??_Interrupt_INTx_Edge_init+1)& (0+255),w,b
  1960   001052  0A00               	xorlw	0	; case 0
  1961   001054  B4D8               	btfsc	status,2,c
  1962   001056  EF2F  F008         	goto	l5492
  1963   00105A  EF98  F008         	goto	l4158
  1964   00105E                     l5492:
  1965                           
  1966                           ; BSR set to: 0
  1967                           ; Switch size 1, requested type "simple"
  1968                           ; Number of cases is 2, Range of values is 0 to 1
  1969                           ; switch strategies available:
  1970                           ; Name         Instructions Cycles
  1971                           ; simple_byte            7     4 (average)
  1972                           ;	Chosen strategy is simple_byte
  1973   00105E  5181               	movf	??_Interrupt_INTx_Edge_init& (0+255),w,b
  1974   001060  0A00               	xorlw	0	; case 0
  1975   001062  B4D8               	btfsc	status,2,c
  1976   001064  EF1A  F008         	goto	l591
  1977   001068  0A01               	xorlw	1	; case 1
  1978   00106A  B4D8               	btfsc	status,2,c
  1979   00106C  EF1D  F008         	goto	l593
  1980   001070  EF98  F008         	goto	l4158
  1981   001074                     l597:
  1982                           
  1983                           ; BSR set to: 0
  1984                           ;MCAL_layer/Interrupt/external_interrupt.c: 333:                         (INTCON2bits.IN
      +                          TEDG1 = 0);
  1985   001074  9AF1               	bcf	241,5,c	;volatile
  1986                           
  1987                           ;MCAL_layer/Interrupt/external_interrupt.c: 334:                         break;
  1988   001076  EF98  F008         	goto	l4158
  1989   00107A                     l599:
  1990                           
  1991                           ; BSR set to: 0
  1992                           ;MCAL_layer/Interrupt/external_interrupt.c: 336:                         (INTCON2bits.IN
      +                          TEDG1 = 1);
  1993   00107A  8AF1               	bsf	241,5,c	;volatile
  1994                           
  1995                           ;MCAL_layer/Interrupt/external_interrupt.c: 337:                         break;
  1996   00107C  EF98  F008         	goto	l4158
  1997   001080                     l4148:
  1998                           
  1999                           ; BSR set to: 0
  2000   001080  5180               	movf	Interrupt_INTx_Edge_init@_interrupt_INTx& (0+255),w,b
  2001   001082  6ED9               	movwf	fsr2l,c
  2002   001084  6ADA               	clrf	fsr2h,c
  2003   001086  0E04               	movlw	4
  2004   001088  26D9               	addwf	fsr2l,f,c
  2005   00108A  50DF               	movf	indf2,w,c
  2006   00108C  6F81               	movwf	??_Interrupt_INTx_Edge_init& (0+255),b
  2007   00108E  6B82               	clrf	(??_Interrupt_INTx_Edge_init+1)& (0+255),b
  2008                           
  2009                           ; Switch on 2 bytes has been partitioned into a top level switch of size 1, and 1 sub-sw
      +                          itches
  2010                           ; Switch size 1, requested type "simple"
  2011                           ; Number of cases is 1, Range of values is 0 to 0
  2012                           ; switch strategies available:
  2013                           ; Name         Instructions Cycles
  2014                           ; simple_byte            4     3 (average)
  2015                           ;	Chosen strategy is simple_byte
  2016   001090  5182               	movf	(??_Interrupt_INTx_Edge_init+1)& (0+255),w,b
  2017   001092  0A00               	xorlw	0	; case 0
  2018   001094  B4D8               	btfsc	status,2,c
  2019   001096  EF4F  F008         	goto	l5494
  2020   00109A  EF98  F008         	goto	l4158
  2021   00109E                     l5494:
  2022                           
  2023                           ; BSR set to: 0
  2024                           ; Switch size 1, requested type "simple"
  2025                           ; Number of cases is 2, Range of values is 0 to 1
  2026                           ; switch strategies available:
  2027                           ; Name         Instructions Cycles
  2028                           ; simple_byte            7     4 (average)
  2029                           ;	Chosen strategy is simple_byte
  2030   00109E  5181               	movf	??_Interrupt_INTx_Edge_init& (0+255),w,b
  2031   0010A0  0A00               	xorlw	0	; case 0
  2032   0010A2  B4D8               	btfsc	status,2,c
  2033   0010A4  EF3A  F008         	goto	l597
  2034   0010A8  0A01               	xorlw	1	; case 1
  2035   0010AA  B4D8               	btfsc	status,2,c
  2036   0010AC  EF3D  F008         	goto	l599
  2037   0010B0  EF98  F008         	goto	l4158
  2038   0010B4                     l602:
  2039                           
  2040                           ; BSR set to: 0
  2041                           ;MCAL_layer/Interrupt/external_interrupt.c: 344:                         (INTCON2bits.IN
      +                          TEDG2 = 0);
  2042   0010B4  98F1               	bcf	241,4,c	;volatile
  2043                           
  2044                           ;MCAL_layer/Interrupt/external_interrupt.c: 345:                         break;
  2045   0010B6  EF98  F008         	goto	l4158
  2046   0010BA                     l604:
  2047                           
  2048                           ; BSR set to: 0
  2049                           ;MCAL_layer/Interrupt/external_interrupt.c: 347:                         (INTCON2bits.IN
      +                          TEDG2 = 1);
  2050   0010BA  88F1               	bsf	241,4,c	;volatile
  2051                           
  2052                           ;MCAL_layer/Interrupt/external_interrupt.c: 348:                         break;
  2053   0010BC  EF98  F008         	goto	l4158
  2054   0010C0                     l4152:
  2055                           
  2056                           ; BSR set to: 0
  2057   0010C0  5180               	movf	Interrupt_INTx_Edge_init@_interrupt_INTx& (0+255),w,b
  2058   0010C2  6ED9               	movwf	fsr2l,c
  2059   0010C4  6ADA               	clrf	fsr2h,c
  2060   0010C6  0E04               	movlw	4
  2061   0010C8  26D9               	addwf	fsr2l,f,c
  2062   0010CA  50DF               	movf	indf2,w,c
  2063   0010CC  6F81               	movwf	??_Interrupt_INTx_Edge_init& (0+255),b
  2064   0010CE  6B82               	clrf	(??_Interrupt_INTx_Edge_init+1)& (0+255),b
  2065                           
  2066                           ; Switch on 2 bytes has been partitioned into a top level switch of size 1, and 1 sub-sw
      +                          itches
  2067                           ; Switch size 1, requested type "simple"
  2068                           ; Number of cases is 1, Range of values is 0 to 0
  2069                           ; switch strategies available:
  2070                           ; Name         Instructions Cycles
  2071                           ; simple_byte            4     3 (average)
  2072                           ;	Chosen strategy is simple_byte
  2073   0010D0  5182               	movf	(??_Interrupt_INTx_Edge_init+1)& (0+255),w,b
  2074   0010D2  0A00               	xorlw	0	; case 0
  2075   0010D4  B4D8               	btfsc	status,2,c
  2076   0010D6  EF6F  F008         	goto	l5496
  2077   0010DA  EF98  F008         	goto	l4158
  2078   0010DE                     l5496:
  2079                           
  2080                           ; BSR set to: 0
  2081                           ; Switch size 1, requested type "simple"
  2082                           ; Number of cases is 2, Range of values is 0 to 1
  2083                           ; switch strategies available:
  2084                           ; Name         Instructions Cycles
  2085                           ; simple_byte            7     4 (average)
  2086                           ;	Chosen strategy is simple_byte
  2087   0010DE  5181               	movf	??_Interrupt_INTx_Edge_init& (0+255),w,b
  2088   0010E0  0A00               	xorlw	0	; case 0
  2089   0010E2  B4D8               	btfsc	status,2,c
  2090   0010E4  EF5A  F008         	goto	l602
  2091   0010E8  0A01               	xorlw	1	; case 1
  2092   0010EA  B4D8               	btfsc	status,2,c
  2093   0010EC  EF5D  F008         	goto	l604
  2094   0010F0  EF98  F008         	goto	l4158
  2095   0010F4                     l4156:
  2096                           
  2097                           ; BSR set to: 0
  2098   0010F4  5180               	movf	Interrupt_INTx_Edge_init@_interrupt_INTx& (0+255),w,b
  2099   0010F6  6ED9               	movwf	fsr2l,c
  2100   0010F8  6ADA               	clrf	fsr2h,c
  2101   0010FA  0E03               	movlw	3
  2102   0010FC  26D9               	addwf	fsr2l,f,c
  2103   0010FE  50DF               	movf	indf2,w,c
  2104   001100  6F81               	movwf	??_Interrupt_INTx_Edge_init& (0+255),b
  2105   001102  6B82               	clrf	(??_Interrupt_INTx_Edge_init+1)& (0+255),b
  2106                           
  2107                           ; Switch on 2 bytes has been partitioned into a top level switch of size 1, and 1 sub-sw
      +                          itches
  2108                           ; Switch size 1, requested type "simple"
  2109                           ; Number of cases is 1, Range of values is 0 to 0
  2110                           ; switch strategies available:
  2111                           ; Name         Instructions Cycles
  2112                           ; simple_byte            4     3 (average)
  2113                           ;	Chosen strategy is simple_byte
  2114   001104  5182               	movf	(??_Interrupt_INTx_Edge_init+1)& (0+255),w,b
  2115   001106  0A00               	xorlw	0	; case 0
  2116   001108  B4D8               	btfsc	status,2,c
  2117   00110A  EF89  F008         	goto	l5498
  2118   00110E  EF16  F008         	goto	l4140
  2119   001112                     l5498:
  2120                           
  2121                           ; BSR set to: 0
  2122                           ; Switch size 1, requested type "simple"
  2123                           ; Number of cases is 3, Range of values is 0 to 2
  2124                           ; switch strategies available:
  2125                           ; Name         Instructions Cycles
  2126                           ; simple_byte           10     6 (average)
  2127                           ;	Chosen strategy is simple_byte
  2128   001112  5181               	movf	??_Interrupt_INTx_Edge_init& (0+255),w,b
  2129   001114  0A00               	xorlw	0	; case 0
  2130   001116  B4D8               	btfsc	status,2,c
  2131   001118  EF20  F008         	goto	l4144
  2132   00111C  0A01               	xorlw	1	; case 1
  2133   00111E  B4D8               	btfsc	status,2,c
  2134   001120  EF40  F008         	goto	l4148
  2135   001124  0A03               	xorlw	3	; case 2
  2136   001126  B4D8               	btfsc	status,2,c
  2137   001128  EF60  F008         	goto	l4152
  2138   00112C  EF16  F008         	goto	l4140
  2139   001130                     l4158:
  2140                           
  2141                           ; BSR set to: 0
  2142                           ;MCAL_layer/Interrupt/external_interrupt.c: 356:     return ret;
  2143   001130  5183               	movf	Interrupt_INTx_Edge_init@ret& (0+255),w,b
  2144   001132                     
  2145                           ; BSR set to: 0
  2146   001132  0012               	return		;funcret
  2147   001134                     __end_of_Interrupt_INTx_Edge_init:
  2148                           	callstack 0
  2149                           
  2150 ;; *************** function _Interrupt_INTx_Disable *****************
  2151 ;; Defined at:
  2152 ;;		line 219 in file "MCAL_layer/Interrupt/external_interrupt.c"
  2153 ;; Parameters:    Size  Location     Type
  2154 ;;  _interrupt_I    1    0[BANK0 ] PTR const struct .
  2155 ;;		 -> int2_obj(6), int1_obj(6), into_obj(6), 
  2156 ;; Auto vars:     Size  Location     Type
  2157 ;;  ret             1    3[BANK0 ] unsigned char 
  2158 ;; Return value:  Size  Location     Type
  2159 ;;                  1    wreg      unsigned char 
  2160 ;; Registers used:
  2161 ;;		wreg, fsr2l, fsr2h, status,2, status,0
  2162 ;; Tracked objects:
  2163 ;;		On entry : 0/0
  2164 ;;		On exit  : 0/0
  2165 ;;		Unchanged: 0/0
  2166 ;; Data sizes:     COMRAM   BANK0   BANK1   BANK2   BANK3   BANK4   BANK5   BANK6   BANK7   BANK8   BANK9  BANK10  BANK1
      +1  BANK12  BANK13  BANK14  BANK15
  2167 ;;      Params:         0       1       0       0       0       0       0       0       0       0       0       0       
      +0       0       0       0       0
  2168 ;;      Locals:         0       1       0       0       0       0       0       0       0       0       0       0       
      +0       0       0       0       0
  2169 ;;      Temps:          0       2       0       0       0       0       0       0       0       0       0       0       
      +0       0       0       0       0
  2170 ;;      Totals:         0       4       0       0       0       0       0       0       0       0       0       0       
      +0       0       0       0       0
  2171 ;;Total ram usage:        4 bytes
  2172 ;; Hardware stack levels used: 1
  2173 ;; Hardware stack levels required when called: 8
  2174 ;; This function calls:
  2175 ;;		Nothing
  2176 ;; This function is called by:
  2177 ;;		_Interrupt_INTx_init
  2178 ;;		_Interrupt_INTx_deinit
  2179 ;; This function uses a non-reentrant model
  2180 ;;
  2181                           
  2182                           	psect	text10
  2183   00177C                     __ptext10:
  2184                           	callstack 0
  2185   00177C                     _Interrupt_INTx_Disable:
  2186                           	callstack 20
  2187   00177C                     
  2188                           ;MCAL_layer/Interrupt/external_interrupt.c: 219: static STD_ReturnType Interrupt_INTx_Di
      +                          sable(const interrupt_INTx *_interrupt_INTx);MCAL_layer/Interrupt/external_interrupt.c: 
      +                          220: {;MCAL_layer/Interrupt/external_interrupt.c: 221:     STD_ReturnType ret = (STD_Ret
      +                          urnType)0x01;
  2189   00177C  0E01               	movlw	1
  2190   00177E  0100               	movlb	0	; () banked
  2191   001780  6F83               	movwf	Interrupt_INTx_Disable@ret& (0+255),b
  2192                           
  2193                           ;MCAL_layer/Interrupt/external_interrupt.c: 223:     if(((void*)0) == _interrupt_INTx)
  2194   001782  5180               	movf	Interrupt_INTx_Disable@_interrupt_INTx& (0+255),w,b
  2195   001784  A4D8               	btfss	status,2,c
  2196   001786  EFC7  F00B         	goto	u2911
  2197   00178A  EFC9  F00B         	goto	u2910
  2198   00178E                     u2911:
  2199   00178E  EFD6  F00B         	goto	l4108
  2200   001792                     u2910:
  2201   001792                     l4104:
  2202                           
  2203                           ; BSR set to: 0
  2204                           ;MCAL_layer/Interrupt/external_interrupt.c: 224:     {;MCAL_layer/Interrupt/external_int
      +                          errupt.c: 225:         ret = (STD_ReturnType)0x00;
  2205   001792  0E00               	movlw	0
  2206   001794  6F83               	movwf	Interrupt_INTx_Disable@ret& (0+255),b
  2207                           
  2208                           ;MCAL_layer/Interrupt/external_interrupt.c: 226:     }
  2209   001796  EFF4  F00B         	goto	l4110
  2210   00179A                     l557:
  2211                           
  2212                           ; BSR set to: 0
  2213                           ;MCAL_layer/Interrupt/external_interrupt.c: 232:                 (INTCONbits.INT0IE = 0)
      +                          ;
  2214   00179A  98F2               	bcf	242,4,c	;volatile
  2215                           
  2216                           ;MCAL_layer/Interrupt/external_interrupt.c: 233:                 break;
  2217   00179C  EFF4  F00B         	goto	l4110
  2218   0017A0                     l559:
  2219                           
  2220                           ; BSR set to: 0
  2221                           ;MCAL_layer/Interrupt/external_interrupt.c: 236:                 (INTCON3bits.INT1IE = 0
      +                          );
  2222   0017A0  96F0               	bcf	240,3,c	;volatile
  2223                           
  2224                           ;MCAL_layer/Interrupt/external_interrupt.c: 237:                 break;
  2225   0017A2  EFF4  F00B         	goto	l4110
  2226   0017A6                     l560:
  2227                           
  2228                           ; BSR set to: 0
  2229                           ;MCAL_layer/Interrupt/external_interrupt.c: 240:                 (INTCON3bits.INT2IE = 0
      +                          );
  2230   0017A6  98F0               	bcf	240,4,c	;volatile
  2231                           
  2232                           ;MCAL_layer/Interrupt/external_interrupt.c: 241:                 break;
  2233   0017A8  EFF4  F00B         	goto	l4110
  2234   0017AC                     l4108:
  2235                           
  2236                           ; BSR set to: 0
  2237   0017AC  5180               	movf	Interrupt_INTx_Disable@_interrupt_INTx& (0+255),w,b
  2238   0017AE  6ED9               	movwf	fsr2l,c
  2239   0017B0  6ADA               	clrf	fsr2h,c
  2240   0017B2  0E03               	movlw	3
  2241   0017B4  26D9               	addwf	fsr2l,f,c
  2242   0017B6  50DF               	movf	indf2,w,c
  2243   0017B8  6F81               	movwf	??_Interrupt_INTx_Disable& (0+255),b
  2244   0017BA  6B82               	clrf	(??_Interrupt_INTx_Disable+1)& (0+255),b
  2245                           
  2246                           ; Switch on 2 bytes has been partitioned into a top level switch of size 1, and 1 sub-sw
      +                          itches
  2247                           ; Switch size 1, requested type "simple"
  2248                           ; Number of cases is 1, Range of values is 0 to 0
  2249                           ; switch strategies available:
  2250                           ; Name         Instructions Cycles
  2251                           ; simple_byte            4     3 (average)
  2252                           ;	Chosen strategy is simple_byte
  2253   0017BC  5182               	movf	(??_Interrupt_INTx_Disable+1)& (0+255),w,b
  2254   0017BE  0A00               	xorlw	0	; case 0
  2255   0017C0  B4D8               	btfsc	status,2,c
  2256   0017C2  EFE5  F00B         	goto	l5500
  2257   0017C6  EFC9  F00B         	goto	l4104
  2258   0017CA                     l5500:
  2259                           
  2260                           ; BSR set to: 0
  2261                           ; Switch size 1, requested type "simple"
  2262                           ; Number of cases is 3, Range of values is 0 to 2
  2263                           ; switch strategies available:
  2264                           ; Name         Instructions Cycles
  2265                           ; simple_byte           10     6 (average)
  2266                           ;	Chosen strategy is simple_byte
  2267   0017CA  5181               	movf	??_Interrupt_INTx_Disable& (0+255),w,b
  2268   0017CC  0A00               	xorlw	0	; case 0
  2269   0017CE  B4D8               	btfsc	status,2,c
  2270   0017D0  EFCD  F00B         	goto	l557
  2271   0017D4  0A01               	xorlw	1	; case 1
  2272   0017D6  B4D8               	btfsc	status,2,c
  2273   0017D8  EFD0  F00B         	goto	l559
  2274   0017DC  0A03               	xorlw	3	; case 2
  2275   0017DE  B4D8               	btfsc	status,2,c
  2276   0017E0  EFD3  F00B         	goto	l560
  2277   0017E4  EFC9  F00B         	goto	l4104
  2278   0017E8                     l4110:
  2279                           
  2280                           ; BSR set to: 0
  2281                           ;MCAL_layer/Interrupt/external_interrupt.c: 246:     return ret;
  2282   0017E8  5183               	movf	Interrupt_INTx_Disable@ret& (0+255),w,b
  2283   0017EA                     
  2284                           ; BSR set to: 0
  2285   0017EA  0012               	return		;funcret
  2286   0017EC                     __end_of_Interrupt_INTx_Disable:
  2287                           	callstack 0
  2288                           
  2289 ;; *************** function _Interrupt_INTx_Clear_Flag *****************
  2290 ;; Defined at:
  2291 ;;		line 384 in file "MCAL_layer/Interrupt/external_interrupt.c"
  2292 ;; Parameters:    Size  Location     Type
  2293 ;;  _interrupt_I    1    0[BANK0 ] PTR const struct .
  2294 ;;		 -> int2_obj(6), int1_obj(6), into_obj(6), 
  2295 ;; Auto vars:     Size  Location     Type
  2296 ;;  ret             1    3[BANK0 ] unsigned char 
  2297 ;; Return value:  Size  Location     Type
  2298 ;;                  1    wreg      unsigned char 
  2299 ;; Registers used:
  2300 ;;		wreg, fsr2l, fsr2h, status,2, status,0
  2301 ;; Tracked objects:
  2302 ;;		On entry : 0/0
  2303 ;;		On exit  : 0/0
  2304 ;;		Unchanged: 0/0
  2305 ;; Data sizes:     COMRAM   BANK0   BANK1   BANK2   BANK3   BANK4   BANK5   BANK6   BANK7   BANK8   BANK9  BANK10  BANK1
      +1  BANK12  BANK13  BANK14  BANK15
  2306 ;;      Params:         0       1       0       0       0       0       0       0       0       0       0       0       
      +0       0       0       0       0
  2307 ;;      Locals:         0       1       0       0       0       0       0       0       0       0       0       0       
      +0       0       0       0       0
  2308 ;;      Temps:          0       2       0       0       0       0       0       0       0       0       0       0       
      +0       0       0       0       0
  2309 ;;      Totals:         0       4       0       0       0       0       0       0       0       0       0       0       
      +0       0       0       0       0
  2310 ;;Total ram usage:        4 bytes
  2311 ;; Hardware stack levels used: 1
  2312 ;; Hardware stack levels required when called: 8
  2313 ;; This function calls:
  2314 ;;		Nothing
  2315 ;; This function is called by:
  2316 ;;		_Interrupt_INTx_init
  2317 ;; This function uses a non-reentrant model
  2318 ;;
  2319                           
  2320                           	psect	text11
  2321   0017EC                     __ptext11:
  2322                           	callstack 0
  2323   0017EC                     _Interrupt_INTx_Clear_Flag:
  2324                           	callstack 20
  2325   0017EC                     
  2326                           ;MCAL_layer/Interrupt/external_interrupt.c: 384: static STD_ReturnType Interrupt_INTx_Cl
      +                          ear_Flag(const interrupt_INTx *_interrupt_INTx);MCAL_layer/Interrupt/external_interrupt.
      +                          c: 385: {;MCAL_layer/Interrupt/external_interrupt.c: 386:     STD_ReturnType ret = (STD_
      +                          ReturnType)0x01;
  2327   0017EC  0E01               	movlw	1
  2328   0017EE  0100               	movlb	0	; () banked
  2329   0017F0  6F83               	movwf	Interrupt_INTx_Clear_Flag@ret& (0+255),b
  2330                           
  2331                           ;MCAL_layer/Interrupt/external_interrupt.c: 388:     if(((void*)0) == _interrupt_INTx)
  2332   0017F2  5180               	movf	Interrupt_INTx_Clear_Flag@_interrupt_INTx& (0+255),w,b
  2333   0017F4  A4D8               	btfss	status,2,c
  2334   0017F6  EFFF  F00B         	goto	u2921
  2335   0017FA  EF01  F00C         	goto	u2920
  2336   0017FE                     u2921:
  2337   0017FE  EF0E  F00C         	goto	l4126
  2338   001802                     u2920:
  2339   001802                     l4122:
  2340                           
  2341                           ; BSR set to: 0
  2342                           ;MCAL_layer/Interrupt/external_interrupt.c: 389:     {;MCAL_layer/Interrupt/external_int
      +                          errupt.c: 390:         ret = (STD_ReturnType)0x00;
  2343   001802  0E00               	movlw	0
  2344   001804  6F83               	movwf	Interrupt_INTx_Clear_Flag@ret& (0+255),b
  2345                           
  2346                           ;MCAL_layer/Interrupt/external_interrupt.c: 391:     }
  2347   001806  EF2C  F00C         	goto	l4128
  2348   00180A                     l617:
  2349                           
  2350                           ; BSR set to: 0
  2351                           ;MCAL_layer/Interrupt/external_interrupt.c: 397:                 (INTCONbits.INT0IF = 0)
      +                          ;
  2352   00180A  92F2               	bcf	242,1,c	;volatile
  2353                           
  2354                           ;MCAL_layer/Interrupt/external_interrupt.c: 398:                 break;
  2355   00180C  EF2C  F00C         	goto	l4128
  2356   001810                     l619:
  2357                           
  2358                           ; BSR set to: 0
  2359                           ;MCAL_layer/Interrupt/external_interrupt.c: 400:                 (INTCON3bits.INT1IF = 0
      +                          );
  2360   001810  90F0               	bcf	240,0,c	;volatile
  2361                           
  2362                           ;MCAL_layer/Interrupt/external_interrupt.c: 401:                 break;
  2363   001812  EF2C  F00C         	goto	l4128
  2364   001816                     l620:
  2365                           
  2366                           ; BSR set to: 0
  2367                           ;MCAL_layer/Interrupt/external_interrupt.c: 403:                 (INTCON3bits.INT2IF = 0
      +                          );
  2368   001816  92F0               	bcf	240,1,c	;volatile
  2369                           
  2370                           ;MCAL_layer/Interrupt/external_interrupt.c: 404:                 break;
  2371   001818  EF2C  F00C         	goto	l4128
  2372   00181C                     l4126:
  2373                           
  2374                           ; BSR set to: 0
  2375   00181C  5180               	movf	Interrupt_INTx_Clear_Flag@_interrupt_INTx& (0+255),w,b
  2376   00181E  6ED9               	movwf	fsr2l,c
  2377   001820  6ADA               	clrf	fsr2h,c
  2378   001822  0E03               	movlw	3
  2379   001824  26D9               	addwf	fsr2l,f,c
  2380   001826  50DF               	movf	indf2,w,c
  2381   001828  6F81               	movwf	??_Interrupt_INTx_Clear_Flag& (0+255),b
  2382   00182A  6B82               	clrf	(??_Interrupt_INTx_Clear_Flag+1)& (0+255),b
  2383                           
  2384                           ; Switch on 2 bytes has been partitioned into a top level switch of size 1, and 1 sub-sw
      +                          itches
  2385                           ; Switch size 1, requested type "simple"
  2386                           ; Number of cases is 1, Range of values is 0 to 0
  2387                           ; switch strategies available:
  2388                           ; Name         Instructions Cycles
  2389                           ; simple_byte            4     3 (average)
  2390                           ;	Chosen strategy is simple_byte
  2391   00182C  5182               	movf	(??_Interrupt_INTx_Clear_Flag+1)& (0+255),w,b
  2392   00182E  0A00               	xorlw	0	; case 0
  2393   001830  B4D8               	btfsc	status,2,c
  2394   001832  EF1D  F00C         	goto	l5502
  2395   001836  EF01  F00C         	goto	l4122
  2396   00183A                     l5502:
  2397                           
  2398                           ; BSR set to: 0
  2399                           ; Switch size 1, requested type "simple"
  2400                           ; Number of cases is 3, Range of values is 0 to 2
  2401                           ; switch strategies available:
  2402                           ; Name         Instructions Cycles
  2403                           ; simple_byte           10     6 (average)
  2404                           ;	Chosen strategy is simple_byte
  2405   00183A  5181               	movf	??_Interrupt_INTx_Clear_Flag& (0+255),w,b
  2406   00183C  0A00               	xorlw	0	; case 0
  2407   00183E  B4D8               	btfsc	status,2,c
  2408   001840  EF05  F00C         	goto	l617
  2409   001844  0A01               	xorlw	1	; case 1
  2410   001846  B4D8               	btfsc	status,2,c
  2411   001848  EF08  F00C         	goto	l619
  2412   00184C  0A03               	xorlw	3	; case 2
  2413   00184E  B4D8               	btfsc	status,2,c
  2414   001850  EF0B  F00C         	goto	l620
  2415   001854  EF01  F00C         	goto	l4122
  2416   001858                     l4128:
  2417                           
  2418                           ; BSR set to: 0
  2419                           ;MCAL_layer/Interrupt/external_interrupt.c: 409:     return ret;
  2420   001858  5183               	movf	Interrupt_INTx_Clear_Flag@ret& (0+255),w,b
  2421   00185A                     
  2422                           ; BSR set to: 0
  2423   00185A  0012               	return		;funcret
  2424   00185C                     __end_of_Interrupt_INTx_Clear_Flag:
  2425                           	callstack 0
  2426                           
  2427 ;; *************** function _INTx_Set_Interrupt_Handler *****************
  2428 ;; Defined at:
  2429 ;;		line 558 in file "MCAL_layer/Interrupt/external_interrupt.c"
  2430 ;; Parameters:    Size  Location     Type
  2431 ;;  _interrupt_I    1    3[BANK0 ] PTR const struct .
  2432 ;;		 -> int2_obj(6), int1_obj(6), into_obj(6), 
  2433 ;; Auto vars:     Size  Location     Type
  2434 ;;  ret             1    6[BANK0 ] unsigned char 
  2435 ;; Return value:  Size  Location     Type
  2436 ;;                  1    wreg      unsigned char 
  2437 ;; Registers used:
  2438 ;;		wreg, fsr2l, fsr2h, status,2, status,0, cstack
  2439 ;; Tracked objects:
  2440 ;;		On entry : 0/0
  2441 ;;		On exit  : 0/0
  2442 ;;		Unchanged: 0/0
  2443 ;; Data sizes:     COMRAM   BANK0   BANK1   BANK2   BANK3   BANK4   BANK5   BANK6   BANK7   BANK8   BANK9  BANK10  BANK1
      +1  BANK12  BANK13  BANK14  BANK15
  2444 ;;      Params:         0       1       0       0       0       0       0       0       0       0       0       0       
      +0       0       0       0       0
  2445 ;;      Locals:         0       1       0       0       0       0       0       0       0       0       0       0       
      +0       0       0       0       0
  2446 ;;      Temps:          0       2       0       0       0       0       0       0       0       0       0       0       
      +0       0       0       0       0
  2447 ;;      Totals:         0       4       0       0       0       0       0       0       0       0       0       0       
      +0       0       0       0       0
  2448 ;;Total ram usage:        4 bytes
  2449 ;; Hardware stack levels used: 1
  2450 ;; Hardware stack levels required when called: 9
  2451 ;; This function calls:
  2452 ;;		_INT0_Interrupt_Handler
  2453 ;;		_INT1_Interrupt_Handler
  2454 ;;		_INT2_Interrupt_Handler
  2455 ;; This function is called by:
  2456 ;;		_Interrupt_INTx_init
  2457 ;; This function uses a non-reentrant model
  2458 ;;
  2459                           
  2460                           	psect	text12
  2461   001546                     __ptext12:
  2462                           	callstack 0
  2463   001546                     _INTx_Set_Interrupt_Handler:
  2464                           	callstack 19
  2465   001546                     
  2466                           ;MCAL_layer/Interrupt/external_interrupt.c: 562:     if(((void*)0) == _interrupt_INTx)
  2467   001546  0100               	movlb	0	; () banked
  2468   001548  5183               	movf	INTx_Set_Interrupt_Handler@_interrupt_INTx& (0+255),w,b
  2469   00154A  A4D8               	btfss	status,2,c
  2470   00154C  EFAA  F00A         	goto	u2971
  2471   001550  EFAC  F00A         	goto	u2970
  2472   001554                     u2971:
  2473   001554  EFD7  F00A         	goto	l4248
  2474   001558                     u2970:
  2475   001558                     l4238:
  2476                           
  2477                           ; BSR set to: 0
  2478                           ;MCAL_layer/Interrupt/external_interrupt.c: 563:     {;MCAL_layer/Interrupt/external_int
      +                          errupt.c: 564:         ret = (STD_ReturnType)0x00;
  2479   001558  0E00               	movlw	0
  2480   00155A  6F86               	movwf	INTx_Set_Interrupt_Handler@ret& (0+255),b
  2481                           
  2482                           ;MCAL_layer/Interrupt/external_interrupt.c: 565:     }
  2483   00155C  EFF5  F00A         	goto	l4250
  2484   001560                     l4240:
  2485                           
  2486                           ; BSR set to: 0
  2487                           ;MCAL_layer/Interrupt/external_interrupt.c: 571:                 ret = INT0_Interrupt_Ha
      +                          ndler(_interrupt_INTx->EXTERNAL_INTERRUPT_CALLBACK);
  2488   001560  5183               	movf	INTx_Set_Interrupt_Handler@_interrupt_INTx& (0+255),w,b
  2489   001562  6ED9               	movwf	fsr2l,c
  2490   001564  6ADA               	clrf	fsr2h,c
  2491   001566  CFDE F080          	movff	postinc2,INT0_Interrupt_Handler@Interrupt_Handler
  2492   00156A  CFDD F081          	movff	postdec2,INT0_Interrupt_Handler@Interrupt_Handler+1
  2493   00156E  EC76  F00D         	call	_INT0_Interrupt_Handler	;wreg free
  2494   001572  0100               	movlb	0	; () banked
  2495   001574  6F86               	movwf	INTx_Set_Interrupt_Handler@ret& (0+255),b
  2496                           
  2497                           ;MCAL_layer/Interrupt/external_interrupt.c: 572:                 break;
  2498   001576  EFF5  F00A         	goto	l4250
  2499   00157A                     l4242:
  2500                           
  2501                           ; BSR set to: 0
  2502                           ;MCAL_layer/Interrupt/external_interrupt.c: 575:                 ret = INT1_Interrupt_Ha
      +                          ndler(_interrupt_INTx->EXTERNAL_INTERRUPT_CALLBACK);
  2503   00157A  5183               	movf	INTx_Set_Interrupt_Handler@_interrupt_INTx& (0+255),w,b
  2504   00157C  6ED9               	movwf	fsr2l,c
  2505   00157E  6ADA               	clrf	fsr2h,c
  2506   001580  CFDE F080          	movff	postinc2,INT1_Interrupt_Handler@Interrupt_Handler
  2507   001584  CFDD F081          	movff	postdec2,INT1_Interrupt_Handler@Interrupt_Handler+1
  2508   001588  EC60  F00D         	call	_INT1_Interrupt_Handler	;wreg free
  2509   00158C  0100               	movlb	0	; () banked
  2510   00158E  6F86               	movwf	INTx_Set_Interrupt_Handler@ret& (0+255),b
  2511                           
  2512                           ;MCAL_layer/Interrupt/external_interrupt.c: 576:                 break;
  2513   001590  EFF5  F00A         	goto	l4250
  2514   001594                     l4244:
  2515                           
  2516                           ; BSR set to: 0
  2517                           ;MCAL_layer/Interrupt/external_interrupt.c: 579:                 ret = INT2_Interrupt_Ha
      +                          ndler(_interrupt_INTx->EXTERNAL_INTERRUPT_CALLBACK);
  2518   001594  5183               	movf	INTx_Set_Interrupt_Handler@_interrupt_INTx& (0+255),w,b
  2519   001596  6ED9               	movwf	fsr2l,c
  2520   001598  6ADA               	clrf	fsr2h,c
  2521   00159A  CFDE F080          	movff	postinc2,INT2_Interrupt_Handler@Interrupt_Handler
  2522   00159E  CFDD F081          	movff	postdec2,INT2_Interrupt_Handler@Interrupt_Handler+1
  2523   0015A2  EC4A  F00D         	call	_INT2_Interrupt_Handler	;wreg free
  2524   0015A6  0100               	movlb	0	; () banked
  2525   0015A8  6F86               	movwf	INTx_Set_Interrupt_Handler@ret& (0+255),b
  2526                           
  2527                           ;MCAL_layer/Interrupt/external_interrupt.c: 580:                 break;
  2528   0015AA  EFF5  F00A         	goto	l4250
  2529   0015AE                     l4248:
  2530                           
  2531                           ; BSR set to: 0
  2532   0015AE  5183               	movf	INTx_Set_Interrupt_Handler@_interrupt_INTx& (0+255),w,b
  2533   0015B0  6ED9               	movwf	fsr2l,c
  2534   0015B2  6ADA               	clrf	fsr2h,c
  2535   0015B4  0E03               	movlw	3
  2536   0015B6  26D9               	addwf	fsr2l,f,c
  2537   0015B8  50DF               	movf	indf2,w,c
  2538   0015BA  6F84               	movwf	??_INTx_Set_Interrupt_Handler& (0+255),b
  2539   0015BC  6B85               	clrf	(??_INTx_Set_Interrupt_Handler+1)& (0+255),b
  2540                           
  2541                           ; Switch on 2 bytes has been partitioned into a top level switch of size 1, and 1 sub-sw
      +                          itches
  2542                           ; Switch size 1, requested type "simple"
  2543                           ; Number of cases is 1, Range of values is 0 to 0
  2544                           ; switch strategies available:
  2545                           ; Name         Instructions Cycles
  2546                           ; simple_byte            4     3 (average)
  2547                           ;	Chosen strategy is simple_byte
  2548   0015BE  5185               	movf	(??_INTx_Set_Interrupt_Handler+1)& (0+255),w,b
  2549   0015C0  0A00               	xorlw	0	; case 0
  2550   0015C2  B4D8               	btfsc	status,2,c
  2551   0015C4  EFE6  F00A         	goto	l5504
  2552   0015C8  EFAC  F00A         	goto	l4238
  2553   0015CC                     l5504:
  2554                           
  2555                           ; BSR set to: 0
  2556                           ; Switch size 1, requested type "simple"
  2557                           ; Number of cases is 3, Range of values is 0 to 2
  2558                           ; switch strategies available:
  2559                           ; Name         Instructions Cycles
  2560                           ; simple_byte           10     6 (average)
  2561                           ;	Chosen strategy is simple_byte
  2562   0015CC  5184               	movf	??_INTx_Set_Interrupt_Handler& (0+255),w,b
  2563   0015CE  0A00               	xorlw	0	; case 0
  2564   0015D0  B4D8               	btfsc	status,2,c
  2565   0015D2  EFB0  F00A         	goto	l4240
  2566   0015D6  0A01               	xorlw	1	; case 1
  2567   0015D8  B4D8               	btfsc	status,2,c
  2568   0015DA  EFBD  F00A         	goto	l4242
  2569   0015DE  0A03               	xorlw	3	; case 2
  2570   0015E0  B4D8               	btfsc	status,2,c
  2571   0015E2  EFCA  F00A         	goto	l4244
  2572   0015E6  EFAC  F00A         	goto	l4238
  2573   0015EA                     l4250:
  2574                           
  2575                           ; BSR set to: 0
  2576                           ;MCAL_layer/Interrupt/external_interrupt.c: 586:     return ret;
  2577   0015EA  5186               	movf	INTx_Set_Interrupt_Handler@ret& (0+255),w,b
  2578   0015EC                     
  2579                           ; BSR set to: 0
  2580   0015EC  0012               	return		;funcret
  2581   0015EE                     __end_of_INTx_Set_Interrupt_Handler:
  2582                           	callstack 0
  2583                           
  2584 ;; *************** function _INT2_Interrupt_Handler *****************
  2585 ;; Defined at:
  2586 ;;		line 538 in file "MCAL_layer/Interrupt/external_interrupt.c"
  2587 ;; Parameters:    Size  Location     Type
  2588 ;;  Interrupt_Ha    2    0[BANK0 ] PTR FTN()void 
  2589 ;;		 -> i2_ISR_2(1), i2_ISR_1(1), i2_ISR_0(1), ISR_2(1), 
  2590 ;;		 -> ISR_1(1), ISR_0(1), 
  2591 ;; Auto vars:     Size  Location     Type
  2592 ;;  ret             1    2[BANK0 ] unsigned char 
  2593 ;; Return value:  Size  Location     Type
  2594 ;;                  1    wreg      unsigned char 
  2595 ;; Registers used:
  2596 ;;		wreg, status,2, status,0
  2597 ;; Tracked objects:
  2598 ;;		On entry : 0/0
  2599 ;;		On exit  : 0/0
  2600 ;;		Unchanged: 0/0
  2601 ;; Data sizes:     COMRAM   BANK0   BANK1   BANK2   BANK3   BANK4   BANK5   BANK6   BANK7   BANK8   BANK9  BANK10  BANK1
      +1  BANK12  BANK13  BANK14  BANK15
  2602 ;;      Params:         0       2       0       0       0       0       0       0       0       0       0       0       
      +0       0       0       0       0
  2603 ;;      Locals:         0       1       0       0       0       0       0       0       0       0       0       0       
      +0       0       0       0       0
  2604 ;;      Temps:          0       0       0       0       0       0       0       0       0       0       0       0       
      +0       0       0       0       0
  2605 ;;      Totals:         0       3       0       0       0       0       0       0       0       0       0       0       
      +0       0       0       0       0
  2606 ;;Total ram usage:        3 bytes
  2607 ;; Hardware stack levels used: 1
  2608 ;; Hardware stack levels required when called: 8
  2609 ;; This function calls:
  2610 ;;		Nothing
  2611 ;; This function is called by:
  2612 ;;		_INTx_Set_Interrupt_Handler
  2613 ;; This function uses a non-reentrant model
  2614 ;;
  2615                           
  2616                           	psect	text13
  2617   001A94                     __ptext13:
  2618                           	callstack 0
  2619   001A94                     _INT2_Interrupt_Handler:
  2620                           	callstack 19
  2621   001A94                     
  2622                           ;MCAL_layer/Interrupt/external_interrupt.c: 538: static STD_ReturnType INT2_Interrupt_Ha
      +                          ndler(void (*Interrupt_Handler)(void));MCAL_layer/Interrupt/external_interrupt.c: 539: {
      +                          ;MCAL_layer/Interrupt/external_interrupt.c: 540:     STD_ReturnType ret = (STD_ReturnTyp
      +                          e)0x01;
  2623   001A94  0E01               	movlw	1
  2624   001A96  0100               	movlb	0	; () banked
  2625   001A98  6F82               	movwf	INT2_Interrupt_Handler@ret& (0+255),b
  2626   001A9A                     
  2627                           ; BSR set to: 0
  2628                           ;MCAL_layer/Interrupt/external_interrupt.c: 542:     if(((void*)0) == Interrupt_Handler)
  2629   001A9A  5180               	movf	INT2_Interrupt_Handler@Interrupt_Handler& (0+255),w,b
  2630   001A9C  1181               	iorwf	(INT2_Interrupt_Handler@Interrupt_Handler+1)& (0+255),w,b
  2631   001A9E  A4D8               	btfss	status,2,c
  2632   001AA0  EF54  F00D         	goto	u2861
  2633   001AA4  EF56  F00D         	goto	u2860
  2634   001AA8                     u2861:
  2635   001AA8  EF5A  F00D         	goto	l4074
  2636   001AAC                     u2860:
  2637   001AAC                     
  2638                           ; BSR set to: 0
  2639                           ;MCAL_layer/Interrupt/external_interrupt.c: 543:     {;MCAL_layer/Interrupt/external_int
      +                          errupt.c: 544:         ret = (STD_ReturnType)0x00;
  2640   001AAC  0E00               	movlw	0
  2641   001AAE  6F82               	movwf	INT2_Interrupt_Handler@ret& (0+255),b
  2642                           
  2643                           ;MCAL_layer/Interrupt/external_interrupt.c: 545:     }
  2644   001AB0  EF5E  F00D         	goto	l4076
  2645   001AB4                     l4074:
  2646                           
  2647                           ; BSR set to: 0
  2648                           ;MCAL_layer/Interrupt/external_interrupt.c: 547:     {;MCAL_layer/Interrupt/external_int
      +                          errupt.c: 548:         INT2_InterruptHandler = Interrupt_Handler;
  2649   001AB4  C080  F053         	movff	INT2_Interrupt_Handler@Interrupt_Handler,_INT2_InterruptHandler
  2650   001AB8  C081  F054         	movff	INT2_Interrupt_Handler@Interrupt_Handler+1,_INT2_InterruptHandler+1
  2651   001ABC                     l4076:
  2652                           
  2653                           ; BSR set to: 0
  2654                           ;MCAL_layer/Interrupt/external_interrupt.c: 550:     return ret;
  2655   001ABC  5182               	movf	INT2_Interrupt_Handler@ret& (0+255),w,b
  2656   001ABE                     
  2657                           ; BSR set to: 0
  2658   001ABE  0012               	return		;funcret
  2659   001AC0                     __end_of_INT2_Interrupt_Handler:
  2660                           	callstack 0
  2661                           
  2662 ;; *************** function _INT1_Interrupt_Handler *****************
  2663 ;; Defined at:
  2664 ;;		line 518 in file "MCAL_layer/Interrupt/external_interrupt.c"
  2665 ;; Parameters:    Size  Location     Type
  2666 ;;  Interrupt_Ha    2    0[BANK0 ] PTR FTN()void 
  2667 ;;		 -> i2_ISR_2(1), i2_ISR_1(1), i2_ISR_0(1), ISR_2(1), 
  2668 ;;		 -> ISR_1(1), ISR_0(1), 
  2669 ;; Auto vars:     Size  Location     Type
  2670 ;;  ret             1    2[BANK0 ] unsigned char 
  2671 ;; Return value:  Size  Location     Type
  2672 ;;                  1    wreg      unsigned char 
  2673 ;; Registers used:
  2674 ;;		wreg, status,2, status,0
  2675 ;; Tracked objects:
  2676 ;;		On entry : 0/0
  2677 ;;		On exit  : 0/0
  2678 ;;		Unchanged: 0/0
  2679 ;; Data sizes:     COMRAM   BANK0   BANK1   BANK2   BANK3   BANK4   BANK5   BANK6   BANK7   BANK8   BANK9  BANK10  BANK1
      +1  BANK12  BANK13  BANK14  BANK15
  2680 ;;      Params:         0       2       0       0       0       0       0       0       0       0       0       0       
      +0       0       0       0       0
  2681 ;;      Locals:         0       1       0       0       0       0       0       0       0       0       0       0       
      +0       0       0       0       0
  2682 ;;      Temps:          0       0       0       0       0       0       0       0       0       0       0       0       
      +0       0       0       0       0
  2683 ;;      Totals:         0       3       0       0       0       0       0       0       0       0       0       0       
      +0       0       0       0       0
  2684 ;;Total ram usage:        3 bytes
  2685 ;; Hardware stack levels used: 1
  2686 ;; Hardware stack levels required when called: 8
  2687 ;; This function calls:
  2688 ;;		Nothing
  2689 ;; This function is called by:
  2690 ;;		_INTx_Set_Interrupt_Handler
  2691 ;; This function uses a non-reentrant model
  2692 ;;
  2693                           
  2694                           	psect	text14
  2695   001AC0                     __ptext14:
  2696                           	callstack 0
  2697   001AC0                     _INT1_Interrupt_Handler:
  2698                           	callstack 19
  2699   001AC0                     
  2700                           ;MCAL_layer/Interrupt/external_interrupt.c: 518: static STD_ReturnType INT1_Interrupt_Ha
      +                          ndler(void (*Interrupt_Handler)(void));MCAL_layer/Interrupt/external_interrupt.c: 519: {
      +                          ;MCAL_layer/Interrupt/external_interrupt.c: 520:     STD_ReturnType ret = (STD_ReturnTyp
      +                          e)0x01;
  2701   001AC0  0E01               	movlw	1
  2702   001AC2  0100               	movlb	0	; () banked
  2703   001AC4  6F82               	movwf	INT1_Interrupt_Handler@ret& (0+255),b
  2704   001AC6                     
  2705                           ; BSR set to: 0
  2706                           ;MCAL_layer/Interrupt/external_interrupt.c: 522:     if(((void*)0) == Interrupt_Handler)
  2707   001AC6  5180               	movf	INT1_Interrupt_Handler@Interrupt_Handler& (0+255),w,b
  2708   001AC8  1181               	iorwf	(INT1_Interrupt_Handler@Interrupt_Handler+1)& (0+255),w,b
  2709   001ACA  A4D8               	btfss	status,2,c
  2710   001ACC  EF6A  F00D         	goto	u2851
  2711   001AD0  EF6C  F00D         	goto	u2850
  2712   001AD4                     u2851:
  2713   001AD4  EF70  F00D         	goto	l4062
  2714   001AD8                     u2850:
  2715   001AD8                     
  2716                           ; BSR set to: 0
  2717                           ;MCAL_layer/Interrupt/external_interrupt.c: 523:     {;MCAL_layer/Interrupt/external_int
      +                          errupt.c: 524:         ret = (STD_ReturnType)0x00;
  2718   001AD8  0E00               	movlw	0
  2719   001ADA  6F82               	movwf	INT1_Interrupt_Handler@ret& (0+255),b
  2720                           
  2721                           ;MCAL_layer/Interrupt/external_interrupt.c: 525:     }
  2722   001ADC  EF74  F00D         	goto	l4064
  2723   001AE0                     l4062:
  2724                           
  2725                           ; BSR set to: 0
  2726                           ;MCAL_layer/Interrupt/external_interrupt.c: 527:     {;MCAL_layer/Interrupt/external_int
      +                          errupt.c: 528:         INT1_InterruptHandler = Interrupt_Handler;
  2727   001AE0  C080  F055         	movff	INT1_Interrupt_Handler@Interrupt_Handler,_INT1_InterruptHandler
  2728   001AE4  C081  F056         	movff	INT1_Interrupt_Handler@Interrupt_Handler+1,_INT1_InterruptHandler+1
  2729   001AE8                     l4064:
  2730                           
  2731                           ; BSR set to: 0
  2732                           ;MCAL_layer/Interrupt/external_interrupt.c: 530:     return ret;
  2733   001AE8  5182               	movf	INT1_Interrupt_Handler@ret& (0+255),w,b
  2734   001AEA                     
  2735                           ; BSR set to: 0
  2736   001AEA  0012               	return		;funcret
  2737   001AEC                     __end_of_INT1_Interrupt_Handler:
  2738                           	callstack 0
  2739                           
  2740 ;; *************** function _INT0_Interrupt_Handler *****************
  2741 ;; Defined at:
  2742 ;;		line 498 in file "MCAL_layer/Interrupt/external_interrupt.c"
  2743 ;; Parameters:    Size  Location     Type
  2744 ;;  Interrupt_Ha    2    0[BANK0 ] PTR FTN()void 
  2745 ;;		 -> i2_ISR_2(1), i2_ISR_1(1), i2_ISR_0(1), ISR_2(1), 
  2746 ;;		 -> ISR_1(1), ISR_0(1), 
  2747 ;; Auto vars:     Size  Location     Type
  2748 ;;  ret             1    2[BANK0 ] unsigned char 
  2749 ;; Return value:  Size  Location     Type
  2750 ;;                  1    wreg      unsigned char 
  2751 ;; Registers used:
  2752 ;;		wreg, status,2, status,0
  2753 ;; Tracked objects:
  2754 ;;		On entry : 0/0
  2755 ;;		On exit  : 0/0
  2756 ;;		Unchanged: 0/0
  2757 ;; Data sizes:     COMRAM   BANK0   BANK1   BANK2   BANK3   BANK4   BANK5   BANK6   BANK7   BANK8   BANK9  BANK10  BANK1
      +1  BANK12  BANK13  BANK14  BANK15
  2758 ;;      Params:         0       2       0       0       0       0       0       0       0       0       0       0       
      +0       0       0       0       0
  2759 ;;      Locals:         0       1       0       0       0       0       0       0       0       0       0       0       
      +0       0       0       0       0
  2760 ;;      Temps:          0       0       0       0       0       0       0       0       0       0       0       0       
      +0       0       0       0       0
  2761 ;;      Totals:         0       3       0       0       0       0       0       0       0       0       0       0       
      +0       0       0       0       0
  2762 ;;Total ram usage:        3 bytes
  2763 ;; Hardware stack levels used: 1
  2764 ;; Hardware stack levels required when called: 8
  2765 ;; This function calls:
  2766 ;;		Nothing
  2767 ;; This function is called by:
  2768 ;;		_INTx_Set_Interrupt_Handler
  2769 ;; This function uses a non-reentrant model
  2770 ;;
  2771                           
  2772                           	psect	text15
  2773   001AEC                     __ptext15:
  2774                           	callstack 0
  2775   001AEC                     _INT0_Interrupt_Handler:
  2776                           	callstack 19
  2777   001AEC                     
  2778                           ;MCAL_layer/Interrupt/external_interrupt.c: 498: static STD_ReturnType INT0_Interrupt_Ha
      +                          ndler(void (*Interrupt_Handler)(void));MCAL_layer/Interrupt/external_interrupt.c: 499: {
      +                          ;MCAL_layer/Interrupt/external_interrupt.c: 500:     STD_ReturnType ret = (STD_ReturnTyp
      +                          e)0x01;
  2779   001AEC  0E01               	movlw	1
  2780   001AEE  0100               	movlb	0	; () banked
  2781   001AF0  6F82               	movwf	INT0_Interrupt_Handler@ret& (0+255),b
  2782   001AF2                     
  2783                           ; BSR set to: 0
  2784                           ;MCAL_layer/Interrupt/external_interrupt.c: 502:     if(((void*)0) == Interrupt_Handler)
  2785   001AF2  5180               	movf	INT0_Interrupt_Handler@Interrupt_Handler& (0+255),w,b
  2786   001AF4  1181               	iorwf	(INT0_Interrupt_Handler@Interrupt_Handler+1)& (0+255),w,b
  2787   001AF6  A4D8               	btfss	status,2,c
  2788   001AF8  EF80  F00D         	goto	u2841
  2789   001AFC  EF82  F00D         	goto	u2840
  2790   001B00                     u2841:
  2791   001B00  EF86  F00D         	goto	l4050
  2792   001B04                     u2840:
  2793   001B04                     
  2794                           ; BSR set to: 0
  2795                           ;MCAL_layer/Interrupt/external_interrupt.c: 503:     {;MCAL_layer/Interrupt/external_int
      +                          errupt.c: 504:         ret = (STD_ReturnType)0x00;
  2796   001B04  0E00               	movlw	0
  2797   001B06  6F82               	movwf	INT0_Interrupt_Handler@ret& (0+255),b
  2798                           
  2799                           ;MCAL_layer/Interrupt/external_interrupt.c: 505:     }
  2800   001B08  EF8A  F00D         	goto	l4052
  2801   001B0C                     l4050:
  2802                           
  2803                           ; BSR set to: 0
  2804                           ;MCAL_layer/Interrupt/external_interrupt.c: 507:     {;MCAL_layer/Interrupt/external_int
      +                          errupt.c: 508:         INT0_InterruptHandler = Interrupt_Handler;
  2805   001B0C  C080  F057         	movff	INT0_Interrupt_Handler@Interrupt_Handler,_INT0_InterruptHandler
  2806   001B10  C081  F058         	movff	INT0_Interrupt_Handler@Interrupt_Handler+1,_INT0_InterruptHandler+1
  2807   001B14                     l4052:
  2808                           
  2809                           ; BSR set to: 0
  2810                           ;MCAL_layer/Interrupt/external_interrupt.c: 510:     return ret;
  2811   001B14  5182               	movf	INT0_Interrupt_Handler@ret& (0+255),w,b
  2812   001B16                     
  2813                           ; BSR set to: 0
  2814   001B16  0012               	return		;funcret
  2815   001B18                     __end_of_INT0_Interrupt_Handler:
  2816                           	callstack 0
  2817                           
  2818 ;; *************** function _Interrupt_Manager_Low *****************
  2819 ;; Defined at:
  2820 ;;		line 25 in file "MCAL_layer/Interrupt/interrupt_manager.c"
  2821 ;; Parameters:    Size  Location     Type
  2822 ;;		None
  2823 ;; Auto vars:     Size  Location     Type
  2824 ;;		None
  2825 ;; Return value:  Size  Location     Type
  2826 ;;                  1    wreg      void 
  2827 ;; Registers used:
  2828 ;;		wreg, fsr2l, fsr2h, status,2, status,0, pcl, pclath, pclatu, tosl, prodl, prodh, cstack
  2829 ;; Tracked objects:
  2830 ;;		On entry : 0/0
  2831 ;;		On exit  : 0/0
  2832 ;;		Unchanged: 0/0
  2833 ;; Data sizes:     COMRAM   BANK0   BANK1   BANK2   BANK3   BANK4   BANK5   BANK6   BANK7   BANK8   BANK9  BANK10  BANK1
      +1  BANK12  BANK13  BANK14  BANK15
  2834 ;;      Params:         0       0       0       0       0       0       0       0       0       0       0       0       
      +0       0       0       0       0
  2835 ;;      Locals:         0       0       0       0       0       0       0       0       0       0       0       0       
      +0       0       0       0       0
  2836 ;;      Temps:          9       0       0       0       0       0       0       0       0       0       0       0       
      +0       0       0       0       0
  2837 ;;      Totals:         9       0       0       0       0       0       0       0       0       0       0       0       
      +0       0       0       0       0
  2838 ;;Total ram usage:        9 bytes
  2839 ;; Hardware stack levels used: 1
  2840 ;; Hardware stack levels required when called: 7
  2841 ;; This function calls:
  2842 ;;		_INT1_ISR
  2843 ;; This function is called by:
  2844 ;;		Interrupt level 1
  2845 ;; This function uses a non-reentrant model
  2846 ;;
  2847                           
  2848                           	psect	intcodelo
  2849   000018                     __pintcodelo:
  2850                           	callstack 0
  2851   000018                     _Interrupt_Manager_Low:
  2852                           	callstack 19
  2853                           
  2854                           ; BSR set to: 0
  2855                           ;incstack = 0
  2856   000018  806A               	bsf	int$flags,0,c	;set compiler interrupt flag (level 1)
  2857   00001A  CFD8 F04A          	movff	status,??_Interrupt_Manager_Low
  2858   00001E  CFE8 F04B          	movff	wreg,??_Interrupt_Manager_Low+1
  2859   000022  CFE0 F04C          	movff	bsr,??_Interrupt_Manager_Low+2
  2860   000026  CFFA F04D          	movff	pclath,??_Interrupt_Manager_Low+3
  2861   00002A  CFFB F04E          	movff	pclatu,??_Interrupt_Manager_Low+4
  2862   00002E  CFD9 F04F          	movff	fsr2l,??_Interrupt_Manager_Low+5
  2863   000032  CFDA F050          	movff	fsr2h,??_Interrupt_Manager_Low+6
  2864   000036  CFF3 F051          	movff	prodl,??_Interrupt_Manager_Low+7
  2865   00003A  CFF4 F052          	movff	prodh,??_Interrupt_Manager_Low+8
  2866   00003E                     
  2867                           ;MCAL_layer/Interrupt/interrupt_manager.c: 27:     if((1 == INTCON3bits.INT1IE) && (1 ==
      +                           INTCON3bits.INT1IF ))
  2868   00003E  A6F0               	btfss	240,3,c	;volatile
  2869   000040  EF24  F000         	goto	i1u277_21
  2870   000044  EF26  F000         	goto	i1u277_20
  2871   000048                     i1u277_21:
  2872   000048  EF2F  F000         	goto	i1l703
  2873   00004C                     i1u277_20:
  2874   00004C  A0F0               	btfss	240,0,c	;volatile
  2875   00004E  EF2B  F000         	goto	i1u278_21
  2876   000052  EF2D  F000         	goto	i1u278_20
  2877   000056                     i1u278_21:
  2878   000056  EF2F  F000         	goto	i1l703
  2879   00005A                     i1u278_20:
  2880   00005A                     
  2881                           ;MCAL_layer/Interrupt/interrupt_manager.c: 28:     {;MCAL_layer/Interrupt/interrupt_mana
      +                          ger.c: 29:         INT1_ISR();
  2882   00005A  ECEF  F00C         	call	_INT1_ISR	;wreg free
  2883   00005E                     i1l703:
  2884   00005E  C052  FFF4         	movff	??_Interrupt_Manager_Low+8,prodh
  2885   000062  C051  FFF3         	movff	??_Interrupt_Manager_Low+7,prodl
  2886   000066  C050  FFDA         	movff	??_Interrupt_Manager_Low+6,fsr2h
  2887   00006A  C04F  FFD9         	movff	??_Interrupt_Manager_Low+5,fsr2l
  2888   00006E  C04E  FFFB         	movff	??_Interrupt_Manager_Low+4,pclatu
  2889   000072  C04D  FFFA         	movff	??_Interrupt_Manager_Low+3,pclath
  2890   000076  C04C  FFE0         	movff	??_Interrupt_Manager_Low+2,bsr
  2891   00007A  C04B  FFE8         	movff	??_Interrupt_Manager_Low+1,wreg
  2892   00007E  C04A  FFD8         	movff	??_Interrupt_Manager_Low,status
  2893   000082  906A               	bcf	int$flags,0,c	;clear compiler interrupt flag (level 1)
  2894   000084  0010               	retfie	
  2895   000086                     __end_of_Interrupt_Manager_Low:
  2896                           	callstack 0
  2897                           
  2898 ;; *************** function _INT1_ISR *****************
  2899 ;; Defined at:
  2900 ;;		line 604 in file "MCAL_layer/Interrupt/external_interrupt.c"
  2901 ;; Parameters:    Size  Location     Type
  2902 ;;		None
  2903 ;; Auto vars:     Size  Location     Type
  2904 ;;		None
  2905 ;; Return value:  Size  Location     Type
  2906 ;;                  1    wreg      void 
  2907 ;; Registers used:
  2908 ;;		wreg, fsr2l, fsr2h, status,2, status,0, pcl, pclath, pclatu, tosl, prodl, prodh, cstack
  2909 ;; Tracked objects:
  2910 ;;		On entry : 0/0
  2911 ;;		On exit  : 0/0
  2912 ;;		Unchanged: 0/0
  2913 ;; Data sizes:     COMRAM   BANK0   BANK1   BANK2   BANK3   BANK4   BANK5   BANK6   BANK7   BANK8   BANK9  BANK10  BANK1
      +1  BANK12  BANK13  BANK14  BANK15
  2914 ;;      Params:         0       0       0       0       0       0       0       0       0       0       0       0       
      +0       0       0       0       0
  2915 ;;      Locals:         0       0       0       0       0       0       0       0       0       0       0       0       
      +0       0       0       0       0
  2916 ;;      Temps:          0       0       0       0       0       0       0       0       0       0       0       0       
      +0       0       0       0       0
  2917 ;;      Totals:         0       0       0       0       0       0       0       0       0       0       0       0       
      +0       0       0       0       0
  2918 ;;Total ram usage:        0 bytes
  2919 ;; Hardware stack levels used: 1
  2920 ;; Hardware stack levels required when called: 6
  2921 ;; This function calls:
  2922 ;;		NULL
  2923 ;;		_ISR_0
  2924 ;;		_ISR_1
  2925 ;;		_ISR_2
  2926 ;; This function is called by:
  2927 ;;		_Interrupt_Manager_Low
  2928 ;; This function uses a non-reentrant model
  2929 ;;
  2930                           
  2931                           	psect	text17
  2932   0019DE                     __ptext17:
  2933                           	callstack 0
  2934   0019DE                     _INT1_ISR:
  2935                           	callstack 19
  2936   0019DE                     
  2937                           ;MCAL_layer/Interrupt/external_interrupt.c: 607:     (INTCON3bits.INT1IF = 0);
  2938   0019DE  90F0               	bcf	240,0,c	;volatile
  2939   0019E0                     
  2940                           ;MCAL_layer/Interrupt/external_interrupt.c: 612:     if(INT1_InterruptHandler)
  2941   0019E0  5055               	movf	_INT1_InterruptHandler^0,w,c
  2942   0019E2  1056               	iorwf	(_INT1_InterruptHandler+1)^0,w,c
  2943   0019E4  B4D8               	btfsc	status,2,c
  2944   0019E6  EFF7  F00C         	goto	i1u201_21
  2945   0019EA  EFF9  F00C         	goto	i1u201_20
  2946   0019EE                     i1u201_21:
  2947   0019EE  EF05  F00D         	goto	i1l676
  2948   0019F2                     i1u201_20:
  2949   0019F2                     
  2950                           ;MCAL_layer/Interrupt/external_interrupt.c: 613:     {;MCAL_layer/Interrupt/external_int
      +                          errupt.c: 614:         INT1_InterruptHandler();
  2951   0019F2  D802               	call	i1u202_28
  2952   0019F4  EF05  F00D         	goto	i1u202_29
  2953   0019F8                     i1u202_28:
  2954   0019F8  0005               	push	
  2955   0019FA  6EFA               	movwf	pclath,c
  2956   0019FC  5055               	movf	_INT1_InterruptHandler^0,w,c
  2957   0019FE  6EFD               	movwf	tosl,c
  2958   001A00  5056               	movf	(_INT1_InterruptHandler+1)^0,w,c
  2959   001A02  6EFE               	movwf	tosh,c
  2960   001A04  6AFF               	clrf	tosu,c
  2961   001A06  50FA               	movf	pclath,w,c
  2962   001A08  0012               	return		;indir
  2963   001A0A                     i1u202_29:
  2964   001A0A                     i1l676:
  2965   001A0A  0012               	return		;funcret
  2966   001A0C                     __end_of_INT1_ISR:
  2967                           	callstack 0
  2968                           
  2969 ;; *************** function _ISR_1 *****************
  2970 ;; Defined at:
  2971 ;;		line 80 in file "application.c"
  2972 ;; Parameters:    Size  Location     Type
  2973 ;;		None
  2974 ;; Auto vars:     Size  Location     Type
  2975 ;;		None
  2976 ;; Return value:  Size  Location     Type
  2977 ;;                  1    wreg      void 
  2978 ;; Registers used:
  2979 ;;		wreg, fsr2l, fsr2h, status,2, status,0, prodl, prodh, cstack
  2980 ;; Tracked objects:
  2981 ;;		On entry : 0/0
  2982 ;;		On exit  : 0/0
  2983 ;;		Unchanged: 0/0
  2984 ;; Data sizes:     COMRAM   BANK0   BANK1   BANK2   BANK3   BANK4   BANK5   BANK6   BANK7   BANK8   BANK9  BANK10  BANK1
      +1  BANK12  BANK13  BANK14  BANK15
  2985 ;;      Params:         0       0       0       0       0       0       0       0       0       0       0       0       
      +0       0       0       0       0
  2986 ;;      Locals:         0       0       0       0       0       0       0       0       0       0       0       0       
      +0       0       0       0       0
  2987 ;;      Temps:          2       0       0       0       0       0       0       0       0       0       0       0       
      +0       0       0       0       0
  2988 ;;      Totals:         2       0       0       0       0       0       0       0       0       0       0       0       
      +0       0       0       0       0
  2989 ;;Total ram usage:        2 bytes
  2990 ;; Hardware stack levels used: 1
  2991 ;; Hardware stack levels required when called: 5
  2992 ;; This function calls:
  2993 ;;		_gpio_pin_toggle_logic
  2994 ;; This function is called by:
  2995 ;;		_INT0_ISR
  2996 ;;		_INT1_ISR
  2997 ;;		_INT2_ISR
  2998 ;; This function uses a non-reentrant model
  2999 ;;
  3000                           
  3001                           	psect	text18
  3002   001B18                     __ptext18:
  3003                           	callstack 0
  3004   001B18                     _ISR_1:
  3005                           	callstack 0
  3006                           
  3007                           ;Skip over the trampoline to the duplicate function for level 2
  3008   001B18  A26A               	btfss	int$flags,1,c
  3009   001B1A  EF91  F00D         	goto	_ISR_1$intlevel1
  3010   001B1E  EFCE  F00D         	goto	i2_ISR_1
  3011   001B22                     _ISR_1$intlevel1:
  3012                           	callstack 19
  3013   001B22                     
  3014                           ;application.c: 82:     ret = gpio_pin_toggle_logic(&led2);
  3015   001B22  0E32               	movlw	low _led2
  3016   001B24  6E42               	movwf	gpio_pin_toggle_logic@_pin_config^0,c
  3017   001B26  ECF7  F00A         	call	_gpio_pin_toggle_logic	;wreg free
  3018   001B2A  6E69               	movwf	_ret^0,c
  3019   001B2C                     
  3020                           ;application.c: 83:     _delay((unsigned long)((250)*(8000000UL/4000.0)));
  3021   001B2C  0E03               	movlw	3
  3022   001B2E  6E49               	movwf	(??_ISR_1+1)^0,c
  3023   001B30  0E8A               	movlw	138
  3024   001B32  6E48               	movwf	??_ISR_1^0,c
  3025   001B34  0E56               	movlw	86
  3026   001B36                     i1u381_27:
  3027   001B36  2EE8               	decfsz	wreg,f,c
  3028   001B38  D7FE               	bra	i1u381_27
  3029   001B3A  2E48               	decfsz	??_ISR_1^0,f,c
  3030   001B3C  D7FC               	bra	i1u381_27
  3031   001B3E  2E49               	decfsz	(??_ISR_1+1)^0,f,c
  3032   001B40  D7FA               	bra	i1u381_27
  3033   001B42  0012               	return		;funcret
  3034   001B44                     __end_of_ISR_1:
  3035                           	callstack 0
  3036                           
  3037 ;; *************** function _ISR_0 *****************
  3038 ;; Defined at:
  3039 ;;		line 74 in file "application.c"
  3040 ;; Parameters:    Size  Location     Type
  3041 ;;		None
  3042 ;; Auto vars:     Size  Location     Type
  3043 ;;		None
  3044 ;; Return value:  Size  Location     Type
  3045 ;;                  1    wreg      void 
  3046 ;; Registers used:
  3047 ;;		wreg, fsr2l, fsr2h, status,2, status,0, prodl, prodh, cstack
  3048 ;; Tracked objects:
  3049 ;;		On entry : 0/0
  3050 ;;		On exit  : 0/0
  3051 ;;		Unchanged: 0/0
  3052 ;; Data sizes:     COMRAM   BANK0   BANK1   BANK2   BANK3   BANK4   BANK5   BANK6   BANK7   BANK8   BANK9  BANK10  BANK1
      +1  BANK12  BANK13  BANK14  BANK15
  3053 ;;      Params:         0       0       0       0       0       0       0       0       0       0       0       0       
      +0       0       0       0       0
  3054 ;;      Locals:         0       0       0       0       0       0       0       0       0       0       0       0       
      +0       0       0       0       0
  3055 ;;      Temps:          2       0       0       0       0       0       0       0       0       0       0       0       
      +0       0       0       0       0
  3056 ;;      Totals:         2       0       0       0       0       0       0       0       0       0       0       0       
      +0       0       0       0       0
  3057 ;;Total ram usage:        2 bytes
  3058 ;; Hardware stack levels used: 1
  3059 ;; Hardware stack levels required when called: 5
  3060 ;; This function calls:
  3061 ;;		_gpio_pin_toggle_logic
  3062 ;; This function is called by:
  3063 ;;		_INT0_ISR
  3064 ;;		_INT1_ISR
  3065 ;;		_INT2_ISR
  3066 ;; This function uses a non-reentrant model
  3067 ;;
  3068                           
  3069                           	psect	text19
  3070   001B44                     __ptext19:
  3071                           	callstack 0
  3072   001B44                     _ISR_0:
  3073                           	callstack 0
  3074                           
  3075                           ;Skip over the trampoline to the duplicate function for level 2
  3076   001B44  A26A               	btfss	int$flags,1,c
  3077   001B46  EFA7  F00D         	goto	_ISR_0$intlevel1
  3078   001B4A  EFDF  F00D         	goto	i2_ISR_0
  3079   001B4E                     _ISR_0$intlevel1:
  3080                           	callstack 19
  3081   001B4E                     
  3082                           ;application.c: 76:     ret = gpio_pin_toggle_logic(&led1);
  3083   001B4E  0E33               	movlw	low _led1
  3084   001B50  6E42               	movwf	gpio_pin_toggle_logic@_pin_config^0,c
  3085   001B52  ECF7  F00A         	call	_gpio_pin_toggle_logic	;wreg free
  3086   001B56  6E69               	movwf	_ret^0,c
  3087   001B58                     
  3088                           ;application.c: 77:     _delay((unsigned long)((250)*(8000000UL/4000.0)));
  3089   001B58  0E03               	movlw	3
  3090   001B5A  6E49               	movwf	(??_ISR_0+1)^0,c
  3091   001B5C  0E8A               	movlw	138
  3092   001B5E  6E48               	movwf	??_ISR_0^0,c
  3093   001B60  0E56               	movlw	86
  3094   001B62                     i1u382_27:
  3095   001B62  2EE8               	decfsz	wreg,f,c
  3096   001B64  D7FE               	bra	i1u382_27
  3097   001B66  2E48               	decfsz	??_ISR_0^0,f,c
  3098   001B68  D7FC               	bra	i1u382_27
  3099   001B6A  2E49               	decfsz	(??_ISR_0+1)^0,f,c
  3100   001B6C  D7FA               	bra	i1u382_27
  3101   001B6E  0012               	return		;funcret
  3102   001B70                     __end_of_ISR_0:
  3103                           	callstack 0
  3104                           
  3105 ;; *************** function _ISR_2 *****************
  3106 ;; Defined at:
  3107 ;;		line 86 in file "application.c"
  3108 ;; Parameters:    Size  Location     Type
  3109 ;;		None
  3110 ;; Auto vars:     Size  Location     Type
  3111 ;;		None
  3112 ;; Return value:  Size  Location     Type
  3113 ;;                  1    wreg      void 
  3114 ;; Registers used:
  3115 ;;		wreg, fsr2l, fsr2h, status,2, status,0, prodl, prodh, cstack
  3116 ;; Tracked objects:
  3117 ;;		On entry : 0/0
  3118 ;;		On exit  : 0/0
  3119 ;;		Unchanged: 0/0
  3120 ;; Data sizes:     COMRAM   BANK0   BANK1   BANK2   BANK3   BANK4   BANK5   BANK6   BANK7   BANK8   BANK9  BANK10  BANK1
      +1  BANK12  BANK13  BANK14  BANK15
  3121 ;;      Params:         0       0       0       0       0       0       0       0       0       0       0       0       
      +0       0       0       0       0
  3122 ;;      Locals:         0       0       0       0       0       0       0       0       0       0       0       0       
      +0       0       0       0       0
  3123 ;;      Temps:          2       0       0       0       0       0       0       0       0       0       0       0       
      +0       0       0       0       0
  3124 ;;      Totals:         2       0       0       0       0       0       0       0       0       0       0       0       
      +0       0       0       0       0
  3125 ;;Total ram usage:        2 bytes
  3126 ;; Hardware stack levels used: 1
  3127 ;; Hardware stack levels required when called: 5
  3128 ;; This function calls:
  3129 ;;		_gpio_pin_toggle_logic
  3130 ;; This function is called by:
  3131 ;;		_INT0_ISR
  3132 ;;		_INT1_ISR
  3133 ;;		_INT2_ISR
  3134 ;; This function uses a non-reentrant model
  3135 ;;
  3136                           
  3137                           	psect	text20
  3138   001B70                     __ptext20:
  3139                           	callstack 0
  3140   001B70                     _ISR_2:
  3141                           	callstack 0
  3142                           
  3143                           ;Skip over the trampoline to the duplicate function for level 2
  3144   001B70  A26A               	btfss	int$flags,1,c
  3145   001B72  EFBD  F00D         	goto	_ISR_2$intlevel1
  3146   001B76  EFF0  F00D         	goto	i2_ISR_2
  3147   001B7A                     _ISR_2$intlevel1:
  3148                           	callstack 19
  3149   001B7A                     
  3150                           ;application.c: 88:     ret = gpio_pin_toggle_logic(&led3);
  3151   001B7A  0E31               	movlw	low _led3
  3152   001B7C  6E42               	movwf	gpio_pin_toggle_logic@_pin_config^0,c
  3153   001B7E  ECF7  F00A         	call	_gpio_pin_toggle_logic	;wreg free
  3154   001B82  6E69               	movwf	_ret^0,c
  3155   001B84                     
  3156                           ;application.c: 89:     _delay((unsigned long)((250)*(8000000UL/4000.0)));
  3157   001B84  0E03               	movlw	3
  3158   001B86  6E49               	movwf	(??_ISR_2+1)^0,c
  3159   001B88  0E8A               	movlw	138
  3160   001B8A  6E48               	movwf	??_ISR_2^0,c
  3161   001B8C  0E56               	movlw	86
  3162   001B8E                     i1u383_27:
  3163   001B8E  2EE8               	decfsz	wreg,f,c
  3164   001B90  D7FE               	bra	i1u383_27
  3165   001B92  2E48               	decfsz	??_ISR_2^0,f,c
  3166   001B94  D7FC               	bra	i1u383_27
  3167   001B96  2E49               	decfsz	(??_ISR_2+1)^0,f,c
  3168   001B98  D7FA               	bra	i1u383_27
  3169   001B9A  0012               	return		;funcret
  3170   001B9C                     __end_of_ISR_2:
  3171                           	callstack 0
  3172                           
  3173 ;; *************** function _gpio_pin_toggle_logic *****************
  3174 ;; Defined at:
  3175 ;;		line 131 in file "MCAL_layer/GPIO/gpio.c"
  3176 ;; Parameters:    Size  Location     Type
  3177 ;;  _pin_config     1   14[COMRAM] PTR const struct .
  3178 ;;		 -> led3(1), led2(1), led1(1), ecu_relay_toggle@relay_init(1), 
  3179 ;;		 -> ecu_led_toggle@_pin_config(1), 
  3180 ;; Auto vars:     Size  Location     Type
  3181 ;;  ret             1   19[COMRAM] unsigned char 
  3182 ;; Return value:  Size  Location     Type
  3183 ;;                  1    wreg      unsigned char 
  3184 ;; Registers used:
  3185 ;;		wreg, fsr2l, fsr2h, status,2, status,0, prodl, prodh
  3186 ;; Tracked objects:
  3187 ;;		On entry : 0/0
  3188 ;;		On exit  : 0/0
  3189 ;;		Unchanged: 0/0
  3190 ;; Data sizes:     COMRAM   BANK0   BANK1   BANK2   BANK3   BANK4   BANK5   BANK6   BANK7   BANK8   BANK9  BANK10  BANK1
      +1  BANK12  BANK13  BANK14  BANK15
  3191 ;;      Params:         1       0       0       0       0       0       0       0       0       0       0       0       
      +0       0       0       0       0
  3192 ;;      Locals:         1       0       0       0       0       0       0       0       0       0       0       0       
      +0       0       0       0       0
  3193 ;;      Temps:          4       0       0       0       0       0       0       0       0       0       0       0       
      +0       0       0       0       0
  3194 ;;      Totals:         6       0       0       0       0       0       0       0       0       0       0       0       
      +0       0       0       0       0
  3195 ;;Total ram usage:        6 bytes
  3196 ;; Hardware stack levels used: 1
  3197 ;; Hardware stack levels required when called: 4
  3198 ;; This function calls:
  3199 ;;		Nothing
  3200 ;; This function is called by:
  3201 ;;		_ISR_0
  3202 ;;		_ISR_1
  3203 ;;		_ISR_2
  3204 ;;		_ecu_led_toggle
  3205 ;;		_ecu_relay_toggle
  3206 ;; This function uses a non-reentrant model
  3207 ;;
  3208                           
  3209                           	psect	text21
  3210   0015EE                     __ptext21:
  3211                           	callstack 0
  3212   0015EE                     _gpio_pin_toggle_logic:
  3213                           	callstack 19
  3214   0015EE                     
  3215                           ;MCAL_layer/GPIO/gpio.c: 131: STD_ReturnType gpio_pin_toggle_logic(const pin_config *_pi
      +                          n_config);MCAL_layer/GPIO/gpio.c: 132: {;MCAL_layer/GPIO/gpio.c: 133:     STD_ReturnType
      +                           ret = (STD_ReturnType)0x01;
  3216   0015EE  0E01               	movlw	1
  3217   0015F0  6E47               	movwf	gpio_pin_toggle_logic@ret^0,c
  3218                           
  3219                           ;MCAL_layer/GPIO/gpio.c: 134:     if(((void*)0) == _pin_config || _pin_config->pin > 8 -
      +                          1)
  3220   0015F2  5042               	movf	gpio_pin_toggle_logic@_pin_config^0,w,c
  3221   0015F4  B4D8               	btfsc	status,2,c
  3222   0015F6  EFFF  F00A         	goto	i1u167_21
  3223   0015FA  EF01  F00B         	goto	i1u167_20
  3224   0015FE                     i1u167_21:
  3225   0015FE  EF11  F00B         	goto	i1l2906
  3226   001602                     i1u167_20:
  3227   001602  5042               	movf	gpio_pin_toggle_logic@_pin_config^0,w,c
  3228   001604  6ED9               	movwf	fsr2l,c
  3229   001606  6ADA               	clrf	fsr2h,c
  3230   001608  30DF               	rrcf	223,w,c
  3231   00160A  32E8               	rrcf	wreg,f,c
  3232   00160C  32E8               	rrcf	wreg,f,c
  3233   00160E  0B07               	andlw	7
  3234   001610  6E43               	movwf	??_gpio_pin_toggle_logic^0,c
  3235   001612  0E07               	movlw	7
  3236   001614  6443               	cpfsgt	??_gpio_pin_toggle_logic^0,c
  3237   001616  EF0F  F00B         	goto	i1u168_21
  3238   00161A  EF11  F00B         	goto	i1u168_20
  3239   00161E                     i1u168_21:
  3240   00161E  EF15  F00B         	goto	i1l2908
  3241   001622                     i1u168_20:
  3242   001622                     i1l2906:
  3243                           
  3244                           ;MCAL_layer/GPIO/gpio.c: 135:     {;MCAL_layer/GPIO/gpio.c: 136:         ret = (STD_Retu
      +                          rnType)0x00;
  3245   001622  0E00               	movlw	0
  3246   001624  6E47               	movwf	gpio_pin_toggle_logic@ret^0,c
  3247                           
  3248                           ;MCAL_layer/GPIO/gpio.c: 137:     }
  3249   001626  EF3B  F00B         	goto	i1l2910
  3250   00162A                     i1l2908:
  3251                           
  3252                           ;MCAL_layer/GPIO/gpio.c: 139:     {;MCAL_layer/GPIO/gpio.c: 140:         (*port_register
      +                          s[_pin_config->port] ^= ((uint8)1 << _pin_config->pin));
  3253   00162A  5042               	movf	gpio_pin_toggle_logic@_pin_config^0,w,c
  3254   00162C  6ED9               	movwf	fsr2l,c
  3255   00162E  6ADA               	clrf	fsr2h,c
  3256   001630  30DF               	rrcf	223,w,c
  3257   001632  32E8               	rrcf	wreg,f,c
  3258   001634  32E8               	rrcf	wreg,f,c
  3259   001636  0B07               	andlw	7
  3260   001638  6E43               	movwf	??_gpio_pin_toggle_logic^0,c
  3261   00163A  0E01               	movlw	1
  3262   00163C  6E44               	movwf	(??_gpio_pin_toggle_logic+1)^0,c
  3263   00163E  2A43               	incf	??_gpio_pin_toggle_logic^0,f,c
  3264   001640  EF24  F00B         	goto	i1u169_24
  3265   001644                     i1u169_25:
  3266   001644  90D8               	bcf	status,0,c
  3267   001646  3644               	rlcf	(??_gpio_pin_toggle_logic+1)^0,f,c
  3268   001648                     i1u169_24:
  3269   001648  2E43               	decfsz	??_gpio_pin_toggle_logic^0,f,c
  3270   00164A  EF22  F00B         	goto	i1u169_25
  3271   00164E  5042               	movf	gpio_pin_toggle_logic@_pin_config^0,w,c
  3272   001650  6ED9               	movwf	fsr2l,c
  3273   001652  6ADA               	clrf	fsr2h,c
  3274   001654  50DF               	movf	223,w,c
  3275   001656  0B07               	andlw	7
  3276   001658  0D02               	mullw	2
  3277   00165A  50F3               	movf	243,w,c
  3278   00165C  0F01               	addlw	low _port_registers
  3279   00165E  6ED9               	movwf	fsr2l,c
  3280   001660  6ADA               	clrf	fsr2h,c
  3281   001662  CFDE F045          	movff	postinc2,??_gpio_pin_toggle_logic+2
  3282   001666  CFDD F046          	movff	postdec2,??_gpio_pin_toggle_logic+3
  3283   00166A  C045  FFD9         	movff	??_gpio_pin_toggle_logic+2,fsr2l
  3284   00166E  C046  FFDA         	movff	??_gpio_pin_toggle_logic+3,fsr2h
  3285   001672  5044               	movf	(??_gpio_pin_toggle_logic+1)^0,w,c
  3286   001674  1ADF               	xorwf	indf2,f,c
  3287   001676                     i1l2910:
  3288                           
  3289                           ;MCAL_layer/GPIO/gpio.c: 143:     return ret;
  3290   001676  5047               	movf	gpio_pin_toggle_logic@ret^0,w,c
  3291   001678  0012               	return		;funcret
  3292   00167A                     __end_of_gpio_pin_toggle_logic:
  3293                           	callstack 0
  3294                           
  3295 ;; *************** function _Interrupt_Manager_High *****************
  3296 ;; Defined at:
  3297 ;;		line 12 in file "MCAL_layer/Interrupt/interrupt_manager.c"
  3298 ;; Parameters:    Size  Location     Type
  3299 ;;		None
  3300 ;; Auto vars:     Size  Location     Type
  3301 ;;		None
  3302 ;; Return value:  Size  Location     Type
  3303 ;;                  1    wreg      void 
  3304 ;; Registers used:
  3305 ;;		wreg, fsr2l, fsr2h, status,2, status,0, pcl, pclath, pclatu, tosl, prodl, prodh, cstack
  3306 ;; Tracked objects:
  3307 ;;		On entry : 0/0
  3308 ;;		On exit  : 0/0
  3309 ;;		Unchanged: 0/0
  3310 ;; Data sizes:     COMRAM   BANK0   BANK1   BANK2   BANK3   BANK4   BANK5   BANK6   BANK7   BANK8   BANK9  BANK10  BANK1
      +1  BANK12  BANK13  BANK14  BANK15
  3311 ;;      Params:         0       0       0       0       0       0       0       0       0       0       0       0       
      +0       0       0       0       0
  3312 ;;      Locals:         0       0       0       0       0       0       0       0       0       0       0       0       
      +0       0       0       0       0
  3313 ;;      Temps:          6       0       0       0       0       0       0       0       0       0       0       0       
      +0       0       0       0       0
  3314 ;;      Totals:         6       0       0       0       0       0       0       0       0       0       0       0       
      +0       0       0       0       0
  3315 ;;Total ram usage:        6 bytes
  3316 ;; Hardware stack levels used: 1
  3317 ;; Hardware stack levels required when called: 3
  3318 ;; This function calls:
  3319 ;;		_INT0_ISR
  3320 ;;		_INT2_ISR
  3321 ;; This function is called by:
  3322 ;;		Interrupt level 2
  3323 ;; This function uses a non-reentrant model
  3324 ;;
  3325                           
  3326                           	psect	intcode
  3327   000008                     __pintcode:
  3328                           	callstack 0
  3329   000008                     _Interrupt_Manager_High:
  3330                           	callstack 19
  3331                           
  3332                           ;incstack = 0
  3333   000008  826A               	bsf	int$flags,1,c	;set compiler interrupt flag (level 2)
  3334   00000A  ED83  F00B         	call	int_func,f	;refresh shadow registers
  3335                           
  3336                           	psect	intcode_body
  3337   001706                     __pintcode_body:
  3338                           	callstack 19
  3339   001706                     int_func:
  3340                           	callstack 19
  3341   001706  0006               	pop		; remove dummy address from shadow register refresh
  3342   001708  CFFA F03C          	movff	pclath,??_Interrupt_Manager_High
  3343   00170C  CFFB F03D          	movff	pclatu,??_Interrupt_Manager_High+1
  3344   001710  CFD9 F03E          	movff	fsr2l,??_Interrupt_Manager_High+2
  3345   001714  CFDA F03F          	movff	fsr2h,??_Interrupt_Manager_High+3
  3346   001718  CFF3 F040          	movff	prodl,??_Interrupt_Manager_High+4
  3347   00171C  CFF4 F041          	movff	prodh,??_Interrupt_Manager_High+5
  3348   001720                     
  3349                           ;MCAL_layer/Interrupt/interrupt_manager.c: 14:     if((1 == INTCONbits.INT0IE) && (1 == 
      +                          INTCONbits.INT0IF ))
  3350   001720  A8F2               	btfss	242,4,c	;volatile
  3351   001722  EF95  F00B         	goto	i2u273_41
  3352   001726  EF97  F00B         	goto	i2u273_40
  3353   00172A                     i2u273_41:
  3354   00172A  EFA0  F00B         	goto	i2l3956
  3355   00172E                     i2u273_40:
  3356   00172E  A2F2               	btfss	242,1,c	;volatile
  3357   001730  EF9C  F00B         	goto	i2u274_41
  3358   001734  EF9E  F00B         	goto	i2u274_40
  3359   001738                     i2u274_41:
  3360   001738  EFA0  F00B         	goto	i2l3956
  3361   00173C                     i2u274_40:
  3362   00173C                     
  3363                           ;MCAL_layer/Interrupt/interrupt_manager.c: 15:     {;MCAL_layer/Interrupt/interrupt_mana
      +                          ger.c: 16:         INT0_ISR();
  3364   00173C  EC1D  F00D         	call	_INT0_ISR	;wreg free
  3365   001740                     i2l3956:
  3366                           
  3367                           ;MCAL_layer/Interrupt/interrupt_manager.c: 18:     if((1 == INTCON3bits.INT2IE) && (1 ==
      +                           INTCON3bits.INT2IF ))
  3368   001740  A8F0               	btfss	240,4,c	;volatile
  3369   001742  EFA5  F00B         	goto	i2u275_41
  3370   001746  EFA7  F00B         	goto	i2u275_40
  3371   00174A                     i2u275_41:
  3372   00174A  EFB0  F00B         	goto	i2l697
  3373   00174E                     i2u275_40:
  3374   00174E  A2F0               	btfss	240,1,c	;volatile
  3375   001750  EFAC  F00B         	goto	i2u276_41
  3376   001754  EFAE  F00B         	goto	i2u276_40
  3377   001758                     i2u276_41:
  3378   001758  EFB0  F00B         	goto	i2l697
  3379   00175C                     i2u276_40:
  3380   00175C                     
  3381                           ;MCAL_layer/Interrupt/interrupt_manager.c: 19:     {;MCAL_layer/Interrupt/interrupt_mana
      +                          ger.c: 20:         INT2_ISR();
  3382   00175C  EC06  F00D         	call	_INT2_ISR	;wreg free
  3383   001760                     i2l697:
  3384   001760  C041  FFF4         	movff	??_Interrupt_Manager_High+5,prodh
  3385   001764  C040  FFF3         	movff	??_Interrupt_Manager_High+4,prodl
  3386   001768  C03F  FFDA         	movff	??_Interrupt_Manager_High+3,fsr2h
  3387   00176C  C03E  FFD9         	movff	??_Interrupt_Manager_High+2,fsr2l
  3388   001770  C03D  FFFB         	movff	??_Interrupt_Manager_High+1,pclatu
  3389   001774  C03C  FFFA         	movff	??_Interrupt_Manager_High,pclath
  3390   001778  926A               	bcf	int$flags,1,c	;clear compiler interrupt flag (level 2)
  3391   00177A  0011               	retfie		f
  3392   00177C                     __end_of_Interrupt_Manager_High:
  3393                           	callstack 0
  3394                           
  3395 ;; *************** function _INT2_ISR *****************
  3396 ;; Defined at:
  3397 ;;		line 618 in file "MCAL_layer/Interrupt/external_interrupt.c"
  3398 ;; Parameters:    Size  Location     Type
  3399 ;;		None
  3400 ;; Auto vars:     Size  Location     Type
  3401 ;;		None
  3402 ;; Return value:  Size  Location     Type
  3403 ;;                  1    wreg      void 
  3404 ;; Registers used:
  3405 ;;		wreg, fsr2l, fsr2h, status,2, status,0, pcl, pclath, pclatu, tosl, prodl, prodh, cstack
  3406 ;; Tracked objects:
  3407 ;;		On entry : 0/0
  3408 ;;		On exit  : 0/0
  3409 ;;		Unchanged: 0/0
  3410 ;; Data sizes:     COMRAM   BANK0   BANK1   BANK2   BANK3   BANK4   BANK5   BANK6   BANK7   BANK8   BANK9  BANK10  BANK1
      +1  BANK12  BANK13  BANK14  BANK15
  3411 ;;      Params:         0       0       0       0       0       0       0       0       0       0       0       0       
      +0       0       0       0       0
  3412 ;;      Locals:         0       0       0       0       0       0       0       0       0       0       0       0       
      +0       0       0       0       0
  3413 ;;      Temps:          0       0       0       0       0       0       0       0       0       0       0       0       
      +0       0       0       0       0
  3414 ;;      Totals:         0       0       0       0       0       0       0       0       0       0       0       0       
      +0       0       0       0       0
  3415 ;;Total ram usage:        0 bytes
  3416 ;; Hardware stack levels used: 1
  3417 ;; Hardware stack levels required when called: 2
  3418 ;; This function calls:
  3419 ;;		NULL
  3420 ;;		i2_ISR_0
  3421 ;;		i2_ISR_1
  3422 ;;		i2_ISR_2
  3423 ;; This function is called by:
  3424 ;;		_Interrupt_Manager_High
  3425 ;; This function uses a non-reentrant model
  3426 ;;
  3427                           
  3428                           	psect	text23
  3429   001A0C                     __ptext23:
  3430                           	callstack 0
  3431   001A0C                     _INT2_ISR:
  3432                           	callstack 19
  3433   001A0C                     
  3434                           ;MCAL_layer/Interrupt/external_interrupt.c: 621:     (INTCON3bits.INT2IF = 0);
  3435   001A0C  92F0               	bcf	240,1,c	;volatile
  3436   001A0E                     
  3437                           ;MCAL_layer/Interrupt/external_interrupt.c: 626:     if(INT2_InterruptHandler)
  3438   001A0E  5053               	movf	_INT2_InterruptHandler^0,w,c
  3439   001A10  1054               	iorwf	(_INT2_InterruptHandler+1)^0,w,c
  3440   001A12  B4D8               	btfsc	status,2,c
  3441   001A14  EF0E  F00D         	goto	i2u203_41
  3442   001A18  EF10  F00D         	goto	i2u203_40
  3443   001A1C                     i2u203_41:
  3444   001A1C  EF1C  F00D         	goto	i2l680
  3445   001A20                     i2u203_40:
  3446   001A20                     
  3447                           ;MCAL_layer/Interrupt/external_interrupt.c: 627:     {;MCAL_layer/Interrupt/external_int
      +                          errupt.c: 628:         INT2_InterruptHandler();
  3448   001A20  D802               	call	i2u204_48
  3449   001A22  EF1C  F00D         	goto	i2u204_49
  3450   001A26                     i2u204_48:
  3451   001A26  0005               	push	
  3452   001A28  6EFA               	movwf	pclath,c
  3453   001A2A  5053               	movf	_INT2_InterruptHandler^0,w,c
  3454   001A2C  6EFD               	movwf	tosl,c
  3455   001A2E  5054               	movf	(_INT2_InterruptHandler+1)^0,w,c
  3456   001A30  6EFE               	movwf	tosh,c
  3457   001A32  6AFF               	clrf	tosu,c
  3458   001A34  50FA               	movf	pclath,w,c
  3459   001A36  0012               	return		;indir
  3460   001A38                     i2u204_49:
  3461   001A38                     i2l680:
  3462   001A38  0012               	return		;funcret
  3463   001A3A                     __end_of_INT2_ISR:
  3464                           	callstack 0
  3465                           
  3466 ;; *************** function _INT0_ISR *****************
  3467 ;; Defined at:
  3468 ;;		line 590 in file "MCAL_layer/Interrupt/external_interrupt.c"
  3469 ;; Parameters:    Size  Location     Type
  3470 ;;		None
  3471 ;; Auto vars:     Size  Location     Type
  3472 ;;		None
  3473 ;; Return value:  Size  Location     Type
  3474 ;;                  1    wreg      void 
  3475 ;; Registers used:
  3476 ;;		wreg, fsr2l, fsr2h, status,2, status,0, pcl, pclath, pclatu, tosl, prodl, prodh, cstack
  3477 ;; Tracked objects:
  3478 ;;		On entry : 0/0
  3479 ;;		On exit  : 0/0
  3480 ;;		Unchanged: 0/0
  3481 ;; Data sizes:     COMRAM   BANK0   BANK1   BANK2   BANK3   BANK4   BANK5   BANK6   BANK7   BANK8   BANK9  BANK10  BANK1
      +1  BANK12  BANK13  BANK14  BANK15
  3482 ;;      Params:         0       0       0       0       0       0       0       0       0       0       0       0       
      +0       0       0       0       0
  3483 ;;      Locals:         0       0       0       0       0       0       0       0       0       0       0       0       
      +0       0       0       0       0
  3484 ;;      Temps:          0       0       0       0       0       0       0       0       0       0       0       0       
      +0       0       0       0       0
  3485 ;;      Totals:         0       0       0       0       0       0       0       0       0       0       0       0       
      +0       0       0       0       0
  3486 ;;Total ram usage:        0 bytes
  3487 ;; Hardware stack levels used: 1
  3488 ;; Hardware stack levels required when called: 2
  3489 ;; This function calls:
  3490 ;;		NULL
  3491 ;;		i2_ISR_0
  3492 ;;		i2_ISR_1
  3493 ;;		i2_ISR_2
  3494 ;; This function is called by:
  3495 ;;		_Interrupt_Manager_High
  3496 ;; This function uses a non-reentrant model
  3497 ;;
  3498                           
  3499                           	psect	text24
  3500   001A3A                     __ptext24:
  3501                           	callstack 0
  3502   001A3A                     _INT0_ISR:
  3503                           	callstack 19
  3504   001A3A                     
  3505                           ;MCAL_layer/Interrupt/external_interrupt.c: 593:     (INTCONbits.INT0IF = 0);
  3506   001A3A  92F2               	bcf	242,1,c	;volatile
  3507   001A3C                     
  3508                           ;MCAL_layer/Interrupt/external_interrupt.c: 598:     if(INT0_InterruptHandler)
  3509   001A3C  5057               	movf	_INT0_InterruptHandler^0,w,c
  3510   001A3E  1058               	iorwf	(_INT0_InterruptHandler+1)^0,w,c
  3511   001A40  B4D8               	btfsc	status,2,c
  3512   001A42  EF25  F00D         	goto	i2u199_41
  3513   001A46  EF27  F00D         	goto	i2u199_40
  3514   001A4A                     i2u199_41:
  3515   001A4A  EF33  F00D         	goto	i2l672
  3516   001A4E                     i2u199_40:
  3517   001A4E                     
  3518                           ;MCAL_layer/Interrupt/external_interrupt.c: 599:     {;MCAL_layer/Interrupt/external_int
      +                          errupt.c: 600:         INT0_InterruptHandler();
  3519   001A4E  D802               	call	i2u200_48
  3520   001A50  EF33  F00D         	goto	i2u200_49
  3521   001A54                     i2u200_48:
  3522   001A54  0005               	push	
  3523   001A56  6EFA               	movwf	pclath,c
  3524   001A58  5057               	movf	_INT0_InterruptHandler^0,w,c
  3525   001A5A  6EFD               	movwf	tosl,c
  3526   001A5C  5058               	movf	(_INT0_InterruptHandler+1)^0,w,c
  3527   001A5E  6EFE               	movwf	tosh,c
  3528   001A60  6AFF               	clrf	tosu,c
  3529   001A62  50FA               	movf	pclath,w,c
  3530   001A64  0012               	return		;indir
  3531   001A66                     i2u200_49:
  3532   001A66                     i2l672:
  3533   001A66  0012               	return		;funcret
  3534   001A68                     __end_of_INT0_ISR:
  3535                           	callstack 0
  3536                           
  3537 ;; *************** function i2_ISR_1 *****************
  3538 ;; Defined at:
  3539 ;;		line 80 in file "application.c"
  3540 ;; Parameters:    Size  Location     Type
  3541 ;;		None
  3542 ;; Auto vars:     Size  Location     Type
  3543 ;;		None
  3544 ;; Return value:  Size  Location     Type
  3545 ;;                  1    wreg      void 
  3546 ;; Registers used:
  3547 ;;		wreg, fsr2l, fsr2h, status,2, status,0, prodl, prodh, cstack
  3548 ;; Tracked objects:
  3549 ;;		On entry : 0/0
  3550 ;;		On exit  : 0/0
  3551 ;;		Unchanged: 0/0
  3552 ;; Data sizes:     COMRAM   BANK0   BANK1   BANK2   BANK3   BANK4   BANK5   BANK6   BANK7   BANK8   BANK9  BANK10  BANK1
      +1  BANK12  BANK13  BANK14  BANK15
  3553 ;;      Params:         0       0       0       0       0       0       0       0       0       0       0       0       
      +0       0       0       0       0
  3554 ;;      Locals:         0       0       0       0       0       0       0       0       0       0       0       0       
      +0       0       0       0       0
  3555 ;;      Temps:          2       0       0       0       0       0       0       0       0       0       0       0       
      +0       0       0       0       0
  3556 ;;      Totals:         2       0       0       0       0       0       0       0       0       0       0       0       
      +0       0       0       0       0
  3557 ;;Total ram usage:        2 bytes
  3558 ;; Hardware stack levels used: 1
  3559 ;; Hardware stack levels required when called: 1
  3560 ;; This function calls:
  3561 ;;		i2_gpio_pin_toggle_logic
  3562 ;; This function is called by:
  3563 ;;		_INT0_ISR
  3564 ;;		_INT1_ISR
  3565 ;;		_INT2_ISR
  3566 ;; This function uses a non-reentrant model
  3567 ;;
  3568                           
  3569                           	psect	text25
  3570   001B9C                     __ptext25:
  3571                           	callstack 0
  3572   001B9C                     i2_ISR_1:
  3573                           	callstack 19
  3574   001B9C                     
  3575                           ;application.c: 82:     ret = gpio_pin_toggle_logic(&led2);
  3576   001B9C  0E32               	movlw	low _led2
  3577   001B9E  6E34               	movwf	i2gpio_pin_toggle_logic@_pin_config^0,c
  3578   001BA0  EC3D  F00B         	call	i2_gpio_pin_toggle_logic	;wreg free
  3579   001BA4  6E69               	movwf	_ret^0,c
  3580   001BA6                     
  3581                           ;application.c: 83:     _delay((unsigned long)((250)*(8000000UL/4000.0)));
  3582   001BA6  0E03               	movlw	3
  3583   001BA8  6E3B               	movwf	(??i2_ISR_1+1)^0,c
  3584   001BAA  0E8A               	movlw	138
  3585   001BAC  6E3A               	movwf	??i2_ISR_1^0,c
  3586   001BAE  0E56               	movlw	86
  3587   001BB0                     i2u384_47:
  3588   001BB0  2EE8               	decfsz	wreg,f,c
  3589   001BB2  D7FE               	bra	i2u384_47
  3590   001BB4  2E3A               	decfsz	??i2_ISR_1^0,f,c
  3591   001BB6  D7FC               	bra	i2u384_47
  3592   001BB8  2E3B               	decfsz	(??i2_ISR_1+1)^0,f,c
  3593   001BBA  D7FA               	bra	i2u384_47
  3594   001BBC  0012               	return		;funcret
  3595   001BBE                     __end_ofi2_ISR_1:
  3596                           	callstack 0
  3597                           
  3598 ;; *************** function i2_ISR_0 *****************
  3599 ;; Defined at:
  3600 ;;		line 74 in file "application.c"
  3601 ;; Parameters:    Size  Location     Type
  3602 ;;		None
  3603 ;; Auto vars:     Size  Location     Type
  3604 ;;		None
  3605 ;; Return value:  Size  Location     Type
  3606 ;;                  1    wreg      void 
  3607 ;; Registers used:
  3608 ;;		wreg, fsr2l, fsr2h, status,2, status,0, prodl, prodh, cstack
  3609 ;; Tracked objects:
  3610 ;;		On entry : 0/0
  3611 ;;		On exit  : 0/0
  3612 ;;		Unchanged: 0/0
  3613 ;; Data sizes:     COMRAM   BANK0   BANK1   BANK2   BANK3   BANK4   BANK5   BANK6   BANK7   BANK8   BANK9  BANK10  BANK1
      +1  BANK12  BANK13  BANK14  BANK15
  3614 ;;      Params:         0       0       0       0       0       0       0       0       0       0       0       0       
      +0       0       0       0       0
  3615 ;;      Locals:         0       0       0       0       0       0       0       0       0       0       0       0       
      +0       0       0       0       0
  3616 ;;      Temps:          2       0       0       0       0       0       0       0       0       0       0       0       
      +0       0       0       0       0
  3617 ;;      Totals:         2       0       0       0       0       0       0       0       0       0       0       0       
      +0       0       0       0       0
  3618 ;;Total ram usage:        2 bytes
  3619 ;; Hardware stack levels used: 1
  3620 ;; Hardware stack levels required when called: 1
  3621 ;; This function calls:
  3622 ;;		i2_gpio_pin_toggle_logic
  3623 ;; This function is called by:
  3624 ;;		_INT0_ISR
  3625 ;;		_INT1_ISR
  3626 ;;		_INT2_ISR
  3627 ;; This function uses a non-reentrant model
  3628 ;;
  3629                           
  3630                           	psect	text26
  3631   001BBE                     __ptext26:
  3632                           	callstack 0
  3633   001BBE                     i2_ISR_0:
  3634                           	callstack 19
  3635   001BBE                     
  3636                           ;application.c: 76:     ret = gpio_pin_toggle_logic(&led1);
  3637   001BBE  0E33               	movlw	low _led1
  3638   001BC0  6E34               	movwf	i2gpio_pin_toggle_logic@_pin_config^0,c
  3639   001BC2  EC3D  F00B         	call	i2_gpio_pin_toggle_logic	;wreg free
  3640   001BC6  6E69               	movwf	_ret^0,c
  3641   001BC8                     
  3642                           ;application.c: 77:     _delay((unsigned long)((250)*(8000000UL/4000.0)));
  3643   001BC8  0E03               	movlw	3
  3644   001BCA  6E3B               	movwf	(??i2_ISR_0+1)^0,c
  3645   001BCC  0E8A               	movlw	138
  3646   001BCE  6E3A               	movwf	??i2_ISR_0^0,c
  3647   001BD0  0E56               	movlw	86
  3648   001BD2                     i2u385_47:
  3649   001BD2  2EE8               	decfsz	wreg,f,c
  3650   001BD4  D7FE               	bra	i2u385_47
  3651   001BD6  2E3A               	decfsz	??i2_ISR_0^0,f,c
  3652   001BD8  D7FC               	bra	i2u385_47
  3653   001BDA  2E3B               	decfsz	(??i2_ISR_0+1)^0,f,c
  3654   001BDC  D7FA               	bra	i2u385_47
  3655   001BDE  0012               	return		;funcret
  3656   001BE0                     __end_ofi2_ISR_0:
  3657                           	callstack 0
  3658                           
  3659 ;; *************** function i2_ISR_2 *****************
  3660 ;; Defined at:
  3661 ;;		line 86 in file "application.c"
  3662 ;; Parameters:    Size  Location     Type
  3663 ;;		None
  3664 ;; Auto vars:     Size  Location     Type
  3665 ;;		None
  3666 ;; Return value:  Size  Location     Type
  3667 ;;                  1    wreg      void 
  3668 ;; Registers used:
  3669 ;;		wreg, fsr2l, fsr2h, status,2, status,0, prodl, prodh, cstack
  3670 ;; Tracked objects:
  3671 ;;		On entry : 0/0
  3672 ;;		On exit  : 0/0
  3673 ;;		Unchanged: 0/0
  3674 ;; Data sizes:     COMRAM   BANK0   BANK1   BANK2   BANK3   BANK4   BANK5   BANK6   BANK7   BANK8   BANK9  BANK10  BANK1
      +1  BANK12  BANK13  BANK14  BANK15
  3675 ;;      Params:         0       0       0       0       0       0       0       0       0       0       0       0       
      +0       0       0       0       0
  3676 ;;      Locals:         0       0       0       0       0       0       0       0       0       0       0       0       
      +0       0       0       0       0
  3677 ;;      Temps:          2       0       0       0       0       0       0       0       0       0       0       0       
      +0       0       0       0       0
  3678 ;;      Totals:         2       0       0       0       0       0       0       0       0       0       0       0       
      +0       0       0       0       0
  3679 ;;Total ram usage:        2 bytes
  3680 ;; Hardware stack levels used: 1
  3681 ;; Hardware stack levels required when called: 1
  3682 ;; This function calls:
  3683 ;;		i2_gpio_pin_toggle_logic
  3684 ;; This function is called by:
  3685 ;;		_INT0_ISR
  3686 ;;		_INT1_ISR
  3687 ;;		_INT2_ISR
  3688 ;; This function uses a non-reentrant model
  3689 ;;
  3690                           
  3691                           	psect	text27
  3692   001BE0                     __ptext27:
  3693                           	callstack 0
  3694   001BE0                     i2_ISR_2:
  3695                           	callstack 19
  3696   001BE0                     
  3697                           ;application.c: 88:     ret = gpio_pin_toggle_logic(&led3);
  3698   001BE0  0E31               	movlw	low _led3
  3699   001BE2  6E34               	movwf	i2gpio_pin_toggle_logic@_pin_config^0,c
  3700   001BE4  EC3D  F00B         	call	i2_gpio_pin_toggle_logic	;wreg free
  3701   001BE8  6E69               	movwf	_ret^0,c
  3702   001BEA                     
  3703                           ;application.c: 89:     _delay((unsigned long)((250)*(8000000UL/4000.0)));
  3704   001BEA  0E03               	movlw	3
  3705   001BEC  6E3B               	movwf	(??i2_ISR_2+1)^0,c
  3706   001BEE  0E8A               	movlw	138
  3707   001BF0  6E3A               	movwf	??i2_ISR_2^0,c
  3708   001BF2  0E56               	movlw	86
  3709   001BF4                     i2u386_47:
  3710   001BF4  2EE8               	decfsz	wreg,f,c
  3711   001BF6  D7FE               	bra	i2u386_47
  3712   001BF8  2E3A               	decfsz	??i2_ISR_2^0,f,c
  3713   001BFA  D7FC               	bra	i2u386_47
  3714   001BFC  2E3B               	decfsz	(??i2_ISR_2+1)^0,f,c
  3715   001BFE  D7FA               	bra	i2u386_47
  3716   001C00  0012               	return		;funcret
  3717   001C02                     __end_ofi2_ISR_2:
  3718                           	callstack 0
  3719                           
  3720 ;; *************** function i2_gpio_pin_toggle_logic *****************
  3721 ;; Defined at:
  3722 ;;		line 131 in file "MCAL_layer/GPIO/gpio.c"
  3723 ;; Parameters:    Size  Location     Type
  3724 ;;  _pin_config     1    0[COMRAM] PTR const struct .
  3725 ;;		 -> led3(1), led2(1), led1(1), ecu_relay_toggle@relay_init(1), 
  3726 ;;		 -> ecu_led_toggle@_pin_config(1), 
  3727 ;; Auto vars:     Size  Location     Type
  3728 ;;  ret             1    5[COMRAM] unsigned char 
  3729 ;; Return value:  Size  Location     Type
  3730 ;;                  1    wreg      unsigned char 
  3731 ;; Registers used:
  3732 ;;		wreg, fsr2l, fsr2h, status,2, status,0, prodl, prodh
  3733 ;; Tracked objects:
  3734 ;;		On entry : 0/0
  3735 ;;		On exit  : 0/0
  3736 ;;		Unchanged: 0/0
  3737 ;; Data sizes:     COMRAM   BANK0   BANK1   BANK2   BANK3   BANK4   BANK5   BANK6   BANK7   BANK8   BANK9  BANK10  BANK1
      +1  BANK12  BANK13  BANK14  BANK15
  3738 ;;      Params:         1       0       0       0       0       0       0       0       0       0       0       0       
      +0       0       0       0       0
  3739 ;;      Locals:         1       0       0       0       0       0       0       0       0       0       0       0       
      +0       0       0       0       0
  3740 ;;      Temps:          4       0       0       0       0       0       0       0       0       0       0       0       
      +0       0       0       0       0
  3741 ;;      Totals:         6       0       0       0       0       0       0       0       0       0       0       0       
      +0       0       0       0       0
  3742 ;;Total ram usage:        6 bytes
  3743 ;; Hardware stack levels used: 1
  3744 ;; This function calls:
  3745 ;;		Nothing
  3746 ;; This function is called by:
  3747 ;;		i2_ISR_0
  3748 ;;		i2_ISR_1
  3749 ;;		i2_ISR_2
  3750 ;; This function uses a non-reentrant model
  3751 ;;
  3752                           
  3753                           	psect	text28
  3754   00167A                     __ptext28:
  3755                           	callstack 0
  3756   00167A                     i2_gpio_pin_toggle_logic:
  3757                           	callstack 19
  3758   00167A                     
  3759                           ;MCAL_layer/GPIO/gpio.c: 131: STD_ReturnType gpio_pin_toggle_logic(const pin_config *_pi
      +                          n_config);MCAL_layer/GPIO/gpio.c: 132: {;MCAL_layer/GPIO/gpio.c: 133:     STD_ReturnType
      +                           ret = (STD_ReturnType)0x01;
  3760   00167A  0E01               	movlw	1
  3761   00167C  6E39               	movwf	i2gpio_pin_toggle_logic@ret^0,c
  3762                           
  3763                           ;MCAL_layer/GPIO/gpio.c: 134:     if(((void*)0) == _pin_config || _pin_config->pin > 8 -
      +                          1)
  3764   00167E  5034               	movf	i2gpio_pin_toggle_logic@_pin_config^0,w,c
  3765   001680  B4D8               	btfsc	status,2,c
  3766   001682  EF45  F00B         	goto	i2u178_41
  3767   001686  EF47  F00B         	goto	i2u178_40
  3768   00168A                     i2u178_41:
  3769   00168A  EF57  F00B         	goto	i2l3094
  3770   00168E                     i2u178_40:
  3771   00168E  5034               	movf	i2gpio_pin_toggle_logic@_pin_config^0,w,c
  3772   001690  6ED9               	movwf	fsr2l,c
  3773   001692  6ADA               	clrf	fsr2h,c
  3774   001694  30DF               	rrcf	223,w,c
  3775   001696  32E8               	rrcf	wreg,f,c
  3776   001698  32E8               	rrcf	wreg,f,c
  3777   00169A  0B07               	andlw	7
  3778   00169C  6E35               	movwf	??i2_gpio_pin_toggle_logic^0,c
  3779   00169E  0E07               	movlw	7
  3780   0016A0  6435               	cpfsgt	??i2_gpio_pin_toggle_logic^0,c
  3781   0016A2  EF55  F00B         	goto	i2u179_41
  3782   0016A6  EF57  F00B         	goto	i2u179_40
  3783   0016AA                     i2u179_41:
  3784   0016AA  EF5B  F00B         	goto	i2l3096
  3785   0016AE                     i2u179_40:
  3786   0016AE                     i2l3094:
  3787                           
  3788                           ;MCAL_layer/GPIO/gpio.c: 135:     {;MCAL_layer/GPIO/gpio.c: 136:         ret = (STD_Retu
      +                          rnType)0x00;
  3789   0016AE  0E00               	movlw	0
  3790   0016B0  6E39               	movwf	i2gpio_pin_toggle_logic@ret^0,c
  3791                           
  3792                           ;MCAL_layer/GPIO/gpio.c: 137:     }
  3793   0016B2  EF81  F00B         	goto	i2l3098
  3794   0016B6                     i2l3096:
  3795                           
  3796                           ;MCAL_layer/GPIO/gpio.c: 139:     {;MCAL_layer/GPIO/gpio.c: 140:         (*port_register
      +                          s[_pin_config->port] ^= ((uint8)1 << _pin_config->pin));
  3797   0016B6  5034               	movf	i2gpio_pin_toggle_logic@_pin_config^0,w,c
  3798   0016B8  6ED9               	movwf	fsr2l,c
  3799   0016BA  6ADA               	clrf	fsr2h,c
  3800   0016BC  30DF               	rrcf	223,w,c
  3801   0016BE  32E8               	rrcf	wreg,f,c
  3802   0016C0  32E8               	rrcf	wreg,f,c
  3803   0016C2  0B07               	andlw	7
  3804   0016C4  6E35               	movwf	??i2_gpio_pin_toggle_logic^0,c
  3805   0016C6  0E01               	movlw	1
  3806   0016C8  6E36               	movwf	(??i2_gpio_pin_toggle_logic+1)^0,c
  3807   0016CA  2A35               	incf	??i2_gpio_pin_toggle_logic^0,f,c
  3808   0016CC  EF6A  F00B         	goto	i2u180_44
  3809   0016D0                     i2u180_45:
  3810   0016D0  90D8               	bcf	status,0,c
  3811   0016D2  3636               	rlcf	(??i2_gpio_pin_toggle_logic+1)^0,f,c
  3812   0016D4                     i2u180_44:
  3813   0016D4  2E35               	decfsz	??i2_gpio_pin_toggle_logic^0,f,c
  3814   0016D6  EF68  F00B         	goto	i2u180_45
  3815   0016DA  5034               	movf	i2gpio_pin_toggle_logic@_pin_config^0,w,c
  3816   0016DC  6ED9               	movwf	fsr2l,c
  3817   0016DE  6ADA               	clrf	fsr2h,c
  3818   0016E0  50DF               	movf	223,w,c
  3819   0016E2  0B07               	andlw	7
  3820   0016E4  0D02               	mullw	2
  3821   0016E6  50F3               	movf	243,w,c
  3822   0016E8  0F01               	addlw	low _port_registers
  3823   0016EA  6ED9               	movwf	fsr2l,c
  3824   0016EC  6ADA               	clrf	fsr2h,c
  3825   0016EE  CFDE F037          	movff	postinc2,??i2_gpio_pin_toggle_logic+2
  3826   0016F2  CFDD F038          	movff	postdec2,??i2_gpio_pin_toggle_logic+3
  3827   0016F6  C037  FFD9         	movff	??i2_gpio_pin_toggle_logic+2,fsr2l
  3828   0016FA  C038  FFDA         	movff	??i2_gpio_pin_toggle_logic+3,fsr2h
  3829   0016FE  5036               	movf	(??i2_gpio_pin_toggle_logic+1)^0,w,c
  3830   001700  1ADF               	xorwf	indf2,f,c
  3831   001702                     i2l3098:
  3832                           
  3833                           ;MCAL_layer/GPIO/gpio.c: 143:     return ret;
  3834   001702  5039               	movf	i2gpio_pin_toggle_logic@ret^0,w,c
  3835   001704  0012               	return		;funcret
  3836   001706                     __end_ofi2_gpio_pin_toggle_logic:
  3837                           	callstack 0
  3838                           
  3839                           	psect	rparam
  3840   000000                     
  3841                           	psect	temp
  3842   00006A                     btemp:
  3843                           	callstack 0
  3844   00006A                     	ds	1
  3845   000000                     int$flags	set	btemp
  3846   000000                     wtemp8	set	btemp+1
  3847   000000                     ttemp5	set	btemp+1
  3848   000000                     ttemp6	set	btemp+4
  3849   000000                     ttemp7	set	btemp+8
  3850                           
  3851                           	psect	config
  3852                           
  3853                           ; Padding undefined space
  3854   300000                     	org	3145728
  3855   300000  FF                 	db	255
  3856                           
  3857                           ;Config register CONFIG1H @ 0x300001
  3858                           ;	Oscillator Selection bits
  3859                           ;	OSC = HS, HS oscillator
  3860                           ;	Fail-Safe Clock Monitor Enable bit
  3861                           ;	FCMEN = OFF, Fail-Safe Clock Monitor disabled
  3862                           ;	Internal/External Oscillator Switchover bit
  3863                           ;	IESO = OFF, Oscillator Switchover mode disabled
  3864   300001                     	org	3145729
  3865   300001  02                 	db	2
  3866                           
  3867                           ;Config register CONFIG2L @ 0x300002
  3868                           ;	Power-up Timer Enable bit
  3869                           ;	PWRT = OFF, PWRT disabled
  3870                           ;	Brown-out Reset Enable bits
  3871                           ;	BOREN = SBORDIS, Brown-out Reset enabled in hardware only (SBOREN is disabled)
  3872                           ;	Brown Out Reset Voltage bits
  3873                           ;	BORV = 3, Minimum setting
  3874   300002                     	org	3145730
  3875   300002  1F                 	db	31
  3876                           
  3877                           ;Config register CONFIG2H @ 0x300003
  3878                           ;	Watchdog Timer Enable bit
  3879                           ;	WDT = OFF, WDT disabled (control is placed on the SWDTEN bit)
  3880                           ;	Watchdog Timer Postscale Select bits
  3881                           ;	WDTPS = 32768, 1:32768
  3882   300003                     	org	3145731
  3883   300003  1E                 	db	30
  3884                           
  3885                           ; Padding undefined space
  3886   300004                     	org	3145732
  3887   300004  FF                 	db	255
  3888                           
  3889                           ;Config register CONFIG3H @ 0x300005
  3890                           ;	CCP2 MUX bit
  3891                           ;	CCP2MX = PORTC, CCP2 input/output is multiplexed with RC1
  3892                           ;	PORTB A/D Enable bit
  3893                           ;	PBADEN = OFF, PORTB<4:0> pins are configured as digital I/O on Reset
  3894                           ;	Low-Power Timer1 Oscillator Enable bit
  3895                           ;	LPT1OSC = OFF, Timer1 configured for higher power operation
  3896                           ;	MCLR Pin Enable bit
  3897                           ;	MCLRE = ON, MCLR pin enabled; RE3 input pin disabled
  3898   300005                     	org	3145733
  3899   300005  81                 	db	129
  3900                           
  3901                           ;Config register CONFIG4L @ 0x300006
  3902                           ;	Stack Full/Underflow Reset Enable bit
  3903                           ;	STVREN = ON, Stack full/underflow will cause Reset
  3904                           ;	Single-Supply ICSP Enable bit
  3905                           ;	LVP = OFF, Single-Supply ICSP disabled
  3906                           ;	Extended Instruction Set Enable bit
  3907                           ;	XINST = OFF, Instruction set extension and Indexed Addressing mode disabled (Legacy mo
      +                          de)
  3908                           ;	Background Debugger Enable bit
  3909                           ;	DEBUG = 0x1, unprogrammed default
  3910   300006                     	org	3145734
  3911   300006  81                 	db	129
  3912                           
  3913                           ; Padding undefined space
  3914   300007                     	org	3145735
  3915   300007  FF                 	db	255
  3916                           
  3917                           ;Config register CONFIG5L @ 0x300008
  3918                           ;	Code Protection bit
  3919                           ;	CP0 = OFF, Block 0 (000800-003FFFh) not code-protected
  3920                           ;	Code Protection bit
  3921                           ;	CP1 = OFF, Block 1 (004000-007FFFh) not code-protected
  3922                           ;	Code Protection bit
  3923                           ;	CP2 = OFF, Block 2 (008000-00BFFFh) not code-protected
  3924                           ;	Code Protection bit
  3925                           ;	CP3 = OFF, Block 3 (00C000-00FFFFh) not code-protected
  3926   300008                     	org	3145736
  3927   300008  0F                 	db	15
  3928                           
  3929                           ;Config register CONFIG5H @ 0x300009
  3930                           ;	Boot Block Code Protection bit
  3931                           ;	CPB = OFF, Boot block (000000-0007FFh) not code-protected
  3932                           ;	Data EEPROM Code Protection bit
  3933                           ;	CPD = OFF, Data EEPROM not code-protected
  3934   300009                     	org	3145737
  3935   300009  C0                 	db	192
  3936                           
  3937                           ;Config register CONFIG6L @ 0x30000A
  3938                           ;	Write Protection bit
  3939                           ;	WRT0 = OFF, Block 0 (000800-003FFFh) not write-protected
  3940                           ;	Write Protection bit
  3941                           ;	WRT1 = OFF, Block 1 (004000-007FFFh) not write-protected
  3942                           ;	Write Protection bit
  3943                           ;	WRT2 = OFF, Block 2 (008000-00BFFFh) not write-protected
  3944                           ;	Write Protection bit
  3945                           ;	WRT3 = OFF, Block 3 (00C000-00FFFFh) not write-protected
  3946   30000A                     	org	3145738
  3947   30000A  0F                 	db	15
  3948                           
  3949                           ;Config register CONFIG6H @ 0x30000B
  3950                           ;	Configuration Register Write Protection bit
  3951                           ;	WRTC = OFF, Configuration registers (300000-3000FFh) not write-protected
  3952                           ;	Boot Block Write Protection bit
  3953                           ;	WRTB = OFF, Boot Block (000000-0007FFh) not write-protected
  3954                           ;	Data EEPROM Write Protection bit
  3955                           ;	WRTD = OFF, Data EEPROM not write-protected
  3956   30000B                     	org	3145739
  3957   30000B  E0                 	db	224
  3958                           
  3959                           ;Config register CONFIG7L @ 0x30000C
  3960                           ;	Table Read Protection bit
  3961                           ;	EBTR0 = OFF, Block 0 (000800-003FFFh) not protected from table reads executed in other
      +                           blocks
  3962                           ;	Table Read Protection bit
  3963                           ;	EBTR1 = OFF, Block 1 (004000-007FFFh) not protected from table reads executed in other
      +                           blocks
  3964                           ;	Table Read Protection bit
  3965                           ;	EBTR2 = OFF, Block 2 (008000-00BFFFh) not protected from table reads executed in other
      +                           blocks
  3966                           ;	Table Read Protection bit
  3967                           ;	EBTR3 = OFF, Block 3 (00C000-00FFFFh) not protected from table reads executed in other
      +                           blocks
  3968   30000C                     	org	3145740
  3969   30000C  0F                 	db	15
  3970                           
  3971                           ;Config register CONFIG7H @ 0x30000D
  3972                           ;	Boot Block Table Read Protection bit
  3973                           ;	EBTRB = OFF, Boot Block (000000-0007FFh) not protected from table reads executed in ot
      +                          her blocks
  3974   30000D                     	org	3145741
  3975   30000D  40                 	db	64
  3976                           tosu	equ	0xFFF
  3977                           tosh	equ	0xFFE
  3978                           tosl	equ	0xFFD
  3979                           stkptr	equ	0xFFC
  3980                           pclatu	equ	0xFFB
  3981                           pclath	equ	0xFFA
  3982                           pcl	equ	0xFF9
  3983                           tblptru	equ	0xFF8
  3984                           tblptrh	equ	0xFF7
  3985                           tblptrl	equ	0xFF6
  3986                           tablat	equ	0xFF5
  3987                           prodh	equ	0xFF4
  3988                           prodl	equ	0xFF3
  3989                           indf0	equ	0xFEF
  3990                           postinc0	equ	0xFEE
  3991                           postdec0	equ	0xFED
  3992                           preinc0	equ	0xFEC
  3993                           plusw0	equ	0xFEB
  3994                           fsr0h	equ	0xFEA
  3995                           fsr0l	equ	0xFE9
  3996                           wreg	equ	0xFE8
  3997                           indf1	equ	0xFE7
  3998                           postinc1	equ	0xFE6
  3999                           postdec1	equ	0xFE5
  4000                           preinc1	equ	0xFE4
  4001                           plusw1	equ	0xFE3
  4002                           fsr1h	equ	0xFE2
  4003                           fsr1l	equ	0xFE1
  4004                           bsr	equ	0xFE0
  4005                           indf2	equ	0xFDF
  4006                           postinc2	equ	0xFDE
  4007                           postdec2	equ	0xFDD
  4008                           preinc2	equ	0xFDC
  4009                           plusw2	equ	0xFDB
  4010                           fsr2h	equ	0xFDA
  4011                           fsr2l	equ	0xFD9
  4012                           status	equ	0xFD8

Data Sizes:
    Strings     3
    Constant    16
    Data        51
    BSS         22
    Persistent  1
    Stack       0

Auto Spaces:
    Space          Size  Autos    Used
    COMRAM          126     31     105
    BANK0           128     11      11
    BANK1           256      0       0
    BANK2           256      0       0
    BANK3           256      0       0
    BANK4           256      0       0
    BANK5           256      0       0
    BANK6           256      0       0
    BANK7           256      0       0
    BANK8           256      0       0
    BANK9           256      0       0
    BANK10          256      0       0
    BANK11          256      0       0
    BANK12          256      0       0
    BANK13          256      0       0
    BANK14          256      0       0
    BANK15          128      0       0

Pointer List with Targets:

    f$.$buffer	PTR unsigned char  size(2) Largest target is 0

    f$.$source	PTR const unsigned char  size(2) Largest target is 0

    gpio_pin_direction_init@_pin_config	PTR const struct . size(1) Largest target is 6
		 -> ecu_dc_motor_initializ@dc_motor_pin_1(COMRAM[1]), ecu_dc_motor_initializ@dc_motor_pin_2(COMRAM[1]), ecu_led_initializ@_pin_config(COMRAM[1]), ecu_relay_initializ@relay_init(COMRAM[1]), 
		 -> int1_obj(COMRAM[6]), int2_obj(COMRAM[6]), into_obj(COMRAM[6]), led1(COMRAM[1]), 
		 -> led2(COMRAM[1]), led3(COMRAM[1]), 

    gpio_pin_Initialization@_pin_config	PTR const struct . size(1) Largest target is 1
		 -> ecu_dc_motor_initializ@dc_motor_pin_1(COMRAM[1]), ecu_dc_motor_initializ@dc_motor_pin_2(COMRAM[1]), ecu_led_initializ@_pin_config(COMRAM[1]), ecu_relay_initializ@relay_init(COMRAM[1]), 
		 -> led1(COMRAM[1]), led2(COMRAM[1]), led3(COMRAM[1]), 

    gpio_pin_toggle_logic@_pin_config	PTR const struct . size(1) Largest target is 1
		 -> ecu_led_toggle@_pin_config(COMRAM[1]), ecu_relay_toggle@relay_init(COMRAM[1]), led1(COMRAM[1]), led2(COMRAM[1]), 
		 -> led3(COMRAM[1]), 

    gpio_pin_write_logic@_pin_config	PTR const struct . size(1) Largest target is 1
		 -> ecu_dc_motor_initializ@dc_motor_pin_1(COMRAM[1]), ecu_dc_motor_initializ@dc_motor_pin_2(COMRAM[1]), ecu_dc_motor_move_left@dc_motor_pin_1(COMRAM[1]), ecu_dc_motor_move_left@dc_motor_pin_2(COMRAM[1]), 
		 -> ecu_dc_motor_move_right@dc_motor_pin_1(COMRAM[1]), ecu_dc_motor_move_right@dc_motor_pin_2(COMRAM[1]), ecu_dc_motor_stop@dc_motor_pin_1(COMRAM[1]), ecu_dc_motor_stop@dc_motor_pin_2(COMRAM[1]), 
		 -> ecu_led_initializ@_pin_config(COMRAM[1]), ecu_led_turn_off@_pin_config(COMRAM[1]), ecu_led_turn_on@_pin_config(COMRAM[1]), ecu_relay_initializ@relay_init(COMRAM[1]), 
		 -> ecu_relay_turn_off@relay_init(COMRAM[1]), ecu_relay_turn_on@relay_init(COMRAM[1]), led1(COMRAM[1]), led2(COMRAM[1]), 
		 -> led3(COMRAM[1]), 

    INT0_Interrupt_Handler@Interrupt_Handler	PTR FTN()void  size(2) Largest target is 1
		 -> i2_ISR_0(), i2_ISR_1(), i2_ISR_2(), ISR_0(), 
		 -> ISR_1(), ISR_2(), 

    INT0_InterruptHandler	PTR FTN()void  size(2) Largest target is 1
		 -> i2_ISR_0(), i2_ISR_1(), i2_ISR_2(), ISR_0(), 
		 -> ISR_1(), ISR_2(), NULL(), 

    INT1_Interrupt_Handler@Interrupt_Handler	PTR FTN()void  size(2) Largest target is 1
		 -> i2_ISR_0(), i2_ISR_1(), i2_ISR_2(), ISR_0(), 
		 -> ISR_1(), ISR_2(), 

    INT1_InterruptHandler	PTR FTN()void  size(2) Largest target is 1
		 -> i2_ISR_0(), i2_ISR_1(), i2_ISR_2(), ISR_0(), 
		 -> ISR_1(), ISR_2(), NULL(), 

    int1_obj$EXTERNAL_INTERRUPT_CALLBACK	PTR FTN()void  size(2) Largest target is 1
		 -> i2_ISR_1(), ISR_0(), ISR_1(), ISR_2(), 

    INT2_Interrupt_Handler@Interrupt_Handler	PTR FTN()void  size(2) Largest target is 1
		 -> i2_ISR_0(), i2_ISR_1(), i2_ISR_2(), ISR_0(), 
		 -> ISR_1(), ISR_2(), 

    INT2_InterruptHandler	PTR FTN()void  size(2) Largest target is 1
		 -> i2_ISR_0(), i2_ISR_1(), i2_ISR_2(), ISR_0(), 
		 -> ISR_1(), ISR_2(), NULL(), 

    int2_obj$EXTERNAL_INTERRUPT_CALLBACK	PTR FTN()void  size(2) Largest target is 1
		 -> i2_ISR_2(), ISR_0(), ISR_1(), ISR_2(), 

    Interrupt_INTx_Clear_Flag@_interrupt_INTx	PTR const struct . size(1) Largest target is 6
		 -> int1_obj(COMRAM[6]), int2_obj(COMRAM[6]), into_obj(COMRAM[6]), 

    Interrupt_INTx_Clear_Flag@_interrupt_INTx$EXTERNAL_INTERRUPT_CALLBACK	PTR FTN()void  size(2) Largest target is 1
		 -> ISR_0(), ISR_1(), ISR_2(), 

    Interrupt_INTx_Disable@_interrupt_INTx	PTR const struct . size(1) Largest target is 6
		 -> int1_obj(COMRAM[6]), int2_obj(COMRAM[6]), into_obj(COMRAM[6]), 

    Interrupt_INTx_Disable@_interrupt_INTx$EXTERNAL_INTERRUPT_CALLBACK	PTR FTN()void  size(2) Largest target is 1
		 -> ISR_0(), ISR_1(), ISR_2(), 

    Interrupt_INTx_Edge_init@_interrupt_INTx	PTR const struct . size(1) Largest target is 6
		 -> int1_obj(COMRAM[6]), int2_obj(COMRAM[6]), into_obj(COMRAM[6]), 

    Interrupt_INTx_Edge_init@_interrupt_INTx$EXTERNAL_INTERRUPT_CALLBACK	PTR FTN()void  size(2) Largest target is 1
		 -> ISR_0(), ISR_1(), ISR_2(), 

    Interrupt_INTx_Enable@_interrupt_INTx	PTR const struct . size(1) Largest target is 6
		 -> int1_obj(COMRAM[6]), int2_obj(COMRAM[6]), into_obj(COMRAM[6]), 

    Interrupt_INTx_Enable@_interrupt_INTx$EXTERNAL_INTERRUPT_CALLBACK	PTR FTN()void  size(2) Largest target is 1
		 -> ISR_0(), ISR_1(), ISR_2(), 

    Interrupt_INTx_init@_interrupt_INTx	PTR const struct . size(1) Largest target is 6
		 -> int1_obj(COMRAM[6]), int2_obj(COMRAM[6]), into_obj(COMRAM[6]), 

    Interrupt_INTx_Pin_init@_interrupt_INTx	PTR const struct . size(1) Largest target is 6
		 -> int1_obj(COMRAM[6]), int2_obj(COMRAM[6]), into_obj(COMRAM[6]), 

    Interrupt_INTx_Pin_init@_interrupt_INTx$EXTERNAL_INTERRUPT_CALLBACK	PTR FTN()void  size(2) Largest target is 1
		 -> ISR_0(), ISR_1(), ISR_2(), 

    Interrupt_INTx_Priority_init@_interrupt_INTx	PTR const struct . size(1) Largest target is 6
		 -> int1_obj(COMRAM[6]), int2_obj(COMRAM[6]), into_obj(COMRAM[6]), 

    Interrupt_INTx_Priority_init@_interrupt_INTx$EXTERNAL_INTERRUPT_CALLBACK	PTR FTN()void  size(2) Largest target is 1
		 -> ISR_0(), ISR_1(), ISR_2(), 

    into_obj$EXTERNAL_INTERRUPT_CALLBACK	PTR FTN()void  size(2) Largest target is 1
		 -> i2_ISR_0(), ISR_0(), ISR_1(), ISR_2(), 

    INTx_Set_Interrupt_Handler@_interrupt_INTx	PTR const struct . size(1) Largest target is 6
		 -> int1_obj(COMRAM[6]), int2_obj(COMRAM[6]), into_obj(COMRAM[6]), 

    INTx_Set_Interrupt_Handler@_interrupt_INTx$EXTERNAL_INTERRUPT_CALLBACK	PTR FTN()void  size(2) Largest target is 1
		 -> ISR_0(), ISR_1(), ISR_2(), 

    lat_registers	PTR volatile unsigned char [5] size(2) Largest target is 1
		 -> LATA(BITBIGSFRll[1]), LATB(BITBIGSFRlh[1]), LATC(BITBIGSFRlh[1]), LATD(BITBIGSFRlh[1]), 
		 -> LATE(BITBIGSFRlh[1]), 

    port_registers	PTR volatile unsigned char [5] size(2) Largest target is 1
		 -> PORTA(BITBIGSFRll[1]), PORTB(BITBIGSFRll[1]), PORTC(BITBIGSFRll[1]), PORTD(BITBIGSFRll[1]), 
		 -> PORTE(BITBIGSFRll[1]), 

    S1905$buffer	PTR unsigned char  size(2) Largest target is 0

    S1905$source	PTR const unsigned char  size(2) Largest target is 0

    S852$EXTERNAL_INTERRUPT_CALLBACK	PTR FTN()void  size(2) Largest target is 1
		 -> ISR_0(), ISR_1(), ISR_2(), 

    sp__memset	PTR void  size(2) Largest target is 0

    tris_registers	PTR volatile unsigned char [5] size(2) Largest target is 1
		 -> TRISA(BITBIGSFRll[1]), TRISB(BITBIGSFRhl[1]), TRISC(BITBIGSFRhl[1]), TRISD(BITBIGSFRhl[1]), 
		 -> TRISE(BITBIGSFRhl[1]), 

    vfprintf$0	PTR struct _IO_FILE size(1) Largest target is 12
		 -> sprintf@f(COMRAM[12]), 

    vfprintf$1	PTR const unsigned char  size(1) Largest target is 3
		 -> STR_1(CODE[3]), STR_2(CODE[3]), STR_3(CODE[3]), 

    vfprintf$2	PTR PTR void  size(1) Largest target is 1
		 -> sprintf@ap(COMRAM[1]), 


Critical Paths under _main in COMRAM

    None.

Critical Paths under _Interrupt_Manager_Low in COMRAM

    _INT1_ISR->_ISR_0
    _INT1_ISR->_ISR_1
    _INT1_ISR->_ISR_2
    _ISR_2->_gpio_pin_toggle_logic
    _ISR_1->_gpio_pin_toggle_logic
    _ISR_0->_gpio_pin_toggle_logic

Critical Paths under _Interrupt_Manager_High in COMRAM

    _INT2_ISR->i2_ISR_0
    _INT2_ISR->i2_ISR_1
    _INT2_ISR->i2_ISR_2
    _INT0_ISR->i2_ISR_0
    _INT0_ISR->i2_ISR_1
    _INT0_ISR->i2_ISR_2
    i2_ISR_2->i2_gpio_pin_toggle_logic
    i2_ISR_1->i2_gpio_pin_toggle_logic
    i2_ISR_0->i2_gpio_pin_toggle_logic

Critical Paths under _main in BANK0

    _application_initializ->_Interrupt_INTx_init
    _application_initializ->_gpio_pin_Initialization
    _gpio_pin_Initialization->_gpio_pin_write_logic
    _Interrupt_INTx_init->_Interrupt_INTx_Pin_init
    _Interrupt_INTx_Pin_init->_gpio_pin_direction_init
    _INTx_Set_Interrupt_Handler->_INT0_Interrupt_Handler
    _INTx_Set_Interrupt_Handler->_INT1_Interrupt_Handler
    _INTx_Set_Interrupt_Handler->_INT2_Interrupt_Handler

Critical Paths under _Interrupt_Manager_Low in BANK0

    None.

Critical Paths under _Interrupt_Manager_High in BANK0

    None.

Critical Paths under _main in BANK1

    None.

Critical Paths under _Interrupt_Manager_Low in BANK1

    None.

Critical Paths under _Interrupt_Manager_High in BANK1

    None.

Critical Paths under _main in BANK2

    None.

Critical Paths under _Interrupt_Manager_Low in BANK2

    None.

Critical Paths under _Interrupt_Manager_High in BANK2

    None.

Critical Paths under _main in BANK3

    None.

Critical Paths under _Interrupt_Manager_Low in BANK3

    None.

Critical Paths under _Interrupt_Manager_High in BANK3

    None.

Critical Paths under _main in BANK4

    None.

Critical Paths under _Interrupt_Manager_Low in BANK4

    None.

Critical Paths under _Interrupt_Manager_High in BANK4

    None.

Critical Paths under _main in BANK5

    None.

Critical Paths under _Interrupt_Manager_Low in BANK5

    None.

Critical Paths under _Interrupt_Manager_High in BANK5

    None.

Critical Paths under _main in BANK6

    None.

Critical Paths under _Interrupt_Manager_Low in BANK6

    None.

Critical Paths under _Interrupt_Manager_High in BANK6

    None.

Critical Paths under _main in BANK7

    None.

Critical Paths under _Interrupt_Manager_Low in BANK7

    None.

Critical Paths under _Interrupt_Manager_High in BANK7

    None.

Critical Paths under _main in BANK8

    None.

Critical Paths under _Interrupt_Manager_Low in BANK8

    None.

Critical Paths under _Interrupt_Manager_High in BANK8

    None.

Critical Paths under _main in BANK9

    None.

Critical Paths under _Interrupt_Manager_Low in BANK9

    None.

Critical Paths under _Interrupt_Manager_High in BANK9

    None.

Critical Paths under _main in BANK10

    None.

Critical Paths under _Interrupt_Manager_Low in BANK10

    None.

Critical Paths under _Interrupt_Manager_High in BANK10

    None.

Critical Paths under _main in BANK11

    None.

Critical Paths under _Interrupt_Manager_Low in BANK11

    None.

Critical Paths under _Interrupt_Manager_High in BANK11

    None.

Critical Paths under _main in BANK12

    None.

Critical Paths under _Interrupt_Manager_Low in BANK12

    None.

Critical Paths under _Interrupt_Manager_High in BANK12

    None.

Critical Paths under _main in BANK13

    None.

Critical Paths under _Interrupt_Manager_Low in BANK13

    None.

Critical Paths under _Interrupt_Manager_High in BANK13

    None.

Critical Paths under _main in BANK14

    None.

Critical Paths under _Interrupt_Manager_Low in BANK14

    None.

Critical Paths under _Interrupt_Manager_High in BANK14

    None.

Critical Paths under _main in BANK15

    None.

Critical Paths under _Interrupt_Manager_Low in BANK15

    None.

Critical Paths under _Interrupt_Manager_High in BANK15

    None.

Call Graph Tables:

 ---------------------------------------------------------------------------------
 (Depth) Function   	        Calls       Base Space   Used Autos Params    Refs
 ---------------------------------------------------------------------------------
 (0) _main                                                 0     0      0   11155
              _application_initializ
 ---------------------------------------------------------------------------------
 (1) _application_initializ                                0     0      0   11155
                _Interrupt_INTx_init
            _gpio_pin_Initialization
 ---------------------------------------------------------------------------------
 (2) _gpio_pin_Initialization                              3     2      1    7732
                                              8 BANK0      3     2      1
            _gpio_pin_direction_init
               _gpio_pin_write_logic
 ---------------------------------------------------------------------------------
 (3) _gpio_pin_write_logic                                 8     6      2    5297
                                              0 BANK0      8     6      2
 ---------------------------------------------------------------------------------
 (2) _Interrupt_INTx_init                                  2     1      1    3423
                                              9 BANK0      2     1      1
         _INTx_Set_Interrupt_Handler
          _Interrupt_INTx_Clear_Flag
             _Interrupt_INTx_Disable
           _Interrupt_INTx_Edge_init
              _Interrupt_INTx_Enable
            _Interrupt_INTx_Pin_init
       _Interrupt_INTx_Priority_init
 ---------------------------------------------------------------------------------
 (3) _Interrupt_INTx_Priority_init                         4     3      1     254
                                              0 BANK0      4     3      1
 ---------------------------------------------------------------------------------
 (3) _Interrupt_INTx_Pin_init                              2     1      1     719
                                              7 BANK0      2     1      1
            _gpio_pin_direction_init
 ---------------------------------------------------------------------------------
 (3) _gpio_pin_direction_init                              7     6      1     527
                                              0 BANK0      7     6      1
 ---------------------------------------------------------------------------------
 (3) _Interrupt_INTx_Enable                                4     3      1     254
                                              0 BANK0      4     3      1
 ---------------------------------------------------------------------------------
 (3) _Interrupt_INTx_Edge_init                             4     3      1     285
                                              0 BANK0      4     3      1
 ---------------------------------------------------------------------------------
 (3) _Interrupt_INTx_Disable                               4     3      1     282
                                              0 BANK0      4     3      1
 ---------------------------------------------------------------------------------
 (3) _Interrupt_INTx_Clear_Flag                            4     3      1     192
                                              0 BANK0      4     3      1
 ---------------------------------------------------------------------------------
 (3) _INTx_Set_Interrupt_Handler                           4     3      1     861
                                              3 BANK0      4     3      1
             _INT0_Interrupt_Handler
             _INT1_Interrupt_Handler
             _INT2_Interrupt_Handler
 ---------------------------------------------------------------------------------
 (4) _INT2_Interrupt_Handler                               3     1      2     189
                                              0 BANK0      3     1      2
 ---------------------------------------------------------------------------------
 (4) _INT1_Interrupt_Handler                               3     1      2     189
                                              0 BANK0      3     1      2
 ---------------------------------------------------------------------------------
 (4) _INT0_Interrupt_Handler                               3     1      2     189
                                              0 BANK0      3     1      2
 ---------------------------------------------------------------------------------
 Estimated maximum stack depth 4
 ---------------------------------------------------------------------------------
 (Depth) Function   	        Calls       Base Space   Used Autos Params    Refs
 ---------------------------------------------------------------------------------
 (5) _Interrupt_Manager_Low                                9     9      0    1476
                                             22 COMRAM     9     9      0
                           _INT1_ISR
 ---------------------------------------------------------------------------------
 (6) _INT1_ISR                                             0     0      0    1476
                                NULL *
                              _ISR_0 *
                              _ISR_1 *
                              _ISR_2 *
 ---------------------------------------------------------------------------------
 (7) _ISR_2                                                2     2      0     492
                                             20 COMRAM     2     2      0
              _gpio_pin_toggle_logic
 ---------------------------------------------------------------------------------
 (7) _ISR_1                                                2     2      0     492
                                             20 COMRAM     2     2      0
              _gpio_pin_toggle_logic
 ---------------------------------------------------------------------------------
 (7) _ISR_0                                                2     2      0     492
                                             20 COMRAM     2     2      0
              _gpio_pin_toggle_logic
 ---------------------------------------------------------------------------------
 (8) _gpio_pin_toggle_logic                                6     5      1     492
                                             14 COMRAM     6     5      1
 ---------------------------------------------------------------------------------
 (11) NULL(Fake)                                           0     0      0       0
 ---------------------------------------------------------------------------------
 Estimated maximum stack depth 11
 ---------------------------------------------------------------------------------
 (Depth) Function   	        Calls       Base Space   Used Autos Params    Refs
 ---------------------------------------------------------------------------------
 (9) _Interrupt_Manager_High                               6     6      0    1140
                                              8 COMRAM     6     6      0
                           _INT0_ISR
                           _INT2_ISR
 ---------------------------------------------------------------------------------
 (10) _INT2_ISR                                            0     0      0     570
                                NULL *
                            i2_ISR_0 *
                            i2_ISR_1 *
                            i2_ISR_2 *
 ---------------------------------------------------------------------------------
 (10) _INT0_ISR                                            0     0      0     570
                                NULL *
                            i2_ISR_0 *
                            i2_ISR_1 *
                            i2_ISR_2 *
 ---------------------------------------------------------------------------------
 (11) i2_ISR_2                                             2     2      0     190
                                              6 COMRAM     2     2      0
            i2_gpio_pin_toggle_logic
 ---------------------------------------------------------------------------------
 (11) i2_ISR_1                                             2     2      0     190
                                              6 COMRAM     2     2      0
            i2_gpio_pin_toggle_logic
 ---------------------------------------------------------------------------------
 (11) i2_ISR_0                                             2     2      0     190
                                              6 COMRAM     2     2      0
            i2_gpio_pin_toggle_logic
 ---------------------------------------------------------------------------------
 (12) i2_gpio_pin_toggle_logic                             6     5      1     190
                                              0 COMRAM     6     5      1
 ---------------------------------------------------------------------------------
 (11) NULL(Fake)                                           0     0      0       0
 ---------------------------------------------------------------------------------
 Estimated maximum stack depth 12
 ---------------------------------------------------------------------------------

 Call Graph Graphs:

 _main (ROOT)
   _application_initializ
     _Interrupt_INTx_init
       _INTx_Set_Interrupt_Handler
         _INT0_Interrupt_Handler
         _INT1_Interrupt_Handler
         _INT2_Interrupt_Handler
       _Interrupt_INTx_Clear_Flag
       _Interrupt_INTx_Disable
       _Interrupt_INTx_Edge_init
       _Interrupt_INTx_Enable
       _Interrupt_INTx_Pin_init
         _gpio_pin_direction_init
       _Interrupt_INTx_Priority_init
     _gpio_pin_Initialization
       _gpio_pin_direction_init
       _gpio_pin_write_logic

 _Interrupt_Manager_Low (ROOT)
   _INT1_ISR
     NULL(Fake) *
     _ISR_0 *
       _gpio_pin_toggle_logic
     _ISR_1 *
       _gpio_pin_toggle_logic
     _ISR_2 *
       _gpio_pin_toggle_logic

 _Interrupt_Manager_High (ROOT)
   _INT0_ISR
     NULL(Fake) *
     i2_ISR_0 *
       i2_gpio_pin_toggle_logic
     i2_ISR_1 *
       i2_gpio_pin_toggle_logic
     i2_ISR_2 *
       i2_gpio_pin_toggle_logic
   _INT2_ISR
     NULL(Fake) *
     i2_ISR_0 *
     i2_ISR_1 *
     i2_ISR_2 *

 Address spaces:
Name               Size   Autos  Total    Cost      Usage
BIGRAM             F7F      0       0      42        0.0%
EEDATA             400      0       0       0        0.0%
BITBANK14          100      0       0      32        0.0%
BANK14             100      0       0      33        0.0%
BITBANK13          100      0       0      30        0.0%
BANK13             100      0       0      31        0.0%
BITBANK12          100      0       0      28        0.0%
BANK12             100      0       0      29        0.0%
BITBANK11          100      0       0      26        0.0%
BANK11             100      0       0      27        0.0%
BITBANK10          100      0       0      24        0.0%
BANK10             100      0       0      25        0.0%
BITBANK9           100      0       0      22        0.0%
BANK9              100      0       0      23        0.0%
BITBANK8           100      0       0      20        0.0%
BANK8              100      0       0      21        0.0%
BITBANK7           100      0       0      18        0.0%
BANK7              100      0       0      19        0.0%
BITBANK6           100      0       0      16        0.0%
BANK6              100      0       0      17        0.0%
BITBANK5           100      0       0      14        0.0%
BANK5              100      0       0      15        0.0%
BITBANK4           100      0       0      12        0.0%
BANK4              100      0       0      13        0.0%
BITBANK3           100      0       0      10        0.0%
BANK3              100      0       0      11        0.0%
BITBANK2           100      0       0       8        0.0%
BANK2              100      0       0       9        0.0%
BITBANK1           100      0       0       6        0.0%
BANK1              100      0       0       7        0.0%
BITBANK15           80      0       0      34        0.0%
BANK15              80      0       0      35        0.0%
BITBANK0            80      0       0       4        0.0%
BANK0               80      B       B       5        8.6%
BITCOMRAM           7E      0       0       0        0.0%
COMRAM              7E     1F      69       1       83.3%
BITBIGSFRhl         39      0       0      38        0.0%
BITBIGSFRhhll       1F      0       0      37        0.0%
BITBIGSFRhhh         D      0       0      36        0.0%
BITBIGSFRlh          4      0       0      39        0.0%
BITBIGSFRll          4      0       0      40        0.0%
BIGSFR               0      0       0     200        0.0%
BITSFR               0      0       0     200        0.0%
SFR                  0      0       0     200        0.0%
STACK                0      0       0       2        0.0%
NULL                 0      0       0       0        0.0%
ABS                  0      0      74      41        0.0%
DATA                 0      0      74       3        0.0%
CODE                 0      0       0       0        0.0%


Microchip Technology PIC18 Macro Assembler V2.46 build 20240104201356 
Symbol Table                                                                                   Wed Jul 31 07:10:46 2024

                     ?_Interrupt_Manager_Low 0034                      ?_Interrupt_Manager_High 0034  
                 Interrupt_INTx_Pin_init@ret 0088                                           bsr 0FE0  
                                        l413 124A                                          l432 1360  
                                        l602 10B4                                          l611 1A92  
                                        l620 1816                                          l604 10BA  
                                        l540 138A                                          l517 18C4  
                                        l453 1928                                          l622 185A  
                                        l606 1132                                          l542 1392  
                                        l551 1458                                          l560 17A6  
                                        l544 1398                                          l617 180A  
                                        l545 13D2                                          l562 17EA  
                                        l538 1380                                          l619 1810  
                                        l547 13DA                                          l652 1AEA  
                                        l557 179A                                          l549 13E0  
                                        l581 14CC                                          l574 1486  
                                        l647 1B16                                          l559 17A0  
                                        l591 1034                                          l583 1544  
                                        l576 148C                                          l744 1972  
                                        l657 1ABE                                          l593 103A  
                                        l738 1C06                                          l579 14C6  
                                        l739 1C06                                          l668 15EC  
                                        l597 1074                                          l599 107A  
                                        _ret 0069                                          tosl 0FFD  
                                        wreg 0FE8     Interrupt_INTx_Clear_Flag@_interrupt_INTx 0080  
                                       l4110 17E8                                         l4102 177C  
                                       l4030 116A                                         l4120 17EC  
                                       l4104 1792                                         l4032 1172  
                                       l4040 1248                                         l4050 1B0C  
                                       l4122 1802                                         l4034 11CA  
                                       l4026 1134                                         l4202 1506  
                                       l4052 1B14                                         l4044 1AEC  
                                       l4060 1AD8                                         l4108 17AC  
                                       l4140 102C                                         l4028 114A  
                                       l4204 1542                                         l4046 1AF2  
                                       l4062 1AE0                                         l4070 1A9A  
                                       l4126 181C                                         l4038 121C  
                                       l4230 1A82                                         l4310 1926  
                                       l4302 18C6                                         l4048 1B04  
                                       l4064 1AE8                                         l4056 1AC0  
                                       l4072 1AAC                                         l4240 1560  
                                       l4128 1858                                         l4152 10C0  
                                       l4144 1040                                         l4232 1A90  
                                       l4080 124C                                         l4304 18D8  
                                       l4058 1AC6                                         l4074 1AB4  
                                       l4242 157A                                         l4250 15EA  
                                       l4138 1016                                         l4226 1A68  
                                       l4410 18A6                                         l4082 1262  
                                       l4306 18F8                                         l4076 1ABC  
                                       l4068 1A94                                         l4244 1594  
                                       l4236 1546                                         l4148 1080  
                                       l4156 10F4                                         l4260 1378  
                                       l4228 1A7A                                         l4412 18AE  
                                       l4404 185C                                         l4092 1334  
                                       l4084 1282                                         l4308 1900  
                                       l4238 1558                                         l4158 1130  
                                       l4270 13E6                                         l4190 147E  
                                       l4414 18B6                                         l4406 186E  
                                       l4086 128A                                         l4094 135E  
                                       l4248 15AE                                         l4264 139E  
                                       l4280 1456                                         l4416 18C2  
                                       l4408 1876                                         l4088 12E2  
                                       l4258 1362                                         l4194 1492  
                                       l4186 145A                                         l5500 17CA  
                                       l4188 1470                                         l5076 1C02  
                                       l5502 183A                                         l4278 141A  
                                       l4198 14D2                      ??_application_initializ 008B  
                                       l5504 15CC                                         l4482 192A  
                                       l5480 14B0                                         l5490 1438  
                                       l5482 14F0                                         l5492 105E  
                                       l5484 1524                                         l5494 109E  
                                       l5486 13BC                                         l5478 1348  
                                       l5496 10DE                                         l5488 1404  
                                       l5498 1112                                         STR_1 1011  
                                       u3000 18F8                                         u3001 18F4  
                                       u3100 186E                                         u3101 186A  
                                       _LATA 0F89                                         _LATB 0F8A  
                                       _LATC 0F8B                                         _LATD 0F8C  
                                       _LATE 0F8D                                         u2800 116A  
                                       u2801 1166                                         u2910 1792  
                                       u2830 1232                                         u2814 1190  
                                       u2911 178E                                         u2831 122C  
                                       u2815 118C                                         u2840 1B04  
                                       u2920 1802                                         u2824 11E8  
                                       u2904 1300                                         u2841 1B00  
                                       u2921 17FE                                         u2825 11E4  
                                       u2905 12FC                                         u2850 1AD8  
                                       u2930 102C                                         u2851 1AD4  
                                       u2931 1028                                         u2860 1AAC  
                                       u2836 1234                                         u2940 1470  
                                       u2861 1AA8                                         u2941 146C  
                                       u2790 114A                                         u2950 147E  
                                       u2870 1262                                         u2791 1146  
                                       u2951 147A                                         u2871 125E  
                                       u2960 1A7A                                         u2880 1282  
                                       u2961 1A76                                         u2881 127E  
                                       u2970 1558                                         u2971 1554  
                                       u2980 1378                                         u2981 1374  
                                       u2894 12A8                                         u2990 18D8  
                                       u2895 12A4                                         u2991 18D4  
                            __end_ofi2_ISR_0 1BE0                              __end_ofi2_ISR_1 1BBE  
                            __end_ofi2_ISR_2 1C02                                         _led1 0033  
                                       _led2 0032                                         _led3 0031  
                                       _main 1C02                                         fsr2h 0FDA  
                                       indf2 0FDF                                         fsr1l 0FE1  
                                       fsr2l 0FD9                     ?_gpio_pin_direction_init 0080  
                                       btemp 006A                                         prodh 0FF4  
                                       prodl 0FF3                                         start 0086  
             __end_of_Interrupt_Manager_High 177C                                 ___param_bank 0000  
                     ?_gpio_pin_toggle_logic 0042                         _gpio_pin_write_logic 124C  
                           __end_of_INT0_ISR 1A68                             __end_of_INT1_ISR 1A0C  
                           __end_of_INT2_ISR 1A3A                                        ?_main 0034  
    INT2_Interrupt_Handler@Interrupt_Handler 0080      INT1_Interrupt_Handler@Interrupt_Handler 0080  
    INT0_Interrupt_Handler@Interrupt_Handler 0080                     ??_INT2_Interrupt_Handler 0082  
                  ?_Interrupt_INTx_Edge_init 0080                                        i1l446 1678  
                                      i1l703 005E                                        i1l750 1B42  
                                      i1l753 1B9A                                        i1l747 1B6E  
                                      i1l676 1A0A                                        i2l446 1704  
                                      i2l750 1BBC                                        i2l672 1A66  
                                      i2l680 1A38                                        i2l753 1C00  
                                      i2l747 1BDE                                        i2l697 1760  
                ecu_dc_motor_initializ@F3064 0068                  ecu_dc_motor_initializ@F3066 0067  
                                      _ISR_0 1B44                                        _ISR_1 1B18  
                                      _ISR_2 1B70                                        _PORTA 0F80  
                                      _PORTB 0F81                                        _PORTC 0F82  
                                      _PORTD 0F83                                        _PORTE 0F84  
                                      _TRISA 0F92                                        _TRISB 0F93  
                                      _TRISC 0F94                                        _TRISD 0F95  
                                      _TRISE 0F96                     Interrupt_INTx_Enable@ret 0083  
                                      pclath 0FFA                                        pclatu 0FFB  
                                      tablat 0FF5                                        ttemp5 006B  
                                      ttemp6 006E                                        ttemp7 0072  
                                      status 0FD8                                        wtemp8 006B  
                     _Interrupt_INTx_Disable 177C                              __initialization 1974  
                    i2_gpio_pin_toggle_logic 167A                                 __end_of_main 1C0E  
                      ?_gpio_pin_write_logic 0080                          ecu_led_toggle@F3076 005D  
    Interrupt_INTx_Edge_init@_interrupt_INTx 0080                                _lat_registers 000B  
                                     ??_main 008B                      _gpio_pin_Initialization 18C6  
                              __activetblptr 0003                                       ?_ISR_0 0034  
                                     ?_ISR_1 0034                                       ?_ISR_2 0034  
         __end_of_INTx_Set_Interrupt_Handler 15EE                   _INTx_Set_Interrupt_Handler 1546  
                                  ??i2_ISR_0 003A                                    ??i2_ISR_1 003A  
                                  ??i2_ISR_2 003A                                       i1l3220 1B4E  
                                     i1l3230 1B84                                       i1l3222 1B58  
                                     i1l3224 1B22                                       i1l3312 19DE  
                                     i1l3226 1B2C                                       i1l3314 19E0  
                                     i1l3228 1B7A                                       i1l3316 19F2  
                                     i1l2910 1676                                       i1l2902 15EE  
                                     i1l2904 1602                                       i1l2906 1622  
                                     i1l2908 162A                                       i2l3310 1A4E  
                                     i2l3240 1BE0                                       i2l3232 1BBE  
                                     i2l3320 1A0E                                       i2l3090 167A  
                                     i2l3242 1BEA                                       i2l3234 1BC8  
                                     i2l3306 1A3A                                       i2l3322 1A20  
                                     i1l3962 003E                                       i2l3092 168E  
                                     i2l3236 1B9C                                       i2l3308 1A3C  
                                     i1l3964 004C                                       i2l3094 16AE  
                                     i2l3238 1BA6                                       i2l3318 1A0C  
                                     i1l3966 005A                                       i2l3096 16B6  
                                     i2l3098 1702                                       i2l3950 1720  
                                     i2l3960 175C                                       i2l3952 172E  
                                     i2l3954 173C                                       i2l3956 1740  
                                     i2l3958 174E                   ?_Interrupt_INTx_Clear_Flag 0080  
           gpio_pin_toggle_logic@_pin_config 0042           i2gpio_pin_toggle_logic@_pin_config 0034  
                   gpio_pin_toggle_logic@ret 0047                                       clear_0 199A  
                                     isa$std 0001                __end_of_Interrupt_INTx_Enable 145A  
                               __pdataCOMRAM 0001                                 __mediumconst 0000  
                                     tblptrh 0FF7                                       tblptrl 0FF6  
                                     tblptru 0FF8                      ?_INT1_Interrupt_Handler 0080  
                                 __accesstop 0080                      __end_of__initialization 19A0  
                                  ?_INT0_ISR 0034                                    ?_INT1_ISR 0034  
                                  ?_INT2_ISR 0034                                ___rparam_used 0001  
          __end_of_Interrupt_INTx_Clear_Flag 185C                    ??i2_gpio_pin_toggle_logic 0035  
                    ??_Interrupt_Manager_Low 004A                                __end_of_ISR_0 1B70  
                              __end_of_ISR_1 1B44                                __end_of_ISR_2 1B9C  
                     ??_gpio_pin_write_logic 0082                               __pcstackCOMRAM 0034  
                            _ISR_0$intlevel1 1B4E                      _Interrupt_INTx_Pin_init 1A68  
                  ??_gpio_pin_Initialization 0089                              _ISR_1$intlevel1 1B22  
                                    ??_ISR_0 0048                                      ??_ISR_1 0048  
                                    ??_ISR_2 0048           Interrupt_INTx_init@_interrupt_INTx 0089  
               ecu_dc_motor_move_right@F3071 0066                 ecu_dc_motor_move_right@F3073 0065  
                            _ISR_2$intlevel1 1B7A               __end_of_INT1_Interrupt_Handler 1AEC  
                __end_of_Interrupt_INTx_init 18C6                    INT0_Interrupt_Handler@ret 0082  
              __end_of_application_initializ 1974                        _INT0_InterruptHandler 0057  
                                 ??_INT0_ISR 003C                                   ??_INT1_ISR 004A  
                                 ??_INT2_ISR 003C                                   __pnvCOMRAM 0069  
                     _INT2_Interrupt_Handler 1A94                      ??_gpio_pin_toggle_logic 0043  
         gpio_pin_direction_init@_pin_config 0080             __end_of_Interrupt_INTx_Edge_init 1134  
       Interrupt_INTx_Enable@_interrupt_INTx 0080                                      i2_ISR_0 1BBE  
                                    i2_ISR_1 1B9C                                      i2_ISR_2 1BE0  
            __end_of_gpio_pin_Initialization 192A                      ?_Interrupt_INTx_Disable 0080  
                             _tris_registers 0015                    ??_Interrupt_INTx_Pin_init 0088  
                                    __Hparam 0000                                      __Lparam 0000  
                               __psmallconst 1000                                      __pcinit 1974  
                                    __ramtop 1000                                      __ptext0 1C02  
                                    __ptext1 192A                                      __ptext2 18C6  
                                    __ptext3 124C                                      __ptext4 185C  
                                    __ptext5 145A                                      __ptext6 1A68  
                                    __ptext7 1134                                      __ptext8 1362  
                                    __ptext9 1016                     ??_INT0_Interrupt_Handler 0082  
         gpio_pin_Initialization@_pin_config 0088                  ?_INTx_Set_Interrupt_Handler 0083  
             __end_of_Interrupt_INTx_Disable 17EC                               __pintcode_body 1706  
                       end_of_initialization 19A0                                      int_func 1706  
                ??_Interrupt_INTx_Clear_Flag 0081                                      postdec1 0FE5  
                                    postdec2 0FDD                                      postinc0 0FEE  
                                    postinc2 0FDE                     _Interrupt_INTx_Edge_init 1016  
Interrupt_INTx_Priority_init@_interrupt_INTx 0080                        _INT1_InterruptHandler 0055  
                   ??_Interrupt_Manager_High 003C                __end_of_Interrupt_Manager_Low 0086  
                      ecu_led_turn_off@F3071 005E                      _gpio_pin_direction_init 1134  
                              __pidataCOMRAM 19AA                     ecu_relay_initializ@F3061 005C  
       __end_of_Interrupt_INTx_Priority_init 1546                 _Interrupt_INTx_Priority_init 145A  
                  _Interrupt_INTx_Clear_Flag 17EC                        _Interrupt_INTx_Enable 1362  
                        start_initialization 1974                  ecu_dc_motor_move_left@F3080 0063  
                ecu_dc_motor_move_left@F3078 0064                      ?_INT2_Interrupt_Handler 0080  
                Interrupt_INTx_Edge_init@ret 0083                __end_of_gpio_pin_toggle_logic 167A  
                     Interrupt_INTx_init@ret 008A        Interrupt_INTx_Disable@_interrupt_INTx 0080  
              ?_Interrupt_INTx_Priority_init 0080                                  __pbssCOMRAM 0053  
                              __pcstackBANK0 0080                                     ?i2_ISR_0 0034  
                                   ?i2_ISR_1 0034                                     ?i2_ISR_2 0034  
             __end_of_INT2_Interrupt_Handler 1AC0                     ?i2_gpio_pin_toggle_logic 0034  
                  INT1_Interrupt_Handler@ret 0082                        _INT2_InterruptHandler 0053  
                     _INT0_Interrupt_Handler 1AEC                        _application_initializ 192A  
                   ?_gpio_pin_Initialization 0088                    ??_gpio_pin_direction_init 0081  
                                  __pintcode 0008              gpio_pin_write_logic@_pin_config 0080  
                                __pintcodelo 0018                    gpio_pin_write_logic@logic 0081  
                     ?_Interrupt_INTx_Enable 0080                                  __smallconst 1000  
            Interrupt_INTx_Priority_init@ret 0083                                     _INT0_ISR 1A3A  
                                   _INT1_ISR 19DE                                     _INT2_ISR 1A0C  
                 ??_Interrupt_INTx_Edge_init 0081                               _keypad_sampels 1001  
                                   i1u201_20 19F2                                     i1u201_21 19EE  
                                   i1u202_28 19F8                                     i1u202_29 1A0A  
                      ecu_relay_toggle@F3076 0059                                     i1u167_20 1602  
                                   i1u167_21 15FE                                     i1u168_20 1622  
                                   i1u168_21 161E                                     i2u200_48 1A54  
                                   i1u169_24 1648                                     i2u200_49 1A66  
                                   i1u169_25 1644                                     i2u203_40 1A20  
                                   i2u203_41 1A1C                                     i1u277_20 004C  
                                   i1u277_21 0048                                     i2u204_48 1A26  
                                   i2u204_49 1A38                                     i1u381_27 1B36  
                                   i1u278_20 005A                                     i1u278_21 0056  
                 gpio_pin_Initialization@ret 008A                                     i1u382_27 1B62  
                                   i1u383_27 1B8E                                     i2u180_44 16D4  
                                   i2u180_45 16D0                                     i2u273_40 172E  
                                   i2u273_41 172A                                     i2u178_40 168E  
                                   i2u274_40 173C                                     i2u178_41 168A  
                                   i2u274_41 1738                                     i2u179_40 16AE  
                                   i2u275_40 174E                                     i2u179_41 16AA  
                                   i2u275_41 174A                                     i2u276_40 175C  
                                   i2u276_41 1758                                     i2u199_40 1A4E  
                                   i2u199_41 1A4A                                     i2u384_47 1BB0  
                                   i2u385_47 1BD2                                     i2u386_47 1BF4  
                                   _RCONbits 0FD0                       _Interrupt_Manager_High 0008  
                   ??_INT1_Interrupt_Handler 0082                         ecu_led_turn_on@F3066 005F  
            __end_of_gpio_pin_direction_init 124C              __end_ofi2_gpio_pin_toggle_logic 1706  
             ??_Interrupt_INTx_Priority_init 0081                      gpio_pin_write_logic@ret 0087  
                                _INTCON2bits 0FF1                                  _INTCON3bits 0FF0  
                                  copy_data0 1988                     ?_Interrupt_INTx_Pin_init 0087  
                     __end_of_keypad_sampels 1011                       ?_application_initializ 0034  
                                   __Hrparam 0000                                     __Lrparam 0000  
                  Interrupt_INTx_Disable@ret 0083                                     __ptext10 177C  
                                   __ptext11 17EC                                     __ptext20 1B70  
                                   __ptext12 1546                                     __ptext21 15EE  
                                   __ptext13 1A94                                     __ptext14 1AC0  
                                   __ptext23 1A0C                                     __ptext15 1AEC  
                                   __ptext24 1A3A                                     __ptext25 1B9C  
                                   __ptext17 19DE                                     __ptext26 1BBE  
                                   __ptext18 1B18                                     __ptext27 1BE0  
                                   __ptext19 1B44                                     __ptext28 167A  
                                   _int1_obj 0025                                     _int2_obj 001F  
                     ecu_dc_motor_stop@F3085 0062                       ecu_dc_motor_stop@F3087 0061  
                                   _into_obj 002B                      ecu_relay_turn_off@F3071 005A  
                                   isa$xinst 0000                                     int$flags 006A  
                      _Interrupt_Manager_Low 0018                       ecu_led_initializ@F3061 0060  
                   ??_Interrupt_INTx_Disable 0081                                   _INTCONbits 0FF2  
                        _Interrupt_INTx_init 185C       Interrupt_INTx_Pin_init@_interrupt_INTx 0087  
            __end_of_Interrupt_INTx_Pin_init 1A94                 __end_of_gpio_pin_write_logic 1362  
                    ?_INT0_Interrupt_Handler 0080                                     intlevel1 0000  
                                   intlevel2 0000                 Interrupt_INTx_Clear_Flag@ret 0083  
                     ecu_relay_turn_on@F3066 005B                   i2gpio_pin_toggle_logic@ret 0039  
                       ?_Interrupt_INTx_init 0089                        _gpio_pin_toggle_logic 15EE  
                    ??_Interrupt_INTx_Enable 0081                INTx_Set_Interrupt_Handler@ret 0086  
                             _port_registers 0001                 ??_INTx_Set_Interrupt_Handler 0084  
             __end_of_INT0_Interrupt_Handler 1B18                   gpio_pin_direction_init@ret 0086  
                  INT2_Interrupt_Handler@ret 0082                       _INT1_Interrupt_Handler 1AC0  
                      ??_Interrupt_INTx_init 008A    INTx_Set_Interrupt_Handler@_interrupt_INTx 0083  
